(dp0
S'parameterArray'
p1
(lp2
(dp3
S'trial_start'
p4
F29.554487335735757
sS'task'
p5
I1
sS'trial_orientation'
p6
F3.0
sS'base_color_lum'
p7
cnumpy.core.multiarray
scalar
p8
(cnumpy
dtype
p9
(S'i4'
p10
I0
I1
tp11
Rp12
(I3
S'<'
p13
NNNI-1
I-1
I0
tp14
bS'7\x00\x00\x00'
p15
tp16
Rp17
sS'trial_cue'
p18
S'red45'
p19
sS'trial_color'
p20
I-70
sS'trial_stimulus_label'
p21
S'green45'
p22
sS'trial_stimulus'
p23
I2
sS'base_ori'
p24
g8
(g12
S'-\x00\x00\x00'
p25
tp26
Rp27
sS'trial_end'
p28
F35.899809419548546
sS'base_color_b'
p29
g8
(g12
S'K\x00\x00\x00'
p30
tp31
Rp32
sS'base_color_a'
p33
g8
(g12
S'\xb0\xff\xff\xff'
p34
tp35
Rp36
sS'trial_position_y'
p37
I0
sS'trial_position_x'
p38
I0
sa(dp39
g4
F36.149697879382074
sg5
I1
sg6
F3.0
sg7
g8
(g12
S'7\x00\x00\x00'
p40
tp41
Rp42
sg18
S'red135'
p43
sg20
I70
sg21
g19
sg23
I0
sg24
g8
(g12
S'-\x00\x00\x00'
p44
tp45
Rp46
sg28
F42.99108733488083
sg29
g8
(g12
S'K\x00\x00\x00'
p47
tp48
Rp49
sg33
g8
(g12
S'P\x00\x00\x00'
p50
tp51
Rp52
sg37
I0
sg38
I0
sa(dp53
S'reaction_time'
p54
F3.091625721091077
sg4
F43.2404278581007
sg5
I1
sg6
F3.0
sg7
g8
(g12
S'7\x00\x00\x00'
p55
tp56
Rp57
sS'button'
p58
S'f'
p59
sg18
g22
sg20
I-70
sg21
g22
sg23
I2
sg24
g8
(g12
S'-\x00\x00\x00'
p60
tp61
Rp62
sg28
F50.08237921946056
sg29
g8
(g12
S'K\x00\x00\x00'
p63
tp64
Rp65
sg33
g8
(g12
S'\xb0\xff\xff\xff'
p66
tp67
Rp68
sS'correct_answer'
p69
I1
sg37
I0
sg38
I0
sS'response'
p70
I1
sS'trial_direction'
p71
F1.0
sa(dp72
g4
F50.33239083674289
sg5
I1
sg6
F3.0
sg7
g8
(g12
S'7\x00\x00\x00'
p73
tp74
Rp75
sg18
g43
sg20
I70
sg21
g43
sg23
I1
sg24
g8
(g12
S'\x87\x00\x00\x00'
p76
tp77
Rp78
sg28
F56.67367637814459
sg29
g8
(g12
S'K\x00\x00\x00'
p79
tp80
Rp81
sg33
g8
(g12
S'P\x00\x00\x00'
p82
tp83
Rp84
sg37
I0
sg38
I0
sa(dp85
g4
F56.92923578236969
sg5
I1
sg6
F-3.0
sg7
g8
(g12
S'7\x00\x00\x00'
p86
tp87
Rp88
sg18
S'green135'
p89
sg20
I-70
sg21
g89
sg23
I3
sg24
g8
(g12
S'\x87\x00\x00\x00'
p90
tp91
Rp92
sg28
F63.27332800221211
sg29
g8
(g12
S'K\x00\x00\x00'
p93
tp94
Rp95
sg33
g8
(g12
S'\xb0\xff\xff\xff'
p96
tp97
Rp98
sg37
I0
sg38
I0
sa(dp99
g54
F2.091673045481002
sg4
F63.524524439768356
sg5
I1
sg6
F3.0
sg7
g8
(g12
S'7\x00\x00\x00'
p100
tp101
Rp102
sg58
S's'
p103
sg18
g89
sg20
I70
sg21
g43
sg23
I1
sg24
g8
(g12
S'\x87\x00\x00\x00'
p104
tp105
Rp106
sg28
F69.86463456875572
sg29
g8
(g12
S'K\x00\x00\x00'
p107
tp108
Rp109
sg33
g8
(g12
S'P\x00\x00\x00'
p110
tp111
Rp112
sg69
I1
sg37
I0
sg38
I0
sg70
I-1
sg71
F-1.0
sa(dp113
g54
F1.7083437746332493
sg4
F70.11738957523448
sg5
I1
sg6
F-3.0
sg7
g8
(g12
S'7\x00\x00\x00'
p114
tp115
Rp116
sg58
S'f'
p117
sg18
g19
sg20
I70
sg21
g19
sg23
I0
sg24
g8
(g12
S'-\x00\x00\x00'
p118
tp119
Rp120
sg28
F76.45593372304666
sg29
g8
(g12
S'K\x00\x00\x00'
p121
tp122
Rp123
sg33
g8
(g12
S'P\x00\x00\x00'
p124
tp125
Rp126
sg69
I1
sg37
I0
sg38
I0
sg70
I1
sg71
F1.0
sa(dp127
g54
F2.4583093504161297
sg4
F76.7049680631635
sg5
I1
sg6
F3.0
sg7
g8
(g12
S'7\x00\x00\x00'
p128
tp129
Rp130
sg58
S's'
p131
sg18
g43
sg20
I70
sg21
g19
sg23
I0
sg24
g8
(g12
S'-\x00\x00\x00'
p132
tp133
Rp134
sg28
F83.04724542115127
sg29
g8
(g12
S'K\x00\x00\x00'
p135
tp136
Rp137
sg33
g8
(g12
S'P\x00\x00\x00'
p138
tp139
Rp140
sg69
I1
sg37
I0
sg38
I0
sg70
I-1
sg71
F-1.0
sa(dp141
g54
F0.7583819049777958
sg4
F83.29976979249932
sg5
I1
sg6
F3.0
sg7
g8
(g12
S'7\x00\x00\x00'
p142
tp143
Rp144
sg58
S'f'
p145
sg18
g89
sg20
I55
sg21
g19
sg23
I0
sg24
g8
(g12
S'-\x00\x00\x00'
p146
tp147
Rp148
sg28
F89.63856168064285
sg29
g8
(g12
S'K\x00\x00\x00'
p149
tp150
Rp151
sg33
g8
(g12
S'P\x00\x00\x00'
p152
tp153
Rp154
sg69
I1
sg37
I0
sg38
I0
sg70
I1
sg71
F1.0
sa(dp155
g54
F0.8334252737904535
sg4
F89.8926933707362
sg5
I1
sg6
F3.0
sg7
g8
(g12
S'7\x00\x00\x00'
p156
tp157
Rp158
sg58
S's'
p159
sg18
g19
sg20
I55
sg21
g43
sg23
I1
sg24
g8
(g12
S'\x87\x00\x00\x00'
p160
tp161
Rp162
sg28
F96.7381829429778
sg29
g8
(g12
S'K\x00\x00\x00'
p163
tp164
Rp165
sg33
g8
(g12
S'P\x00\x00\x00'
p166
tp167
Rp168
sg69
I1
sg37
I0
sg38
I0
sg70
I-1
sg71
F-1.0
sa(dp169
g54
F0.9833760250648993
sg4
F96.9917749639717
sg5
I1
sg6
F-3.0
sg7
g8
(g12
S'7\x00\x00\x00'
p170
tp171
Rp172
sg58
S'f'
p173
sg18
g22
sg20
I-70
sg21
g22
sg23
I2
sg24
g8
(g12
S'-\x00\x00\x00'
p174
tp175
Rp176
sg28
F103.33782715479174
sg29
g8
(g12
S'K\x00\x00\x00'
p177
tp178
Rp179
sg33
g8
(g12
S'\xb0\xff\xff\xff'
p180
tp181
Rp182
sg69
I1
sg37
I0
sg38
I0
sg70
I1
sg71
F1.0
sa(dp183
g54
F0.9500687771633238
sg4
F103.5912982990294
sg5
I1
sg6
F-3.0
sg7
g8
(g12
S'7\x00\x00\x00'
p184
tp185
Rp186
sg58
S's'
p187
sg18
g19
sg20
I55
sg21
g19
sg23
I0
sg24
g8
(g12
S'-\x00\x00\x00'
p188
tp189
Rp190
sg28
F110.43744385573973
sg29
g8
(g12
S'K\x00\x00\x00'
p191
tp192
Rp193
sg33
g8
(g12
S'P\x00\x00\x00'
p194
tp195
Rp196
sg69
I1
sg37
I0
sg38
I0
sg70
I-1
sg71
F-1.0
sa(dp197
g54
F1.0000880917868926
sg4
F110.68842448267424
sg5
I1
sg6
F-3.0
sg7
g8
(g12
S'7\x00\x00\x00'
p198
tp199
Rp200
sg58
S'f'
p201
sg18
g19
sg20
I40
sg21
g43
sg23
I1
sg24
g8
(g12
S'\x87\x00\x00\x00'
p202
tp203
Rp204
sg28
F117.52872633245897
sg29
g8
(g12
S'K\x00\x00\x00'
p205
tp206
Rp207
sg33
g8
(g12
S'P\x00\x00\x00'
p208
tp209
Rp210
sg69
I1
sg37
I0
sg38
I0
sg70
I1
sg71
F1.0
sa(dp211
g54
F0.8417366910844066
sg4
F117.783031070172
sg5
I1
sg6
F3.0
sg7
g8
(g12
S'7\x00\x00\x00'
p212
tp213
Rp214
sg58
S'f'
p215
sg18
g43
sg20
I-70
sg21
g22
sg23
I2
sg24
g8
(g12
S'-\x00\x00\x00'
p216
tp217
Rp218
sg28
F124.62832906415952
sg29
g8
(g12
S'K\x00\x00\x00'
p219
tp220
Rp221
sg33
g8
(g12
S'\xb0\xff\xff\xff'
p222
tp223
Rp224
sg69
I1
sg37
I0
sg38
I0
sg70
I1
sg71
F1.0
sa(dp225
g54
F1.4667045831956784
sg4
F124.88232875911672
sg5
I1
sg6
F-3.0
sg7
g8
(g12
S'7\x00\x00\x00'
p226
tp227
Rp228
sg58
S'f'
p229
sg18
g89
sg20
I40
sg21
g19
sg23
I0
sg24
g8
(g12
S'-\x00\x00\x00'
p230
tp231
Rp232
sg28
F131.72794719054127
sg29
g8
(g12
S'K\x00\x00\x00'
p233
tp234
Rp235
sg33
g8
(g12
S'P\x00\x00\x00'
p236
tp237
Rp238
sg69
I1
sg37
I0
sg38
I0
sg70
I1
sg71
F1.0
sa(dp239
g54
F1.9666733662033948
sg4
F131.98217352941538
sg5
I1
sg6
F-3.0
sg7
g8
(g12
S'7\x00\x00\x00'
p240
tp241
Rp242
sg58
S's'
p243
sg18
g19
sg20
I40
sg21
g19
sg23
I0
sg24
g8
(g12
S'-\x00\x00\x00'
p244
tp245
Rp246
sg28
F138.32758912166173
sg29
g8
(g12
S'K\x00\x00\x00'
p247
tp248
Rp249
sg33
g8
(g12
S'P\x00\x00\x00'
p250
tp251
Rp252
sg69
I1
sg37
I0
sg38
I0
sg70
I-1
sg71
F-1.0
sa(dp253
g54
F1.933338179806924
sg4
F138.58018105855535
sg5
I1
sg6
F-3.0
sg7
g8
(g12
S'7\x00\x00\x00'
p254
tp255
Rp256
sg58
S'f'
p257
sg18
g89
sg20
I-55
sg21
g89
sg23
I3
sg24
g8
(g12
S'\x87\x00\x00\x00'
p258
tp259
Rp260
sg28
F144.91890937236712
sg29
g8
(g12
S'K\x00\x00\x00'
p261
tp262
Rp263
sg33
g8
(g12
S'\xb0\xff\xff\xff'
p264
tp265
Rp266
sg69
I0
sg37
I0
sg38
I0
sg70
I1
sg71
F-1.0
sa(dp267
g54
F2.1750024588727683
sg4
F145.17047898839792
sg5
I1
sg6
F-3.0
sg7
g8
(g12
S'7\x00\x00\x00'
p268
tp269
Rp270
sg58
S's'
p271
sg18
g43
sg20
I25
sg21
g43
sg23
I1
sg24
g8
(g12
S'\x87\x00\x00\x00'
p272
tp273
Rp274
sg28
F152.0101872876994
sg29
g8
(g12
S'K\x00\x00\x00'
p275
tp276
Rp277
sg33
g8
(g12
S'P\x00\x00\x00'
p278
tp279
Rp280
sg69
I1
sg37
I0
sg38
I0
sg70
I-1
sg71
F-1.0
sa(dp281
g54
F1.2833721763945505
sg4
F152.2659083360768
sg5
I1
sg6
F-3.0
sg7
g8
(g12
S'7\x00\x00\x00'
p282
tp283
Rp284
sg58
S'f'
p285
sg18
g22
sg20
I25
sg21
g43
sg23
I1
sg24
g8
(g12
S'\x87\x00\x00\x00'
p286
tp287
Rp288
sg28
F158.60982209165195
sg29
g8
(g12
S'K\x00\x00\x00'
p289
tp290
Rp291
sg33
g8
(g12
S'P\x00\x00\x00'
p292
tp293
Rp294
sg69
I1
sg37
I0
sg38
I0
sg70
I1
sg71
F1.0
sa(dp295
g54
F1.0833821544292732
sg4
F158.86369976950664
sg5
I1
sg6
F3.0
sg7
g8
(g12
S'7\x00\x00\x00'
p296
tp297
Rp298
sg58
S's'
p299
sg18
g43
sg20
I25
sg21
g43
sg23
I1
sg24
g8
(g12
S'\x87\x00\x00\x00'
p300
tp301
Rp302
sg28
F165.20946345259927
sg29
g8
(g12
S'K\x00\x00\x00'
p303
tp304
Rp305
sg33
g8
(g12
S'P\x00\x00\x00'
p306
tp307
Rp308
sg69
I1
sg37
I0
sg38
I0
sg70
I-1
sg71
F-1.0
sa(dp309
g54
F1.9000007127169738
sg4
F165.46649789534695
sg5
I1
sg6
F-3.0
sg7
g8
(g12
S'7\x00\x00\x00'
p310
tp311
Rp312
sg58
S'f'
p313
sg18
g43
sg20
I-70
sg21
g89
sg23
I3
sg24
g8
(g12
S'\x87\x00\x00\x00'
p314
tp315
Rp316
sg28
F172.30908442984764
sg29
g8
(g12
S'K\x00\x00\x00'
p317
tp318
Rp319
sg33
g8
(g12
S'\xb0\xff\xff\xff'
p320
tp321
Rp322
sg69
I0
sg37
I0
sg38
I0
sg70
I1
sg71
F-1.0
sa(dp323
g54
F1.2833832947753763
sg4
F172.5646920137233
sg5
I1
sg6
F-3.0
sg7
g8
(g12
S'7\x00\x00\x00'
p324
tp325
Rp326
sg58
S'f'
p327
sg18
g89
sg20
I10
sg21
g19
sg23
I0
sg24
g8
(g12
S'-\x00\x00\x00'
p328
tp329
Rp330
sg28
F179.40870027553592
sg29
g8
(g12
S'K\x00\x00\x00'
p331
tp332
Rp333
sg33
g8
(g12
S'P\x00\x00\x00'
p334
tp335
Rp336
sg69
I1
sg37
I0
sg38
I0
sg70
I1
sg71
F1.0
sa(dp337
g54
F1.033387927433978
sg4
F179.6712078125156
sg5
I1
sg6
F-3.0
sg7
g8
(g12
S'7\x00\x00\x00'
p338
tp339
Rp340
sg58
S's'
p341
sg18
g22
sg20
I-85
sg21
g22
sg23
I2
sg24
g8
(g12
S'-\x00\x00\x00'
p342
tp343
Rp344
sg28
F186.01666787828435
sg29
g8
(g12
S'K\x00\x00\x00'
p345
tp346
Rp347
sg33
g8
(g12
S'\xb0\xff\xff\xff'
p348
tp349
Rp350
sg69
I1
sg37
I0
sg38
I0
sg70
I-1
sg71
F-1.0
sa(dp351
g54
F1.6583618063659742
sg4
F186.27321026141
sg5
I1
sg6
F-3.0
sg7
g8
(g12
S'7\x00\x00\x00'
p352
tp353
Rp354
sg58
S's'
p355
sg18
g89
sg20
I-85
sg21
g89
sg23
I3
sg24
g8
(g12
S'\x87\x00\x00\x00'
p356
tp357
Rp358
sg28
F192.61632007252592
sg29
g8
(g12
S'K\x00\x00\x00'
p359
tp360
Rp361
sg33
g8
(g12
S'\xb0\xff\xff\xff'
p362
tp363
Rp364
sg69
I1
sg37
I0
sg38
I0
sg70
I-1
sg71
F-1.0
sa(dp365
g54
F0.8833918473765152
sg4
F192.8734072563111
sg5
I1
sg6
F-3.0
sg7
g8
(g12
S'7\x00\x00\x00'
p366
tp367
Rp368
sg58
S's'
p369
sg18
g89
sg20
I-85
sg21
g89
sg23
I3
sg24
g8
(g12
S'\x87\x00\x00\x00'
p370
tp371
Rp372
sg28
F199.71592308931304
sg29
g8
(g12
S'K\x00\x00\x00'
p373
tp374
Rp375
sg33
g8
(g12
S'\xb0\xff\xff\xff'
p376
tp377
Rp378
sg69
I1
sg37
I0
sg38
I0
sg70
I-1
sg71
F-1.0
sa(dp379
g54
F1.3333769515966196
sg4
F199.98553042516323
sg5
I1
sg6
F3.0
sg7
g8
(g12
S'7\x00\x00\x00'
p380
tp381
Rp382
sg58
S's'
p383
sg18
g22
sg20
F-73.75
sg21
g22
sg23
I2
sg24
g8
(g12
S'-\x00\x00\x00'
p384
tp385
Rp386
sg28
F206.32390152535572
sg29
g8
(g12
S'K\x00\x00\x00'
p387
tp388
Rp389
sg33
g8
(g12
S'\xb0\xff\xff\xff'
p390
tp391
Rp392
sg69
I1
sg37
I0
sg38
I0
sg70
I-1
sg71
F-1.0
sa(dp393
g54
F1.1417177328194157
sg4
F206.58039857969743
sg5
I1
sg6
F3.0
sg7
g8
(g12
S'7\x00\x00\x00'
p394
tp395
Rp396
sg58
S's'
p397
sg18
g89
sg20
F-73.75
sg21
g89
sg23
I3
sg24
g8
(g12
S'\x87\x00\x00\x00'
p398
tp399
Rp400
sg28
F212.92355115381633
sg29
g8
(g12
S'K\x00\x00\x00'
p401
tp402
Rp403
sg33
g8
(g12
S'\xb0\xff\xff\xff'
p404
tp405
Rp406
sg69
I1
sg37
I0
sg38
I0
sg70
I-1
sg71
F-1.0
sa(dp407
g54
F0.7917225080209391
sg4
F213.1797112356935
sg5
I1
sg6
F-3.0
sg7
g8
(g12
S'7\x00\x00\x00'
p408
tp409
Rp410
sg58
S's'
p411
sg18
g89
sg20
F-73.75
sg21
g89
sg23
I3
sg24
g8
(g12
S'\x87\x00\x00\x00'
p412
tp413
Rp414
sg28
F220.0231464732633
sg29
g8
(g12
S'K\x00\x00\x00'
p415
tp416
Rp417
sg33
g8
(g12
S'\xb0\xff\xff\xff'
p418
tp419
Rp420
sg69
I1
sg37
I0
sg38
I0
sg70
I-1
sg71
F-1.0
sa(dp421
g54
F1.4083550355571788
sg4
F220.28087852313638
sg5
I1
sg6
F3.0
sg7
g8
(g12
S'7\x00\x00\x00'
p422
tp423
Rp424
sg58
S's'
p425
sg18
g43
sg20
F-62.5
sg21
g22
sg23
I2
sg24
g8
(g12
S'-\x00\x00\x00'
p426
tp427
Rp428
sg28
F227.12277087155235
sg29
g8
(g12
S'K\x00\x00\x00'
p429
tp430
Rp431
sg33
g8
(g12
S'\xb0\xff\xff\xff'
p432
tp433
Rp434
sg69
I1
sg37
I0
sg38
I0
sg70
I-1
sg71
F-1.0
sa(dp435
g54
F1.141715167039365
sg4
F227.38040143056423
sg5
I1
sg6
F-3.0
sg7
g8
(g12
S'7\x00\x00\x00'
p436
tp437
Rp438
sg58
S's'
p439
sg18
g43
sg20
I10
sg21
g43
sg23
I1
sg24
g8
(g12
S'\x87\x00\x00\x00'
p440
tp441
Rp442
sg28
F233.7224190745801
sg29
g8
(g12
S'K\x00\x00\x00'
p443
tp444
Rp445
sg33
g8
(g12
S'P\x00\x00\x00'
p446
tp447
Rp448
sg69
I1
sg37
I0
sg38
I0
sg70
I-1
sg71
F-1.0
sa(dp449
g54
F2.4582266752759097
sg4
F233.9819674117407
sg5
I1
sg6
F3.0
sg7
g8
(g12
S'7\x00\x00\x00'
p450
tp451
Rp452
sg58
S'f'
p453
sg18
g89
sg20
F-62.5
sg21
g89
sg23
I3
sg24
g8
(g12
S'\x87\x00\x00\x00'
p454
tp455
Rp456
sg28
F240.3220521680123
sg29
g8
(g12
S'K\x00\x00\x00'
p457
tp458
Rp459
sg33
g8
(g12
S'\xb0\xff\xff\xff'
p460
tp461
Rp462
sg69
I0
sg37
I0
sg38
I0
sg70
I1
sg71
F-1.0
sa(dp463
g54
F0.933398618184583
sg4
F240.5881335517097
sg5
I1
sg6
F3.0
sg7
g8
(g12
S'7\x00\x00\x00'
p464
tp465
Rp466
sg58
S's'
p467
sg18
g89
sg20
F-73.75
sg21
g89
sg23
I3
sg24
g8
(g12
S'\x87\x00\x00\x00'
p468
tp469
Rp470
sg28
F247.42999910197614
sg29
g8
(g12
S'K\x00\x00\x00'
p471
tp472
Rp473
sg33
g8
(g12
S'\xb0\xff\xff\xff'
p474
tp475
Rp476
sg69
I1
sg37
I0
sg38
I0
sg70
I-1
sg71
F-1.0
sa(dp477
g54
F1.2417133139751968
sg4
F247.69126765221063
sg5
I1
sg6
F-3.0
sg7
g8
(g12
S'7\x00\x00\x00'
p478
tp479
Rp480
sg58
S's'
p481
sg18
g89
sg20
I10
sg21
g43
sg23
I1
sg24
g8
(g12
S'\x87\x00\x00\x00'
p482
tp483
Rp484
sg28
F254.02964644974418
sg29
g8
(g12
S'K\x00\x00\x00'
p485
tp486
Rp487
sg33
g8
(g12
S'P\x00\x00\x00'
p488
tp489
Rp490
sg69
I1
sg37
I0
sg38
I0
sg70
I-1
sg71
F-1.0
sa(dp491
g54
F1.0083926670004075
sg4
F254.28864114855696
sg5
I1
sg6
F-3.0
sg7
g8
(g12
S'7\x00\x00\x00'
p492
tp493
Rp494
sg58
S's'
p495
sg18
g43
sg20
I-5
sg21
g43
sg23
I1
sg24
g8
(g12
S'\x87\x00\x00\x00'
p496
tp497
Rp498
sg28
F261.1292557384386
sg29
g8
(g12
S'K\x00\x00\x00'
p499
tp500
Rp501
sg33
g8
(g12
S'P\x00\x00\x00'
p502
tp503
Rp504
sg69
I1
sg37
I0
sg38
I0
sg70
I-1
sg71
F-1.0
sa(dp505
g54
F1.0833864307287513
sg4
F261.3874738611139
sg5
I1
sg6
F-3.0
sg7
g8
(g12
S'7\x00\x00\x00'
p506
tp507
Rp508
sg58
S'f'
p509
sg18
g19
sg20
F-73.75
sg21
g89
sg23
I3
sg24
g8
(g12
S'\x87\x00\x00\x00'
p510
tp511
Rp512
sg28
F267.7288999502516
sg29
g8
(g12
S'K\x00\x00\x00'
p513
tp514
Rp515
sg33
g8
(g12
S'\xb0\xff\xff\xff'
p516
tp517
Rp518
sg69
I1
sg37
I0
sg38
I0
sg70
I1
sg71
F1.0
sa(dp519
g54
F0.8333984756418431
sg4
F268.00551585723406
sg5
I1
sg6
F3.0
sg7
g8
(g12
S'7\x00\x00\x00'
p520
tp521
Rp522
sg58
S's'
p523
sg18
g43
sg20
I-5
sg21
g43
sg23
I1
sg24
g8
(g12
S'\x87\x00\x00\x00'
p524
tp525
Rp526
sg28
F274.34521489121744
sg29
g8
(g12
S'K\x00\x00\x00'
p527
tp528
Rp529
sg33
g8
(g12
S'P\x00\x00\x00'
p530
tp531
Rp532
sg69
I1
sg37
I0
sg38
I0
sg70
I-1
sg71
F-1.0
sa(dp533
g54
F1.3750400903154514
sg4
F274.6052176565581
sg5
I1
sg6
F-3.0
sg7
g8
(g12
S'7\x00\x00\x00'
p534
tp535
Rp536
sg58
S's'
p537
sg18
g22
sg20
F-73.75
sg21
g89
sg23
I3
sg24
g8
(g12
S'\x87\x00\x00\x00'
p538
tp539
Rp540
sg28
F280.9448422829164
sg29
g8
(g12
S'K\x00\x00\x00'
p541
tp542
Rp543
sg33
g8
(g12
S'\xb0\xff\xff\xff'
p544
tp545
Rp546
sg69
I1
sg37
I0
sg38
I0
sg70
I-1
sg71
F-1.0
sa(dp547
g54
F1.4083775574054016
sg4
F281.20861474952926
sg5
I1
sg6
F-3.0
sg7
g8
(g12
S'7\x00\x00\x00'
p548
tp549
Rp550
sg58
S'f'
p551
sg18
g89
sg20
F-65.3125
sg21
g22
sg23
I2
sg24
g8
(g12
S'-\x00\x00\x00'
p552
tp553
Rp554
sg28
F288.052790642314
sg29
g8
(g12
S'K\x00\x00\x00'
p555
tp556
Rp557
sg33
g8
(g12
S'\xb0\xff\xff\xff'
p558
tp559
Rp560
sg69
I0
sg37
I0
sg38
I0
sg70
I1
sg71
F-1.0
sa(dp561
g54
F0.9417051890050061
sg4
F288.3396571262401
sg5
I1
sg6
F3.0
sg7
g8
(g12
S'7\x00\x00\x00'
p562
tp563
Rp564
sg58
S's'
p565
sg18
g43
sg20
I-5
sg21
g43
sg23
I1
sg24
g8
(g12
S'\x87\x00\x00\x00'
p566
tp567
Rp568
sg28
F294.6857537905835
sg29
g8
(g12
S'K\x00\x00\x00'
p569
tp570
Rp571
sg33
g8
(g12
S'P\x00\x00\x00'
p572
tp573
Rp574
sg69
I1
sg37
I0
sg38
I0
sg70
I-1
sg71
F-1.0
sa(dp575
g54
F1.5250193502588445
sg4
F294.94597806828097
sg5
I1
sg6
F3.0
sg7
g8
(g12
S'7\x00\x00\x00'
p576
tp577
Rp578
sg58
S'f'
p579
sg18
g22
sg20
I-20
sg21
g19
sg23
I0
sg24
g8
(g12
S'-\x00\x00\x00'
p580
tp581
Rp582
sg28
F301.28540712517133
sg29
g8
(g12
S'K\x00\x00\x00'
p583
tp584
Rp585
sg33
g8
(g12
S'P\x00\x00\x00'
p586
tp587
Rp588
sg69
I1
sg37
I0
sg38
I0
sg70
I1
sg71
F1.0
sa(dp589
g54
F1.0917178040908766
sg4
F301.55407567055954
sg5
I1
sg6
F3.0
sg7
g8
(g12
S'7\x00\x00\x00'
p590
tp591
Rp592
sg58
S'f'
p593
sg18
g19
sg20
I-20
sg21
g19
sg23
I0
sg24
g8
(g12
S'-\x00\x00\x00'
p594
tp595
Rp596
sg28
F308.3933620415628
sg29
g8
(g12
S'K\x00\x00\x00'
p597
tp598
Rp599
sg33
g8
(g12
S'P\x00\x00\x00'
p600
tp601
Rp602
sg69
I0
sg37
I0
sg38
I0
sg70
I1
sg71
F-1.0
sa(dp603
g54
F1.0083858249199693
sg4
F308.6543115797931
sg5
I1
sg6
F-3.0
sg7
g8
(g12
S'7\x00\x00\x00'
p604
tp605
Rp606
sg58
S'f'
p607
sg18
g22
sg20
F-73.75
sg21
g22
sg23
I2
sg24
g8
(g12
S'-\x00\x00\x00'
p608
tp609
Rp610
sg28
F314.99300796389616
sg29
g8
(g12
S'K\x00\x00\x00'
p611
tp612
Rp613
sg33
g8
(g12
S'\xb0\xff\xff\xff'
p614
tp615
Rp616
sg69
I1
sg37
I0
sg38
I0
sg70
I1
sg71
F1.0
sa(dp617
g54
F1.3500354220204827
sg4
F315.25737654677323
sg5
I1
sg6
F-3.0
sg7
g8
(g12
S'7\x00\x00\x00'
p618
tp619
Rp620
sg58
S's'
p621
sg18
g89
sg20
F-73.75
sg21
g89
sg23
I3
sg24
g8
(g12
S'\x87\x00\x00\x00'
p622
tp623
Rp624
sg28
F321.6009815534653
sg29
g8
(g12
S'K\x00\x00\x00'
p625
tp626
Rp627
sg33
g8
(g12
S'\xb0\xff\xff\xff'
p628
tp629
Rp630
sg69
I1
sg37
I0
sg38
I0
sg70
I-1
sg71
F-1.0
sa(dp631
g54
F0.9083899586767075
sg4
F321.8633950118374
sg5
I1
sg6
F-3.0
sg7
g8
(g12
S'7\x00\x00\x00'
p632
tp633
Rp634
sg58
S's'
p635
sg18
g43
sg20
I-5
sg21
g43
sg23
I1
sg24
g8
(g12
S'\x87\x00\x00\x00'
p636
tp637
Rp638
sg28
F328.20895742372795
sg29
g8
(g12
S'K\x00\x00\x00'
p639
tp640
Rp641
sg33
g8
(g12
S'P\x00\x00\x00'
p642
tp643
Rp644
sg69
I1
sg37
I0
sg38
I0
sg70
I-1
sg71
F-1.0
sa(dp645
g54
F0.9000605809205808
sg4
F328.4720719102661
sg5
I1
sg6
F-3.0
sg7
g8
(g12
S'7\x00\x00\x00'
p646
tp647
Rp648
sg58
S'f'
p649
sg18
g22
sg20
F-73.75
sg21
g22
sg23
I2
sg24
g8
(g12
S'-\x00\x00\x00'
p650
tp651
Rp652
sg28
F334.81693158347116
sg29
g8
(g12
S'K\x00\x00\x00'
p653
tp654
Rp655
sg33
g8
(g12
S'\xb0\xff\xff\xff'
p656
tp657
Rp658
sg69
I1
sg37
I0
sg38
I0
sg70
I1
sg71
F1.0
sa(dp659
g54
F1.5750249807215368
sg4
F335.10075562226575
sg5
I1
sg6
F-3.0
sg7
g8
(g12
S'7\x00\x00\x00'
p660
tp661
Rp662
sg58
S'f'
p663
sg18
g19
sg20
I-5
sg21
g19
sg23
I0
sg24
g8
(g12
S'-\x00\x00\x00'
p664
tp665
Rp666
sg28
F341.9415509571072
sg29
g8
(g12
S'K\x00\x00\x00'
p667
tp668
Rp669
sg33
g8
(g12
S'P\x00\x00\x00'
p670
tp671
Rp672
sg69
I0
sg37
I0
sg38
I0
sg70
I1
sg71
F-1.0
sa(dp673
g54
F0.9000628616149697
sg4
F342.21575531579765
sg5
I1
sg6
F3.0
sg7
g8
(g12
S'7\x00\x00\x00'
p674
tp675
Rp676
sg58
S's'
p677
sg18
g43
sg20
F6.25
sg21
g43
sg23
I1
sg24
g8
(g12
S'\x87\x00\x00\x00'
p678
tp679
Rp680
sg28
F349.05782242235273
sg29
g8
(g12
S'K\x00\x00\x00'
p681
tp682
Rp683
sg33
g8
(g12
S'P\x00\x00\x00'
p684
tp685
Rp686
sg69
I1
sg37
I0
sg38
I0
sg70
I-1
sg71
F-1.0
sa(dp687
g54
F1.1083842569423723
sg4
F349.3385974590219
sg5
I1
sg6
F3.0
sg7
g8
(g12
S'7\x00\x00\x00'
p688
tp689
Rp690
sg58
S's'
p691
sg18
g89
sg20
F6.25
sg21
g43
sg23
I1
sg24
g8
(g12
S'\x87\x00\x00\x00'
p692
tp693
Rp694
sg28
F355.68247187263387
sg29
g8
(g12
S'K\x00\x00\x00'
p695
tp696
Rp697
sg33
g8
(g12
S'P\x00\x00\x00'
p698
tp699
Rp700
sg69
I0
sg37
I0
sg38
I0
sg70
I-1
sg71
F1.0
sa(dp701
g54
F1.1917153808544754
sg4
F355.96076209373314
sg5
I1
sg6
F3.0
sg7
g8
(g12
S'7\x00\x00\x00'
p702
tp703
Rp704
sg58
S'f'
p705
sg18
g22
sg20
F-67.421875
sg21
g89
sg23
I3
sg24
g8
(g12
S'\x87\x00\x00\x00'
p706
tp707
Rp708
sg28
F362.30711562118177
sg29
g8
(g12
S'K\x00\x00\x00'
p709
tp710
Rp711
sg33
g8
(g12
S'\xb0\xff\xff\xff'
p712
tp713
Rp714
sg69
I1
sg37
I0
sg38
I0
sg70
I1
sg71
F1.0
sa(dp715
g54
F1.0583769159602525
sg4
F362.5882749547063
sg5
I1
sg6
F-3.0
sg7
g8
(g12
S'7\x00\x00\x00'
p716
tp717
Rp718
sg58
S'f'
p719
sg18
g19
sg20
F14.6875
sg21
g19
sg23
I0
sg24
g8
(g12
S'-\x00\x00\x00'
p720
tp721
Rp722
sg28
F369.43172017031065
sg29
g8
(g12
S'K\x00\x00\x00'
p723
tp724
Rp725
sg33
g8
(g12
S'P\x00\x00\x00'
p726
tp727
Rp728
sg69
I1
sg37
I0
sg38
I0
sg70
I1
sg71
F1.0
sa(dp729
g54
F1.341731702067591
sg4
F369.7119606694405
sg5
I1
sg6
F3.0
sg7
g8
(g12
S'7\x00\x00\x00'
p730
tp731
Rp732
sg58
S's'
p733
sg18
g89
sg20
F-67.421875
sg21
g89
sg23
I3
sg24
g8
(g12
S'\x87\x00\x00\x00'
p734
tp735
Rp736
sg28
F376.0563642039451
sg29
g8
(g12
S'K\x00\x00\x00'
p737
tp738
Rp739
sg33
g8
(g12
S'\xb0\xff\xff\xff'
p740
tp741
Rp742
sg69
I0
sg37
I0
sg38
I0
sg70
I-1
sg71
F1.0
sa(dp743
g54
F1.0833935578957608
sg4
F376.33887741414947
sg5
I1
sg6
F-3.0
sg7
g8
(g12
S'7\x00\x00\x00'
p744
tp745
Rp746
sg58
S's'
p747
sg18
g89
sg20
F-73.75
sg21
g89
sg23
I3
sg24
g8
(g12
S'\x87\x00\x00\x00'
p748
tp749
Rp750
sg28
F383.1809793012808
sg29
g8
(g12
S'K\x00\x00\x00'
p751
tp752
Rp753
sg33
g8
(g12
S'\xb0\xff\xff\xff'
p754
tp755
Rp756
sg69
I1
sg37
I0
sg38
I0
sg70
I-1
sg71
F-1.0
sa(dp757
g4
F383.4550077614849
sg5
I1
sg6
F3.0
sg7
g8
(g12
S'7\x00\x00\x00'
p758
tp759
Rp760
sg18
g19
sg20
F14.6875
sg21
g19
sg23
I0
sg24
g8
(g12
S'-\x00\x00\x00'
p761
tp762
Rp763
sg28
F390.2972610296474
sg29
g8
(g12
S'K\x00\x00\x00'
p764
tp765
Rp766
sg33
g8
(g12
S'P\x00\x00\x00'
p767
tp768
Rp769
sg37
I0
sg38
I0
sa(dp770
g4
F390.5802933827099
sg5
I1
sg6
F-3.0
sg7
g8
(g12
S'7\x00\x00\x00'
p771
tp772
Rp773
sg18
g43
sg20
F-73.75
sg21
g89
sg23
I3
sg24
g8
(g12
S'\x87\x00\x00\x00'
p774
tp775
Rp776
sg28
F396.9219067738022
sg29
g8
(g12
S'K\x00\x00\x00'
p777
tp778
Rp779
sg33
g8
(g12
S'\xb0\xff\xff\xff'
p780
tp781
Rp782
sg37
I0
sg38
I0
sa(dp783
g4
F397.205076823735
sg5
I1
sg6
F3.0
sg7
g8
(g12
S'7\x00\x00\x00'
p784
tp785
Rp786
sg18
g43
sg20
F-73.75
sg21
g89
sg23
I3
sg24
g8
(g12
S'\x87\x00\x00\x00'
p787
tp788
Rp789
sg28
F403.5465496670895
sg29
g8
(g12
S'K\x00\x00\x00'
p790
tp791
Rp792
sg33
g8
(g12
S'\xb0\xff\xff\xff'
p793
tp794
Rp795
sg37
I0
sg38
I0
sa(dp796
g4
F403.8291253112784
sg5
I1
sg6
F-3.0
sg7
g8
(g12
S'7\x00\x00\x00'
p797
tp798
Rp799
sg18
g43
sg20
F-73.75
sg21
g22
sg23
I2
sg24
g8
(g12
S'-\x00\x00\x00'
p800
tp801
Rp802
sg28
F404.06317292930817
sg29
g8
(g12
S'K\x00\x00\x00'
p803
tp804
Rp805
sg33
g8
(g12
S'\xb0\xff\xff\xff'
p806
tp807
Rp808
sg37
I0
sg38
I0
sasS'eventArray'
p809
(lp810
(lp811
S'trial 0 started at 29.5544873357'
p812
aS'trial 0 phase 6 started at 32.7499735582'
p813
aa(lp814
S'trial 1 started at 36.1496978794'
p815
aS'trial 1 phase 6 started at 39.8412389297'
p816
aa(lp817
S'trial 2 started at 43.2404278581'
p818
aS'trial 2 phase 6 started at 46.9325271082'
p819
aS'trial 2 event f at 50.0241491231'
p820
aS'staircase 1 updated from 70.000000 to 70.000000 after response 1 at 50.024164'
p821
aa(lp822
S'trial 3 started at 50.3323908367'
p823
aS'trial 3 phase 6 started at 53.5238288283'
p824
aa(lp825
S'trial 4 started at 56.9292357824'
p826
aS'trial 4 phase 6 started at 60.1234778865'
p827
aa(lp828
S'trial 5 started at 63.5245244398'
p829
aS'trial 5 phase 6 started at 66.7147767557'
p830
aS'trial 5 event s at 68.8064463802'
p831
aS'staircase 0 updated from 70.000000 to 70.000000 after response 1 at 68.806462'
p832
aa(lp833
S'trial 6 started at 70.1173895752'
p834
aS'trial 6 phase 6 started at 73.306098717'
p835
aS'trial 6 event f at 75.0144484784'
p836
aS'staircase 0 updated from 70.000000 to 70.000000 after response 1 at 75.014463'
p837
aa(lp838
S'trial 7 started at 76.7049680632'
p839
aS'trial 7 phase 6 started at 79.8974012923'
p840
aS'trial 7 event s at 82.3557066515'
p841
aS'staircase 0 updated from 70.000000 to 55.000000 after response 1 at 82.355721'
p842
aa(lp843
S'trial 8 started at 83.2997697925'
p844
aS'trial 8 phase 6 started at 86.4887109948'
p845
aS'trial 8 event f at 87.2470883384'
p846
aS'staircase 0 updated from 55.000000 to 55.000000 after response 1 at 87.247105'
p847
aa(lp848
S'trial 9 started at 89.8926933707'
p849
aS'trial 9 phase 6 started at 93.5883325422'
p850
aS'trial 9 event s at 94.4217552502'
p851
aS'staircase 0 updated from 55.000000 to 55.000000 after response 1 at 94.421769'
p852
aa(lp853
S'trial 10 started at 96.991774964'
p854
aS'trial 10 phase 6 started at 100.187990438'
p855
aS'trial 10 event f at 101.171363327'
p856
aS'staircase 1 updated from 70.000000 to 70.000000 after response 1 at 101.171378'
p857
aa(lp858
S'trial 11 started at 103.591298299'
p859
aS'trial 11 phase 6 started at 107.287588038'
p860
aS'trial 11 event s at 108.237654535'
p861
aS'staircase 0 updated from 55.000000 to 40.000000 after response 1 at 108.237667'
p862
aa(lp863
S'trial 12 started at 110.688424483'
p864
aS'trial 12 phase 6 started at 114.378873366'
p865
aS'trial 12 event f at 115.378959177'
p866
aS'staircase 0 updated from 40.000000 to 40.000000 after response 1 at 115.378972'
p867
aa(lp868
S'trial 13 started at 117.78303107'
p869
aS'trial 13 phase 6 started at 121.478482655'
p870
aS'trial 13 event f at 122.320217065'
p871
aS'staircase 1 updated from 70.000000 to 55.000000 after response 1 at 122.320230'
p872
aa(lp873
S'trial 14 started at 124.882328759'
p874
aS'trial 14 phase 6 started at 128.578108763'
p875
aS'trial 14 event f at 130.044810781'
p876
aS'staircase 0 updated from 40.000000 to 40.000000 after response 1 at 130.044824'
p877
aa(lp878
S'trial 15 started at 131.982173529'
p879
aS'trial 15 phase 6 started at 135.177746703'
p880
aS'trial 15 event s at 137.144416078'
p881
aS'staircase 0 updated from 40.000000 to 25.000000 after response 1 at 137.144432'
p882
aa(lp883
S'trial 16 started at 138.580181059'
p884
aS'trial 16 phase 6 started at 141.769052985'
p885
aS'trial 16 event f at 143.702388599'
p886
aS'staircase 1 updated from 55.000000 to 70.000000 after response 0 at 143.702403'
p887
aa(lp888
S'trial 17 started at 145.170478988'
p889
aS'trial 17 phase 6 started at 148.860333466'
p890
aS'trial 17 event s at 151.035333074'
p891
aS'staircase 0 updated from 25.000000 to 25.000000 after response 1 at 151.035348'
p892
aa(lp893
S'trial 18 started at 152.265908336'
p894
aS'trial 18 phase 6 started at 155.459979103'
p895
aS'trial 18 event f at 156.743348714'
p896
aS'staircase 0 updated from 25.000000 to 25.000000 after response 1 at 156.743362'
p897
aa(lp898
S'trial 19 started at 158.86369977'
p899
aS'trial 19 phase 6 started at 162.059620749'
p900
aS'trial 19 event s at 163.143000338'
p901
aS'staircase 0 updated from 25.000000 to 10.000000 after response 1 at 163.143014'
p902
aa(lp903
S'trial 20 started at 165.466497895'
p904
aS'trial 20 phase 6 started at 169.159238305'
p905
aS'trial 20 event f at 171.059236167'
p906
aS'staircase 1 updated from 70.000000 to 85.000000 after response 0 at 171.059251'
p907
aa(lp908
S'trial 21 started at 172.564692014'
p909
aS'trial 21 phase 6 started at 176.258849305'
p910
aS'trial 21 event f at 177.542229749'
p911
aS'staircase 0 updated from 10.000000 to 10.000000 after response 1 at 177.542244'
p912
aa(lp913
S'trial 22 started at 179.671207813'
p914
aS'trial 22 phase 6 started at 182.86682432'
p915
aS'trial 22 event s at 183.900209966'
p916
aS'staircase 1 updated from 85.000000 to 85.000000 after response 1 at 183.900225'
p917
aa(lp918
S'trial 23 started at 186.273210261'
p919
aS'trial 23 phase 6 started at 189.466464255'
p920
aS'trial 23 event s at 191.124823781'
p921
aS'staircase 1 updated from 85.000000 to 85.000000 after response 1 at 191.124837'
p922
aa(lp923
S'trial 24 started at 192.873407256'
p924
aS'trial 24 phase 6 started at 196.566079246'
p925
aS'trial 24 event s at 197.449468812'
p926
aS'staircase 1 updated from 85.000000 to 73.750000 after response 1 at 197.449483'
p927
aa(lp928
S'trial 25 started at 199.985530425'
p929
aS'trial 25 phase 6 started at 203.174053975'
p930
aS'trial 25 event s at 204.507428361'
p931
aS'staircase 1 updated from 73.750000 to 73.750000 after response 1 at 204.507443'
p932
aa(lp933
S'trial 26 started at 206.58039858'
p934
aS'trial 26 phase 6 started at 209.773701323'
p935
aS'trial 26 event s at 210.91541649'
p936
aS'staircase 1 updated from 73.750000 to 73.750000 after response 1 at 210.915431'
p937
aa(lp938
S'trial 27 started at 213.179711236'
p939
aS'trial 27 phase 6 started at 216.873309472'
p940
aS'trial 27 event s at 217.665029699'
p941
aS'staircase 1 updated from 73.750000 to 62.500000 after response 1 at 217.665045'
p942
aa(lp943
S'trial 28 started at 220.280878523'
p944
aS'trial 28 phase 6 started at 223.972925887'
p945
aS'trial 28 event s at 225.381278072'
p946
aS'staircase 1 updated from 62.500000 to 62.500000 after response 1 at 225.381291'
p947
aa(lp948
S'trial 29 started at 227.380401431'
p949
aS'trial 29 phase 6 started at 230.572564968'
p950
aS'trial 29 event s at 231.714277569'
p951
aS'staircase 0 updated from 10.000000 to 10.000000 after response 1 at 231.714291'
p952
aa(lp953
S'trial 30 started at 233.981967412'
p954
aS'trial 30 phase 6 started at 237.172208609'
p955
aS'trial 30 event f at 239.630433289'
p956
aS'staircase 1 updated from 62.500000 to 73.750000 after response 0 at 239.630447'
p957
aa(lp958
S'trial 31 started at 240.588133552'
p959
aS'trial 31 phase 6 started at 244.280150697'
p960
aS'trial 31 event s at 245.213547034'
p961
aS'staircase 1 updated from 73.750000 to 73.750000 after response 1 at 245.213562'
p962
aa(lp963
S'trial 32 started at 247.691267652'
p964
aS'trial 32 phase 6 started at 250.879795764'
p965
aS'trial 32 event s at 252.121506512'
p966
aS'staircase 0 updated from 10.000000 to -5.000000 after response 1 at 252.121520'
p967
aa(lp968
S'trial 33 started at 254.288641149'
p969
aS'trial 33 phase 6 started at 257.97941332'
p970
aS'trial 33 event s at 258.987803421'
p971
aS'staircase 0 updated from 5.000000 to -5.000000 after response 1 at 258.987816'
p972
aa(lp973
S'trial 34 started at 261.387473861'
p974
aS'trial 34 phase 6 started at 264.579052971'
p975
aS'trial 34 event f at 265.662437121'
p976
aS'staircase 1 updated from 73.750000 to 73.750000 after response 1 at 265.662450'
p977
aa(lp978
S'trial 35 started at 268.005515857'
p979
aS'trial 35 phase 6 started at 271.195355083'
p980
aS'trial 35 event s at 272.028750992'
p981
aS'staircase 0 updated from 5.000000 to -5.000000 after response 1 at 272.028764'
p982
aa(lp983
S'trial 36 started at 274.605217657'
p984
aS'trial 36 phase 6 started at 277.795002715'
p985
aS'trial 36 event s at 279.170040525'
p986
aS'staircase 1 updated from 73.750000 to 65.312500 after response 1 at 279.170054'
p987
aa(lp988
S'trial 37 started at 281.20861475'
p989
aS'trial 37 phase 6 started at 284.902947939'
p990
aS'trial 37 event f at 286.311322931'
p991
aS'staircase 1 updated from 65.312500 to 73.750000 after response 0 at 286.311337'
p992
aa(lp993
S'trial 38 started at 288.339657126'
p994
aS'trial 38 phase 6 started at 291.535938741'
p995
aS'trial 38 event s at 292.477641649'
p996
aS'staircase 0 updated from 5.000000 to -20.000000 after response 1 at 292.477656'
p997
aa(lp998
S'trial 39 started at 294.945978068'
p999
aS'trial 39 phase 6 started at 298.135567558'
p1000
aS'trial 39 event f at 299.660584627'
p1001
aS'staircase 0 updated from 20.000000 to -20.000000 after response 1 at 299.660597'
p1002
aa(lp1003
S'trial 40 started at 301.554075671'
p1004
aS'trial 40 phase 6 started at 305.243515632'
p1005
aS'trial 40 event f at 306.335231155'
p1006
aS'staircase 0 updated from 20.000000 to -5.000000 after response 0 at 306.335245'
p1007
aa(lp1008
S'trial 41 started at 308.65431158'
p1009
aS'trial 41 phase 6 started at 311.843156993'
p1010
aS'trial 41 event f at 312.851540252'
p1011
aS'staircase 1 updated from 73.750000 to 73.750000 after response 1 at 312.851556'
p1012
aa(lp1013
S'trial 42 started at 315.257376547'
p1014
aS'trial 42 phase 6 started at 318.451134004'
p1015
aS'trial 42 event s at 319.801166575'
p1016
aS'staircase 1 updated from 73.750000 to 73.750000 after response 1 at 319.801181'
p1017
aa(lp1018
S'trial 43 started at 321.863395012'
p1019
aS'trial 43 phase 6 started at 325.059115861'
p1020
aS'trial 43 event s at 325.967502968'
p1021
aS'staircase 0 updated from 5.000000 to -5.000000 after response 1 at 325.967519'
p1022
aa(lp1023
S'trial 44 started at 328.47207191'
p1024
aS'trial 44 phase 6 started at 331.667084889'
p1025
aS'trial 44 event f at 332.567142334'
p1026
aS'staircase 1 updated from 73.750000 to 67.421875 after response 1 at 332.567157'
p1027
aa(lp1028
S'trial 45 started at 335.100755622'
p1029
aS'trial 45 phase 6 started at 338.791697705'
p1030
aS'trial 45 event f at 340.36672012'
p1031
aS'staircase 0 updated from 5.000000 to 6.250000 after response 0 at 340.366734'
p1032
aa(lp1033
S'trial 46 started at 342.215755316'
p1034
aS'trial 46 phase 6 started at 345.907978579'
p1035
aS'trial 46 event s at 346.808038874'
p1036
aS'staircase 0 updated from 6.250000 to 6.250000 after response 1 at 346.808054'
p1037
aa(lp1038
S'trial 47 started at 349.338597459'
p1039
aS'trial 47 phase 6 started at 352.532619191'
p1040
aS'trial 47 event s at 353.641000882'
p1041
aS'staircase 0 updated from 6.250000 to 14.687500 after response 0 at 353.641015'
p1042
aa(lp1043
S'trial 48 started at 355.960762094'
p1044
aS'trial 48 phase 6 started at 359.157261514'
p1045
aS'trial 48 event f at 360.348974614'
p1046
aS'staircase 1 updated from 67.421875 to 67.421875 after response 1 at 360.348988'
p1047
aa(lp1048
S'trial 49 started at 362.588274955'
p1049
aS'trial 49 phase 6 started at 366.281878322'
p1050
aS'trial 49 event f at 367.340252672'
p1051
aS'staircase 0 updated from 14.687500 to 14.687500 after response 1 at 367.340267'
p1052
aa(lp1053
S'trial 50 started at 369.711960669'
p1054
aS'trial 50 phase 6 started at 372.906496698'
p1055
aS'trial 50 event s at 374.248226119'
p1056
aS'staircase 1 updated from 67.421875 to 73.750000 after response 0 at 374.248241'
p1057
aa(lp1058
S'trial 51 started at 376.338877414'
p1059
aS'trial 51 phase 6 started at 380.031130896'
p1060
aS'trial 51 event s at 381.114521318'
p1061
aS'staircase 1 updated from 73.750000 to 73.750000 after response 1 at 381.114538'
p1062
aa(lp1063
S'trial 52 started at 383.455007761'
p1064
aS'trial 52 phase 6 started at 387.147412339'
p1065
aa(lp1066
S'trial 53 started at 390.580293383'
p1067
aS'trial 53 phase 6 started at 393.772052097'
p1068
aa(lp1069
S'trial 54 started at 397.205076824'
p1070
aS'trial 54 phase 6 started at 400.396701832'
p1071
aa(lp1072
S'trial 55 started at 403.829125311'
p1073
a(lp1074
I-99
aF0.22580690223367128
aaasS'trialResponses'
p1075
(lp1076
s.(dp0
S'parameterArray'
p1
(lp2
(dp3
S'reaction_time'
p4
F2.1416624260027675
sS'trial_start'
p5
F75.91066979691823
sS'task'
p6
I2
sS'trial_orientation'
p7
F3.0
sS'base_color_lum'
p8
cnumpy.core.multiarray
scalar
p9
(cnumpy
dtype
p10
(S'i4'
p11
I0
I1
tp12
Rp13
(I3
S'<'
p14
NNNI-1
I-1
I0
tp15
bS'7\x00\x00\x00'
p16
tp17
Rp18
sS'button'
p19
S'l'
p20
sS'trial_cue'
p21
S'red135'
p22
sS'trial_color'
p23
F-73.75
sS'trial_stimulus_label'
p24
S'green45'
p25
sS'trial_stimulus'
p26
I2
sS'base_ori'
p27
g9
(g13
S'-\x00\x00\x00'
p28
tp29
Rp30
sS'trial_end'
p31
F82.75401352166136
sS'base_color_b'
p32
g9
(g13
S'K\x00\x00\x00'
p33
tp34
Rp35
sS'base_color_a'
p36
g9
(g13
S'\xb0\xff\xff\xff'
p37
tp38
Rp39
sS'correct_answer'
p40
I1
sS'trial_position_y'
p41
I0
sS'trial_position_x'
p42
I0
sS'response'
p43
I1
sS'trial_direction'
p44
F1.0
sa(dp45
g4
F1.6583261705300174
sg5
F83.00233543014565
sg6
I2
sg7
F3.0
sg8
g9
(g13
S'7\x00\x00\x00'
p46
tp47
Rp48
sg19
S'l'
p49
sg21
g25
sg23
F-73.75
sg24
g25
sg26
I2
sg27
g9
(g13
S'-\x00\x00\x00'
p50
tp51
Rp52
sg31
F89.34532778554603
sg32
g9
(g13
S'K\x00\x00\x00'
p53
tp54
Rp55
sg36
g9
(g13
S'\xb0\xff\xff\xff'
p56
tp57
Rp58
sg40
I1
sg41
I0
sg42
I0
sg43
I1
sg44
F1.0
sa(dp59
g4
F0.7333741007296339
sg5
F89.59375061471746
sg6
I2
sg7
F-3.0
sg8
g9
(g13
S'7\x00\x00\x00'
p60
tp61
Rp62
sg19
S'l'
p63
sg21
S'red45'
p64
sg23
F14.6875
sg24
g64
sg26
I0
sg27
g9
(g13
S'-\x00\x00\x00'
p65
tp66
Rp67
sg31
F95.93664033891037
sg32
g9
(g13
S'K\x00\x00\x00'
p68
tp69
Rp70
sg36
g9
(g13
S'P\x00\x00\x00'
p71
tp72
Rp73
sg40
I0
sg41
I0
sg42
I0
sg43
I1
sg44
F-1.0
sa(dp74
g4
F1.05005837149929
sg5
F96.18768197439567
sg6
I2
sg7
F-4.0
sg8
g9
(g13
S'7\x00\x00\x00'
p75
tp76
Rp77
sg19
S'j'
p78
sg21
g64
sg23
F14.6875
sg24
g64
sg26
I0
sg27
g9
(g13
S'-\x00\x00\x00'
p79
tp80
Rp81
sg31
F102.52791269505269
sg32
g9
(g13
S'K\x00\x00\x00'
p82
tp83
Rp84
sg36
g9
(g13
S'P\x00\x00\x00'
p85
tp86
Rp87
sg40
I1
sg41
I0
sg42
I0
sg43
I-1
sg44
F-1.0
sa(dp88
g4
F0.7500670666431688
sg5
F102.7756267987188
sg6
I2
sg7
F4.0
sg8
g9
(g13
S'7\x00\x00\x00'
p89
tp90
Rp91
sg19
S'l'
p92
sg21
g25
sg23
F-73.75
sg24
g25
sg26
I2
sg27
g9
(g13
S'-\x00\x00\x00'
p93
tp94
Rp95
sg31
F109.11926116933955
sg32
g9
(g13
S'K\x00\x00\x00'
p96
tp97
Rp98
sg36
g9
(g13
S'\xb0\xff\xff\xff'
p99
tp100
Rp101
sg40
I1
sg41
I0
sg42
I0
sg43
I1
sg44
F1.0
sa(dp102
g4
F1.0250534181186595
sg5
F109.37187705351425
sg6
I2
sg7
F-3.0
sg8
g9
(g13
S'7\x00\x00\x00'
p103
tp104
Rp105
sg19
S'l'
p106
sg21
g25
sg23
F-73.75
sg24
S'green135'
p107
sg26
I3
sg27
g9
(g13
S'\x87\x00\x00\x00'
p108
tp109
Rp110
sg31
F116.21053822941121
sg32
g9
(g13
S'K\x00\x00\x00'
p111
tp112
Rp113
sg36
g9
(g13
S'\xb0\xff\xff\xff'
p114
tp115
Rp116
sg40
I0
sg41
I0
sg42
I0
sg43
I1
sg44
F-1.0
sa(dp117
g4
F1.0083923819129268
sg5
F116.45976300743587
sg6
I2
sg7
F-4.0
sg8
g9
(g13
S'7\x00\x00\x00'
p118
tp119
Rp120
sg19
S'j'
p121
sg21
g22
sg23
F-73.75
sg24
g25
sg26
I2
sg27
g9
(g13
S'-\x00\x00\x00'
p122
tp123
Rp124
sg31
F122.8018140065933
sg32
g9
(g13
S'K\x00\x00\x00'
p125
tp126
Rp127
sg36
g9
(g13
S'\xb0\xff\xff\xff'
p128
tp129
Rp130
sg40
I1
sg41
I0
sg42
I0
sg43
I-1
sg44
F-1.0
sa(dp131
g4
F0.8584191087902582
sg5
F123.05178115035324
sg6
I2
sg7
F4.0
sg8
g9
(g13
S'7\x00\x00\x00'
p132
tp133
Rp134
sg19
S'l'
p135
sg21
g22
sg23
F14.6875
sg24
g22
sg26
I1
sg27
g9
(g13
S'\x87\x00\x00\x00'
p136
tp137
Rp138
sg31
F129.39315563880064
sg32
g9
(g13
S'K\x00\x00\x00'
p139
tp140
Rp141
sg36
g9
(g13
S'P\x00\x00\x00'
p142
tp143
Rp144
sg40
I1
sg41
I0
sg42
I0
sg43
I1
sg44
F1.0
sa(dp145
g4
F0.7417225792933095
sg5
F129.64791680030066
sg6
I2
sg7
F4.0
sg8
g9
(g13
S'7\x00\x00\x00'
p146
tp147
Rp148
sg19
S'l'
p149
sg21
g22
sg23
F14.6875
sg24
g22
sg26
I1
sg27
g9
(g13
S'\x87\x00\x00\x00'
p150
tp151
Rp152
sg31
F136.49277433535553
sg32
g9
(g13
S'K\x00\x00\x00'
p153
tp154
Rp155
sg36
g9
(g13
S'P\x00\x00\x00'
p156
tp157
Rp158
sg40
I1
sg41
I0
sg42
I0
sg43
I1
sg44
F1.0
sa(dp159
g4
F0.8250662470190946
sg5
F136.74405943487182
sg6
I2
sg7
F-3.25
sg8
g9
(g13
S'7\x00\x00\x00'
p160
tp161
Rp162
sg19
S'j'
p163
sg21
g64
sg23
F14.6875
sg24
g64
sg26
I0
sg27
g9
(g13
S'-\x00\x00\x00'
p164
tp165
Rp166
sg31
F143.08407890629314
sg32
g9
(g13
S'K\x00\x00\x00'
p167
tp168
Rp169
sg36
g9
(g13
S'P\x00\x00\x00'
p170
tp171
Rp172
sg40
I1
sg41
I0
sg42
I0
sg43
I-1
sg44
F-1.0
sa(dp173
g4
F1.0917343391192844
sg5
F143.33906899240355
sg6
I2
sg7
F-3.25
sg8
g9
(g13
S'7\x00\x00\x00'
p174
tp175
Rp176
sg19
S'j'
p177
sg21
g25
sg23
F14.6875
sg24
g64
sg26
I0
sg27
g9
(g13
S'-\x00\x00\x00'
p178
tp179
Rp180
sg31
F149.68371513567945
sg32
g9
(g13
S'K\x00\x00\x00'
p181
tp182
Rp183
sg36
g9
(g13
S'P\x00\x00\x00'
p184
tp185
Rp186
sg40
I1
sg41
I0
sg42
I0
sg43
I-1
sg44
F-1.0
sa(dp187
g4
F0.8667162717501924
sg5
F149.93559407076646
sg6
I2
sg7
F-4.0
sg8
g9
(g13
S'7\x00\x00\x00'
p188
tp189
Rp190
sg19
S'l'
p191
sg21
g22
sg23
F-73.75
sg24
g107
sg26
I3
sg27
g9
(g13
S'\x87\x00\x00\x00'
p192
tp193
Rp194
sg31
F156.2750285443044
sg32
g9
(g13
S'K\x00\x00\x00'
p195
tp196
Rp197
sg36
g9
(g13
S'\xb0\xff\xff\xff'
p198
tp199
Rp200
sg40
I0
sg41
I0
sg42
I0
sg43
I1
sg44
F-1.0
sa(dp201
g4
F0.8750542021061847
sg5
F156.52290514738252
sg6
I2
sg7
F3.25
sg8
g9
(g13
S'7\x00\x00\x00'
p202
tp203
Rp204
sg19
S'l'
p205
sg21
g64
sg23
F14.6875
sg24
g64
sg26
I0
sg27
g9
(g13
S'-\x00\x00\x00'
p206
tp207
Rp208
sg31
F163.3662970517753
sg32
g9
(g13
S'K\x00\x00\x00'
p209
tp210
Rp211
sg36
g9
(g13
S'P\x00\x00\x00'
p212
tp213
Rp214
sg40
I1
sg41
I0
sg42
I0
sg43
I1
sg44
F1.0
sa(dp215
g4
F1.300034923118801
sg5
F163.6221555119364
sg6
I2
sg7
F-5.0
sg8
g9
(g13
S'7\x00\x00\x00'
p216
tp217
Rp218
sg19
S'l'
p219
sg21
g107
sg23
F-73.75
sg24
g107
sg26
I3
sg27
g9
(g13
S'\x87\x00\x00\x00'
p220
tp221
Rp222
sg31
F169.96595637318387
sg32
g9
(g13
S'K\x00\x00\x00'
p223
tp224
Rp225
sg36
g9
(g13
S'\xb0\xff\xff\xff'
p226
tp227
Rp228
sg40
I0
sg41
I0
sg42
I0
sg43
I1
sg44
F-1.0
sa(dp229
g4
F1.4250286155765934
sg5
F170.21889554566224
sg6
I2
sg7
F-2.5
sg8
g9
(g13
S'7\x00\x00\x00'
p230
tp231
Rp232
sg19
S'l'
p233
sg21
g25
sg23
F-73.75
sg24
g25
sg26
I2
sg27
g9
(g13
S'-\x00\x00\x00'
p234
tp235
Rp236
sg31
F176.55726921163478
sg32
g9
(g13
S'K\x00\x00\x00'
p237
tp238
Rp239
sg36
g9
(g13
S'\xb0\xff\xff\xff'
p240
tp241
Rp242
sg40
I0
sg41
I0
sg42
I0
sg43
I1
sg44
F-1.0
sa(dp243
g4
F0.8000818198797788
sg5
F176.81216350861814
sg6
I2
sg7
F-3.25
sg8
g9
(g13
S'7\x00\x00\x00'
p244
tp245
Rp246
sg19
S'j'
p247
sg21
g64
sg23
F14.6875
sg24
g64
sg26
I0
sg27
g9
(g13
S'-\x00\x00\x00'
p248
tp249
Rp250
sg31
F183.65688192136986
sg32
g9
(g13
S'K\x00\x00\x00'
p251
tp252
Rp253
sg36
g9
(g13
S'P\x00\x00\x00'
p254
tp255
Rp256
sg40
I1
sg41
I0
sg42
I0
sg43
I-1
sg44
F-1.0
sa(dp257
g4
F1.083348514199315
sg5
F183.90821035406316
sg6
I2
sg7
F-5.75
sg8
g9
(g13
S'7\x00\x00\x00'
p258
tp259
Rp260
sg19
S'j'
p261
sg21
g25
sg23
F-73.75
sg24
g107
sg26
I3
sg27
g9
(g13
S'\x87\x00\x00\x00'
p262
tp263
Rp264
sg31
F190.2481862072209
sg32
g9
(g13
S'K\x00\x00\x00'
p265
tp266
Rp267
sg36
g9
(g13
S'\xb0\xff\xff\xff'
p268
tp269
Rp270
sg40
I1
sg41
I0
sg42
I0
sg43
I-1
sg44
F-1.0
sa(dp271
g4
F0.933392631364768
sg5
F190.49923354443945
sg6
I2
sg7
F-3.25
sg8
g9
(g13
S'7\x00\x00\x00'
p272
tp273
Rp274
sg19
S'j'
p275
sg21
g22
sg23
F-73.75
sg24
g25
sg26
I2
sg27
g9
(g13
S'-\x00\x00\x00'
p276
tp277
Rp278
sg31
F196.83946939665657
sg32
g9
(g13
S'K\x00\x00\x00'
p279
tp280
Rp281
sg36
g9
(g13
S'\xb0\xff\xff\xff'
p282
tp283
Rp284
sg40
I1
sg41
I0
sg42
I0
sg43
I-1
sg44
F-1.0
sa(dp285
g4
F0.6917394706797495
sg5
F197.09452305709783
sg6
I2
sg7
F-3.25
sg8
g9
(g13
S'7\x00\x00\x00'
p286
tp287
Rp288
sg19
S'j'
p289
sg21
g107
sg23
F14.6875
sg24
g64
sg26
I0
sg27
g9
(g13
S'-\x00\x00\x00'
p290
tp291
Rp292
sg31
F203.43917661262822
sg32
g9
(g13
S'K\x00\x00\x00'
p293
tp294
Rp295
sg36
g9
(g13
S'P\x00\x00\x00'
p296
tp297
Rp298
sg40
I1
sg41
I0
sg42
I0
sg43
I-1
sg44
F-1.0
sa(dp299
g4
F0.650083174041356
sg5
F203.6939557345895
sg6
I2
sg7
F5.75
sg8
g9
(g13
S'7\x00\x00\x00'
p300
tp301
Rp302
sg19
S'l'
p303
sg21
g64
sg23
F-73.75
sg24
g107
sg26
I3
sg27
g9
(g13
S'\x87\x00\x00\x00'
p304
tp305
Rp306
sg31
F210.03878803947282
sg32
g9
(g13
S'K\x00\x00\x00'
p307
tp308
Rp309
sg36
g9
(g13
S'\xb0\xff\xff\xff'
p310
tp311
Rp312
sg40
I1
sg41
I0
sg42
I0
sg43
I1
sg44
F1.0
sa(dp313
g4
F0.8834026806698603
sg5
F210.29305315013607
sg6
I2
sg7
F2.6875
sg8
g9
(g13
S'7\x00\x00\x00'
p314
tp315
Rp316
sg19
S'l'
p317
sg21
g25
sg23
F-73.75
sg24
g25
sg26
I2
sg27
g9
(g13
S'-\x00\x00\x00'
p318
tp319
Rp320
sg31
F216.63839119880322
sg32
g9
(g13
S'K\x00\x00\x00'
p321
tp322
Rp323
sg36
g9
(g13
S'\xb0\xff\xff\xff'
p324
tp325
Rp326
sg40
I1
sg41
I0
sg42
I0
sg43
I1
sg44
F1.0
sa(dp327
g4
F2.0083456276970537
sg5
F216.89367007772853
sg6
I2
sg7
F-5.75
sg8
g9
(g13
S'7\x00\x00\x00'
p328
tp329
Rp330
sg19
S'j'
p331
sg21
g107
sg23
F-73.75
sg24
g107
sg26
I3
sg27
g9
(g13
S'\x87\x00\x00\x00'
p332
tp333
Rp334
sg31
F223.7380629214822
sg32
g9
(g13
S'K\x00\x00\x00'
p335
tp336
Rp337
sg36
g9
(g13
S'\xb0\xff\xff\xff'
p338
tp339
Rp340
sg40
I1
sg41
I0
sg42
I0
sg43
I-1
sg44
F-1.0
sa(dp341
g4
F0.8917206549576804
sg5
F223.99052628427944
sg6
I2
sg7
F2.6875
sg8
g9
(g13
S'7\x00\x00\x00'
p342
tp343
Rp344
sg19
S'j'
p345
sg21
g64
sg23
F14.6875
sg24
g64
sg26
I0
sg27
g9
(g13
S'-\x00\x00\x00'
p346
tp347
Rp348
sg31
F230.82930463080538
sg32
g9
(g13
S'K\x00\x00\x00'
p349
tp350
Rp351
sg36
g9
(g13
S'P\x00\x00\x00'
p352
tp353
Rp354
sg40
I0
sg41
I0
sg42
I0
sg43
I-1
sg44
F1.0
sa(dp355
g4
F0.6583968720287885
sg5
F231.08479076775257
sg6
I2
sg7
F5.0
sg8
g9
(g13
S'7\x00\x00\x00'
p356
tp357
Rp358
sg19
S'l'
p359
sg21
g107
sg23
F-73.75
sg24
g107
sg26
I3
sg27
g9
(g13
S'\x87\x00\x00\x00'
p360
tp361
Rp362
sg31
F237.92894613429507
sg32
g9
(g13
S'K\x00\x00\x00'
p363
tp364
Rp365
sg36
g9
(g13
S'\xb0\xff\xff\xff'
p366
tp367
Rp368
sg40
I1
sg41
I0
sg42
I0
sg43
I1
sg44
F1.0
sa(dp369
g4
F0.6167471323842619
sg5
F238.18347323962462
sg6
I2
sg7
F-3.25
sg8
g9
(g13
S'7\x00\x00\x00'
p370
tp371
Rp372
sg19
S'j'
p373
sg21
g25
sg23
F-73.75
sg24
g25
sg26
I2
sg27
g9
(g13
S'-\x00\x00\x00'
p374
tp375
Rp376
sg31
F244.52859576275569
sg32
g9
(g13
S'K\x00\x00\x00'
p377
tp378
Rp379
sg36
g9
(g13
S'\xb0\xff\xff\xff'
p380
tp381
Rp382
sg40
I1
sg41
I0
sg42
I0
sg43
I-1
sg44
F-1.0
sa(dp383
g4
F0.5917555780779367
sg5
F244.7839273827185
sg6
I2
sg7
F-3.25
sg8
g9
(g13
S'7\x00\x00\x00'
p384
tp385
Rp386
sg19
S'j'
p387
sg21
g64
sg23
F-73.75
sg24
g25
sg26
I2
sg27
g9
(g13
S'-\x00\x00\x00'
p388
tp389
Rp390
sg31
F251.62821816543783
sg32
g9
(g13
S'K\x00\x00\x00'
p391
tp392
Rp393
sg36
g9
(g13
S'\xb0\xff\xff\xff'
p394
tp395
Rp396
sg40
I1
sg41
I0
sg42
I0
sg43
I-1
sg44
F-1.0
sa(dp397
g4
F0.7250675299092109
sg5
F251.88898353766854
sg6
I2
sg7
F3.25
sg8
g9
(g13
S'7\x00\x00\x00'
p398
tp399
Rp400
sg19
S'j'
p401
sg21
g25
sg23
F-73.75
sg24
g25
sg26
I2
sg27
g9
(g13
S'-\x00\x00\x00'
p402
tp403
Rp404
sg31
F258.72783030499977
sg32
g9
(g13
S'K\x00\x00\x00'
p405
tp406
Rp407
sg36
g9
(g13
S'\xb0\xff\xff\xff'
p408
tp409
Rp410
sg40
I0
sg41
I0
sg42
I0
sg43
I-1
sg44
F1.0
sa(dp411
g4
F0.6500979985485174
sg5
F258.98044219796066
sg6
I2
sg7
F3.671875
sg8
g9
(g13
S'7\x00\x00\x00'
p412
tp413
Rp414
sg19
S'l'
p415
sg21
g22
sg23
F14.6875
sg24
g64
sg26
I0
sg27
g9
(g13
S'-\x00\x00\x00'
p416
tp417
Rp418
sg31
F265.31914342853725
sg32
g9
(g13
S'K\x00\x00\x00'
p419
tp420
Rp421
sg36
g9
(g13
S'P\x00\x00\x00'
p422
tp423
Rp424
sg40
I1
sg41
I0
sg42
I0
sg43
I1
sg44
F1.0
sa(dp425
g4
F0.841770046226884
sg5
F265.57601024031374
sg6
I2
sg7
F3.671875
sg8
g9
(g13
S'7\x00\x00\x00'
p426
tp427
Rp428
sg19
S'j'
p429
sg21
g64
sg23
F14.6875
sg24
g64
sg26
I0
sg27
g9
(g13
S'-\x00\x00\x00'
p430
tp431
Rp432
sg31
F271.9188021797727
sg32
g9
(g13
S'K\x00\x00\x00'
p433
tp434
Rp435
sg36
g9
(g13
S'P\x00\x00\x00'
p436
tp437
Rp438
sg40
I0
sg41
I0
sg42
I0
sg43
I-1
sg44
F1.0
sa(dp439
g4
F0.8000672804582791
sg5
F272.172689835661
sg6
I2
sg7
F3.98828125
sg8
g9
(g13
S'7\x00\x00\x00'
p440
tp441
Rp442
sg19
S'l'
p443
sg21
g25
sg23
F14.6875
sg24
g64
sg26
I0
sg27
g9
(g13
S'-\x00\x00\x00'
p444
tp445
Rp446
sg31
F278.51844924245324
sg32
g9
(g13
S'K\x00\x00\x00'
p447
tp448
Rp449
sg36
g9
(g13
S'P\x00\x00\x00'
p450
tp451
Rp452
sg40
I1
sg41
I0
sg42
I0
sg43
I1
sg44
F1.0
sa(dp453
g5
F278.77371244160986
sg6
I2
sg7
F3.98828125
sg8
g9
(g13
S'7\x00\x00\x00'
p454
tp455
Rp456
sg21
g64
sg23
F14.6875
sg24
g64
sg26
I0
sg27
g9
(g13
S'-\x00\x00\x00'
p457
tp458
Rp459
sg31
F285.61805967149394
sg32
g9
(g13
S'K\x00\x00\x00'
p460
tp461
Rp462
sg36
g9
(g13
S'P\x00\x00\x00'
p463
tp464
Rp465
sg41
I0
sg42
I0
sa(dp466
g5
F285.8865434807085
sg6
I2
sg7
F5.0
sg8
g9
(g13
S'7\x00\x00\x00'
p467
tp468
Rp469
sg21
g107
sg23
F-73.75
sg24
g107
sg26
I3
sg27
g9
(g13
S'\x87\x00\x00\x00'
p470
tp471
Rp472
sg31
F292.2260324058034
sg32
g9
(g13
S'K\x00\x00\x00'
p473
tp474
Rp475
sg36
g9
(g13
S'\xb0\xff\xff\xff'
p476
tp477
Rp478
sg41
I0
sg42
I0
sa(dp479
g5
F292.4875581042297
sg6
I2
sg7
F-3.98828125
sg8
g9
(g13
S'7\x00\x00\x00'
p480
tp481
Rp482
sg21
g107
sg23
F-73.75
sg24
g25
sg26
I2
sg27
g9
(g13
S'-\x00\x00\x00'
p483
tp484
Rp485
sg31
F298.8340051401128
sg32
g9
(g13
S'K\x00\x00\x00'
p486
tp487
Rp488
sg36
g9
(g13
S'\xb0\xff\xff\xff'
p489
tp490
Rp491
sg41
I0
sg42
I0
sa(dp492
g4
F0.7000811071629869
sg5
F299.09486259534333
sg6
I2
sg7
F5.0
sg8
g9
(g13
S'7\x00\x00\x00'
p493
tp494
Rp495
sg19
S'l'
p496
sg21
g22
sg23
F14.6875
sg24
g22
sg26
I1
sg27
g9
(g13
S'\x87\x00\x00\x00'
p497
tp498
Rp499
sg31
F305.43366275100016
sg32
g9
(g13
S'K\x00\x00\x00'
p500
tp501
Rp502
sg36
g9
(g13
S'P\x00\x00\x00'
p503
tp504
Rp505
sg40
I1
sg41
I0
sg42
I0
sg43
I1
sg44
F1.0
sa(dp506
g4
F0.8501031301093462
sg5
F305.69265431385975
sg6
I2
sg7
F-5.0
sg8
g9
(g13
S'7\x00\x00\x00'
p507
tp508
Rp509
sg19
S'j'
p510
sg21
g22
sg23
F14.6875
sg24
g22
sg26
I1
sg27
g9
(g13
S'\x87\x00\x00\x00'
p511
tp512
Rp513
sg31
F312.0333098136807
sg32
g9
(g13
S'K\x00\x00\x00'
p514
tp515
Rp516
sg36
g9
(g13
S'P\x00\x00\x00'
p517
tp518
Rp519
sg40
I1
sg41
I0
sg42
I0
sg43
I-1
sg44
F-1.0
sa(dp520
g4
F0.6834066718838585
sg5
F312.29808150913414
sg6
I2
sg7
F3.98828125
sg8
g9
(g13
S'7\x00\x00\x00'
p521
tp522
Rp523
sg19
S'l'
p524
sg21
g64
sg23
F14.6875
sg24
g64
sg26
I0
sg27
g9
(g13
S'-\x00\x00\x00'
p525
tp526
Rp527
sg31
F318.641286539204
sg32
g9
(g13
S'K\x00\x00\x00'
p528
tp529
Rp530
sg36
g9
(g13
S'P\x00\x00\x00'
p531
tp532
Rp533
sg40
I1
sg41
I0
sg42
I0
sg43
I1
sg44
F1.0
sa(dp534
g4
F1.1500967156589468
sg5
F318.90183895167866
sg6
I2
sg7
F3.98828125
sg8
g9
(g13
S'7\x00\x00\x00'
p535
tp536
Rp537
sg19
S'l'
p538
sg21
g22
sg23
F14.6875
sg24
g64
sg26
I0
sg27
g9
(g13
S'-\x00\x00\x00'
p539
tp540
Rp541
sg31
F325.7409040954126
sg32
g9
(g13
S'K\x00\x00\x00'
p542
tp543
Rp544
sg36
g9
(g13
S'P\x00\x00\x00'
p545
tp546
Rp547
sg40
I1
sg41
I0
sg42
I0
sg43
I1
sg44
F1.0
sa(dp548
g4
F0.8333922037345474
sg5
F326.0052091039579
sg6
I2
sg7
F-3.7509765625
sg8
g9
(g13
S'7\x00\x00\x00'
p549
tp550
Rp551
sg19
S'j'
p552
sg21
g107
sg23
F-73.75
sg24
g25
sg26
I2
sg27
g9
(g13
S'-\x00\x00\x00'
p553
tp554
Rp555
sg31
F332.8488604372369
sg32
g9
(g13
S'K\x00\x00\x00'
p556
tp557
Rp558
sg36
g9
(g13
S'\xb0\xff\xff\xff'
p559
tp560
Rp561
sg40
I1
sg41
I0
sg42
I0
sg43
I-1
sg44
F-1.0
sa(dp562
g4
F0.7084087743987766
sg5
F333.11058370073806
sg6
I2
sg7
F4.25
sg8
g9
(g13
S'7\x00\x00\x00'
p563
tp564
Rp565
sg19
S'l'
p566
sg21
g64
sg23
F14.6875
sg24
g22
sg26
I1
sg27
g9
(g13
S'\x87\x00\x00\x00'
p567
tp568
Rp569
sg31
F339.95682590183605
sg32
g9
(g13
S'K\x00\x00\x00'
p570
tp571
Rp572
sg36
g9
(g13
S'P\x00\x00\x00'
p573
tp574
Rp575
sg40
I1
sg41
I0
sg42
I0
sg43
I1
sg44
F1.0
sa(dp576
g4
F0.666736797991689
sg5
F340.21800750062994
sg6
I2
sg7
F4.25
sg8
g9
(g13
S'7\x00\x00\x00'
p577
tp578
Rp579
sg19
S'l'
p580
sg21
g107
sg23
F-73.75
sg24
g107
sg26
I3
sg27
g9
(g13
S'\x87\x00\x00\x00'
p581
tp582
Rp583
sg31
F346.5564638417418
sg32
g9
(g13
S'K\x00\x00\x00'
p584
tp585
Rp586
sg36
g9
(g13
S'\xb0\xff\xff\xff'
p587
tp588
Rp589
sg40
I1
sg41
I0
sg42
I0
sg43
I1
sg44
F1.0
sa(dp590
g4
F0.5084082042249065
sg5
F346.8512722706155
sg6
I2
sg7
F4.25
sg8
g9
(g13
S'7\x00\x00\x00'
p591
tp592
Rp593
sg19
S'l'
p594
sg21
g107
sg23
F-73.75
sg24
g107
sg26
I3
sg27
g9
(g13
S'\x87\x00\x00\x00'
p595
tp596
Rp597
sg31
F353.1977717624486
sg32
g9
(g13
S'K\x00\x00\x00'
p598
tp599
Rp600
sg36
g9
(g13
S'\xb0\xff\xff\xff'
p601
tp602
Rp603
sg40
I1
sg41
I0
sg42
I0
sg43
I1
sg44
F1.0
sa(dp604
g4
F0.7000691335224474
sg5
F353.45654836994527
sg6
I2
sg7
F-3.5
sg8
g9
(g13
S'7\x00\x00\x00'
p605
tp606
Rp607
sg19
S'j'
p608
sg21
g107
sg23
F-73.75
sg24
g107
sg26
I3
sg27
g9
(g13
S'\x87\x00\x00\x00'
p609
tp610
Rp611
sg31
F359.7974125532219
sg32
g9
(g13
S'K\x00\x00\x00'
p612
tp613
Rp614
sg36
g9
(g13
S'\xb0\xff\xff\xff'
p615
tp616
Rp617
sg40
I1
sg41
I0
sg42
I0
sg43
I-1
sg44
F-1.0
sa(dp618
g4
F0.9250584071351113
sg5
F360.06045234704743
sg6
I2
sg7
F-3.5
sg8
g9
(g13
S'7\x00\x00\x00'
p619
tp620
Rp621
sg19
S'j'
p622
sg21
g107
sg23
F-73.75
sg24
g107
sg26
I3
sg27
g9
(g13
S'\x87\x00\x00\x00'
p623
tp624
Rp625
sg31
F366.90537146082625
sg32
g9
(g13
S'K\x00\x00\x00'
p626
tp627
Rp628
sg36
g9
(g13
S'\xb0\xff\xff\xff'
p629
tp630
Rp631
sg40
I1
sg41
I0
sg42
I0
sg43
I-1
sg44
F-1.0
sa(dp632
g4
F1.9333478727539841
sg5
F367.16628678865527
sg6
I2
sg7
F-3.5
sg8
g9
(g13
S'7\x00\x00\x00'
p633
tp634
Rp635
sg19
S'l'
p636
sg21
g22
sg23
F14.6875
sg24
g22
sg26
I1
sg27
g9
(g13
S'\x87\x00\x00\x00'
p637
tp638
Rp639
sg31
F373.50501196651294
sg32
g9
(g13
S'K\x00\x00\x00'
p640
tp641
Rp642
sg36
g9
(g13
S'P\x00\x00\x00'
p643
tp644
Rp645
sg40
I0
sg41
I0
sg42
I0
sg43
I1
sg44
F-1.0
sa(dp646
g4
F0.5250450080611699
sg5
F373.76718367137437
sg6
I2
sg7
F4.25
sg8
g9
(g13
S'7\x00\x00\x00'
p647
tp648
Rp649
sg19
S'l'
p650
sg21
g22
sg23
F14.6875
sg24
g22
sg26
I1
sg27
g9
(g13
S'\x87\x00\x00\x00'
p651
tp652
Rp653
sg31
F380.112999810417
sg32
g9
(g13
S'K\x00\x00\x00'
p654
tp655
Rp656
sg36
g9
(g13
S'P\x00\x00\x00'
p657
tp658
Rp659
sg40
I1
sg41
I0
sg42
I0
sg43
I1
sg44
F1.0
sa(dp660
g4
F0.691733483859025
sg5
F380.39510648700434
sg6
I2
sg7
F-3.7509765625
sg8
g9
(g13
S'7\x00\x00\x00'
p661
tp662
Rp663
sg19
S'j'
p664
sg21
g64
sg23
F14.6875
sg24
g64
sg26
I0
sg27
g9
(g13
S'-\x00\x00\x00'
p665
tp666
Rp667
sg31
F386.73763187041095
sg32
g9
(g13
S'K\x00\x00\x00'
p668
tp669
Rp670
sg36
g9
(g13
S'P\x00\x00\x00'
p671
tp672
Rp673
sg40
I1
sg41
I0
sg42
I0
sg43
I-1
sg44
F-1.0
sa(dp674
g5
F387.0123111835228
sg6
I2
sg7
F4.25
sg8
g9
(g13
S'7\x00\x00\x00'
p675
tp676
Rp677
sg21
g107
sg23
F14.6875
sg24
g22
sg26
I1
sg27
g9
(g13
S'\x87\x00\x00\x00'
p678
tp679
Rp680
sg31
F393.85397688802186
sg32
g9
(g13
S'K\x00\x00\x00'
p681
tp682
Rp683
sg36
g9
(g13
S'P\x00\x00\x00'
p684
tp685
Rp686
sg41
I0
sg42
I0
sa(dp687
g5
F394.14601855059027
sg6
I2
sg7
F4.25
sg8
g9
(g13
S'7\x00\x00\x00'
p688
tp689
Rp690
sg21
g107
sg23
F-73.75
sg24
g107
sg26
I3
sg27
g9
(g13
S'\x87\x00\x00\x00'
p691
tp692
Rp693
sg31
F400.9868837316699
sg32
g9
(g13
S'K\x00\x00\x00'
p694
tp695
Rp696
sg36
g9
(g13
S'\xb0\xff\xff\xff'
p697
tp698
Rp699
sg41
I0
sg42
I0
sa(dp700
g5
F401.26571219643574
sg6
I2
sg7
F-4.25
sg8
g9
(g13
S'7\x00\x00\x00'
p701
tp702
Rp703
sg21
g25
sg23
F-73.75
sg24
g107
sg26
I3
sg27
g9
(g13
S'\x87\x00\x00\x00'
p704
tp705
Rp706
sg31
F407.611524059178
sg32
g9
(g13
S'K\x00\x00\x00'
p707
tp708
Rp709
sg36
g9
(g13
S'\xb0\xff\xff\xff'
p710
tp711
Rp712
sg41
I0
sg42
I0
sa(dp713
g5
F407.8955787331024
sg6
I2
sg7
F4.25
sg8
g9
(g13
S'7\x00\x00\x00'
p714
tp715
Rp716
sg21
g22
sg23
F14.6875
sg24
g22
sg26
I1
sg27
g9
(g13
S'\x87\x00\x00\x00'
p717
tp718
Rp719
sg31
F414.23616096564547
sg32
g9
(g13
S'K\x00\x00\x00'
p720
tp721
Rp722
sg36
g9
(g13
S'P\x00\x00\x00'
p723
tp724
Rp725
sg41
I0
sg42
I0
sa(dp726
g5
F414.51816757680535
sg6
I2
sg7
F-4.25
sg8
g9
(g13
S'7\x00\x00\x00'
p727
tp728
Rp729
sg21
g107
sg23
F-73.75
sg24
g107
sg26
I3
sg27
g9
(g13
S'\x87\x00\x00\x00'
p730
tp731
Rp732
sg31
F420.86080072297955
sg32
g9
(g13
S'K\x00\x00\x00'
p733
tp734
Rp735
sg36
g9
(g13
S'\xb0\xff\xff\xff'
p736
tp737
Rp738
sg41
I0
sg42
I0
sa(dp739
g5
F421.1456693193977
sg6
I2
sg7
F3.7509765625
sg8
g9
(g13
S'7\x00\x00\x00'
p740
tp741
Rp742
sg21
g25
sg23
F14.6875
sg24
g64
sg26
I0
sg27
g9
(g13
S'-\x00\x00\x00'
p743
tp744
Rp745
sg31
F427.48545387938793
sg32
g9
(g13
S'K\x00\x00\x00'
p746
tp747
Rp748
sg36
g9
(g13
S'P\x00\x00\x00'
p749
tp750
Rp751
sg41
I0
sg42
I0
sa(dp752
g5
F427.7657633694962
sg6
I2
sg7
F4.25
sg8
g9
(g13
S'7\x00\x00\x00'
p753
tp754
Rp755
sg21
g64
sg23
F-73.75
sg24
g107
sg26
I3
sg27
g9
(g13
S'\x87\x00\x00\x00'
p756
tp757
Rp758
sg31
F430.2353014292821
sg32
g9
(g13
S'K\x00\x00\x00'
p759
tp760
Rp761
sg36
g9
(g13
S'\xb0\xff\xff\xff'
p762
tp763
Rp764
sg41
I0
sg42
I0
sasS'eventArray'
p765
(lp766
(lp767
S'trial 0 started at 75.9106697969'
p768
aS'trial 0 phase 6 started at 79.6041708182'
p769
aS'trial 0 event l at 81.7458298232'
p770
aS'staircase 2 updated from 3.000000 to 3.000000 after response 1 at 81.745846'
p771
aa(lp772
S'trial 1 started at 83.0023354301'
p773
aS'trial 1 phase 6 started at 86.1954936347'
p774
aS'trial 1 event l at 87.8538163842'
p775
aS'staircase 2 updated from 3.000000 to 3.000000 after response 1 at 87.853831'
p776
aa(lp777
S'trial 2 started at 89.5937506147'
p778
aS'trial 2 phase 6 started at 92.786786232'
p779
aS'trial 2 event l at 93.5201566266'
p780
aS'staircase 2 updated from 3.000000 to 4.000000 after response 0 at 93.520172'
p781
aa(lp782
S'trial 3 started at 96.1876819744'
p783
aS'trial 3 phase 6 started at 99.3780990705'
p784
aS'trial 3 event j at 100.428154876'
p785
aS'staircase 2 updated from 4.000000 to 4.000000 after response 1 at 100.428170'
p786
aa(lp787
S'trial 4 started at 102.775626799'
p788
aS'trial 4 phase 6 started at 105.969409628'
p789
aS'trial 4 event l at 106.719474129'
p790
aS'staircase 2 updated from 4.000000 to 4.000000 after response 1 at 106.719487'
p791
aa(lp792
S'trial 5 started at 109.371877054'
p793
aS'trial 5 phase 6 started at 113.060690965'
p794
aS'trial 5 event l at 114.085741247'
p795
aS'staircase 3 updated from 3.000000 to 4.000000 after response 0 at 114.085755'
p796
aa(lp797
S'trial 6 started at 116.459763007'
p798
aS'trial 6 phase 6 started at 119.651994965'
p799
aS'trial 6 event j at 120.660384211'
p800
aS'staircase 2 updated from 4.000000 to 3.250000 after response 1 at 120.660400'
p801
aa(lp802
S'trial 7 started at 123.05178115'
p803
aS'trial 7 phase 6 started at 126.24331265'
p804
aS'trial 7 event l at 127.101727768'
p805
aS'staircase 3 updated from 4.000000 to 4.000000 after response 1 at 127.101744'
p806
aa(lp807
S'trial 8 started at 129.6479168'
p808
aS'trial 8 phase 6 started at 133.342944461'
p809
aS'trial 8 event l at 134.084665045'
p810
aS'staircase 3 updated from 4.000000 to 4.000000 after response 1 at 134.084678'
p811
aa(lp812
S'trial 9 started at 136.744059435'
p813
aS'trial 9 phase 6 started at 139.934237628'
p814
aS'trial 9 event j at 140.759301595'
p815
aS'staircase 2 updated from 3.250000 to 3.250000 after response 1 at 140.759315'
p816
aa(lp817
S'trial 10 started at 143.339068992'
p818
aS'trial 10 phase 6 started at 146.533862169'
p819
aS'trial 10 event j at 147.625593657'
p820
aS'staircase 2 updated from 3.250000 to 3.250000 after response 1 at 147.625607'
p821
aa(lp822
S'trial 11 started at 149.935594071'
p823
aS'trial 11 phase 6 started at 153.125185271'
p824
aS'trial 11 event l at 153.991899262'
p825
aS'staircase 3 updated from 4.000000 to 5.000000 after response 0 at 153.991914'
p826
aa(lp827
S'trial 12 started at 156.522905147'
p828
aS'trial 12 phase 6 started at 160.216465467'
p829
aS'trial 12 event l at 161.091516818'
p830
aS'staircase 2 updated from 3.250000 to 2.500000 after response 1 at 161.091531'
p831
aa(lp832
S'trial 13 started at 163.622155512'
p833
aS'trial 13 phase 6 started at 166.816107683'
p834
aS'trial 13 event l at 168.116139755'
p835
aS'staircase 3 updated from 5.000000 to 5.750000 after response 0 at 168.116153'
p836
aa(lp837
S'trial 14 started at 170.218895546'
p838
aS'trial 14 phase 6 started at 173.407419666'
p839
aS'trial 14 event l at 174.832446001'
p840
aS'staircase 2 updated from 2.500000 to 3.250000 after response 0 at 174.832460'
p841
aa(lp842
S'trial 15 started at 176.812163509'
p843
aS'trial 15 phase 6 started at 180.507036652'
p844
aS'trial 15 event j at 181.307116191'
p845
aS'staircase 2 updated from 3.250000 to 3.250000 after response 1 at 181.307131'
p846
aa(lp847
S'trial 16 started at 183.908210354'
p848
aS'trial 16 phase 6 started at 187.098345499'
p849
aS'trial 16 event j at 188.181691163'
p850
aS'staircase 3 updated from 5.750000 to 5.750000 after response 1 at 188.181707'
p851
aa(lp852
S'trial 17 started at 190.499233544'
p853
aS'trial 17 phase 6 started at 193.689654917'
p854
aS'trial 17 event j at 194.623044697'
p855
aS'staircase 2 updated from 3.250000 to 3.250000 after response 1 at 194.623060'
p856
aa(lp857
S'trial 18 started at 197.094523057'
p858
aS'trial 18 phase 6 started at 200.289300269'
p859
aS'trial 18 event j at 200.981036604'
p860
aS'staircase 2 updated from 3.250000 to 2.687500 after response 1 at 200.981051'
p861
aa(lp862
S'trial 19 started at 203.693955735'
p863
aS'trial 19 phase 6 started at 206.888929941'
p864
aS'trial 19 event l at 207.539009694'
p865
aS'staircase 3 updated from 5.750000 to 5.750000 after response 1 at 207.539024'
p866
aa(lp867
S'trial 20 started at 210.29305315'
p868
aS'trial 20 phase 6 started at 213.488586697'
p869
aS'trial 20 event l at 214.371986242'
p870
aS'staircase 2 updated from 2.687500 to 2.687500 after response 1 at 214.372001'
p871
aa(lp872
S'trial 21 started at 216.893670078'
p873
aS'trial 21 phase 6 started at 220.588209385'
p874
aS'trial 21 event j at 222.596551591'
p875
aS'staircase 3 updated from 5.750000 to 5.000000 after response 1 at 222.596566'
p876
aa(lp877
S'trial 22 started at 223.990526284'
p878
aS'trial 22 phase 6 started at 227.679487585'
p879
aS'trial 22 event j at 228.571205389'
p880
aS'staircase 2 updated from 2.687500 to 3.250000 after response 0 at 228.571220'
p881
aa(lp882
S'trial 23 started at 231.084790768'
p883
aS'trial 23 phase 6 started at 234.77911569'
p884
aS'trial 23 event l at 235.437509711'
p885
aS'staircase 3 updated from 5.000000 to 5.000000 after response 1 at 235.437523'
p886
aa(lp887
S'trial 24 started at 238.18347324'
p888
aS'trial 24 phase 6 started at 241.378744222'
p889
aS'trial 24 event j at 241.995488218'
p890
aS'staircase 2 updated from 3.250000 to 3.250000 after response 1 at 241.995504'
p891
aa(lp892
S'trial 25 started at 244.783927383'
p893
aS'trial 25 phase 6 started at 248.478360638'
p894
aS'trial 25 event j at 249.07011365'
p895
aS'staircase 2 updated from 3.250000 to 3.250000 after response 1 at 249.070127'
p896
aa(lp897
S'trial 26 started at 251.888983538'
p898
aS'trial 26 phase 6 started at 255.577989027'
p899
aS'trial 26 event j at 256.303053991'
p900
aS'staircase 2 updated from 3.250000 to 3.671875 after response 0 at 256.303068'
p901
aa(lp902
S'trial 27 started at 258.980442198'
p903
aS'trial 27 phase 6 started at 262.169265089'
p904
aS'trial 27 event l at 262.819360522'
p905
aS'staircase 2 updated from 3.671875 to 3.671875 after response 1 at 262.819375'
p906
aa(lp907
S'trial 28 started at 265.57601024'
p908
aS'trial 28 phase 6 started at 268.768927547'
p909
aS'trial 28 event j at 269.610695882'
p910
aS'staircase 2 updated from 3.671875 to 3.988281 after response 0 at 269.610710'
p911
aa(lp912
S'trial 29 started at 272.172689836'
p913
aS'trial 29 phase 6 started at 275.368605114'
p914
aS'trial 29 event l at 276.168669828'
p915
aS'staircase 2 updated from 3.988281 to 3.988281 after response 1 at 276.168686'
p916
aa(lp917
S'trial 30 started at 278.773712442'
p918
aS'trial 30 phase 6 started at 282.468216113'
p919
aa(lp920
S'trial 31 started at 285.886543481'
p921
aS'trial 31 phase 6 started at 289.07618229'
p922
aa(lp923
S'trial 32 started at 292.487558104'
p924
aS'trial 32 phase 6 started at 295.684175551'
p925
aa(lp926
S'trial 33 started at 299.094862595'
p927
aS'trial 33 phase 6 started at 302.283809214'
p928
aS'trial 33 event l at 302.983887185'
p929
aS'staircase 3 updated from 5.000000 to 5.000000 after response 1 at 302.983901'
p930
aa(lp931
S'trial 34 started at 305.692654314'
p932
aS'trial 34 phase 6 started at 308.883427483'
p933
aS'trial 34 event j at 309.733528048'
p934
aS'staircase 3 updated from 5.000000 to 4.250000 after response 1 at 309.733542'
p935
aa(lp936
S'trial 35 started at 312.298081509'
p937
aS'trial 35 phase 6 started at 315.491436709'
p938
aS'trial 35 event l at 316.174840245'
p939
aS'staircase 2 updated from 3.988281 to 3.988281 after response 1 at 316.174854'
p940
aa(lp941
S'trial 36 started at 318.901838952'
p942
aS'trial 36 phase 6 started at 322.591032883'
p943
aS'trial 36 event l at 323.741126178'
p944
aS'staircase 2 updated from 3.988281 to 3.750977 after response 1 at 323.741153'
p945
aa(lp946
S'trial 37 started at 326.005209104'
p947
aS'trial 37 phase 6 started at 329.699013743'
p948
aS'trial 37 event j at 330.532403095'
p949
aS'staircase 2 updated from 3.750977 to 3.750977 after response 1 at 330.532417'
p950
aa(lp951
S'trial 38 started at 333.110583701'
p952
aS'trial 38 phase 6 started at 336.806972935'
p953
aS'trial 38 event l at 337.515378574'
p954
aS'staircase 3 updated from 4.250000 to 4.250000 after response 1 at 337.515393'
p955
aa(lp956
S'trial 39 started at 340.218007501'
p957
aS'trial 39 phase 6 started at 343.406607739'
p958
aS'trial 39 event l at 344.073341401'
p959
aS'staircase 3 updated from 4.250000 to 4.250000 after response 1 at 344.073354'
p960
aa(lp961
S'trial 40 started at 346.851272271'
p962
aS'trial 40 phase 6 started at 350.04793191'
p963
aS'trial 40 event l at 350.556337263'
p964
aS'staircase 3 updated from 4.250000 to 3.500000 after response 1 at 350.556352'
p965
aa(lp966
S'trial 41 started at 353.45654837'
p967
aS'trial 41 phase 6 started at 356.647565288'
p968
aS'trial 41 event j at 357.347631856'
p969
aS'staircase 3 updated from 3.500000 to 3.500000 after response 1 at 357.347645'
p970
aa(lp971
S'trial 42 started at 360.060452347'
p972
aS'trial 42 phase 6 started at 363.755522485'
p973
aS'trial 42 event j at 364.680577472'
p974
aS'staircase 3 updated from 3.500000 to 3.500000 after response 1 at 364.680592'
p975
aa(lp976
S'trial 43 started at 367.166286789'
p977
aS'trial 43 phase 6 started at 370.355162136'
p978
aS'trial 43 event l at 372.288506588'
p979
aS'staircase 3 updated from 3.500000 to 4.250000 after response 0 at 372.288522'
p980
aa(lp981
S'trial 44 started at 373.767183671'
p982
aS'trial 44 phase 6 started at 376.963149695'
p983
aS'trial 44 event l at 377.488192137'
p984
aS'staircase 3 updated from 4.250000 to 4.250000 after response 1 at 377.488208'
p985
aa(lp986
S'trial 45 started at 380.395106487'
p987
aS'trial 45 phase 6 started at 383.587798575'
p988
aS'trial 45 event j at 384.279529493'
p989
aS'staircase 2 updated from 3.750977 to 3.750977 after response 1 at 384.279543'
p990
aa(lp991
S'trial 46 started at 387.012311184'
p992
aS'trial 46 phase 6 started at 390.704082014'
p993
aa(lp994
S'trial 47 started at 394.146018551'
p995
aS'trial 47 phase 6 started at 397.83704616'
p996
aa(lp997
S'trial 48 started at 401.265712196'
p998
aS'trial 48 phase 6 started at 404.46167879'
p999
aa(lp1000
S'trial 49 started at 407.895578733'
p1001
aS'trial 49 phase 6 started at 411.086323109'
p1002
aa(lp1003
S'trial 50 started at 414.518167577'
p1004
aS'trial 50 phase 6 started at 417.710970563'
p1005
aa(lp1006
S'trial 51 started at 421.145669319'
p1007
aS'trial 51 phase 6 started at 424.335614882'
p1008
aa(lp1009
S'trial 52 started at 427.765763369'
p1010
a(lp1011
I-99
aF2.4613130237576115
aaasS'trialResponses'
p1012
(lp1013
s.