(dp0
S'parameterArray'
p1
(lp2
(dp3
S'reaction_time'
p4
F2.1416778206830713
sS'trial_start'
p5
F127.92531755093387
sS'task'
p6
I1
sS'trial_orientation'
p7
F-3.0
sS'base_color_lum'
p8
cnumpy.core.multiarray
scalar
p9
(cnumpy
dtype
p10
(S'i4'
p11
I0
I1
tp12
Rp13
(I3
S'<'
p14
NNNI-1
I-1
I0
tp15
bS'7\x00\x00\x00'
p16
tp17
Rp18
sS'button'
p19
S's'
p20
sS'trial_cue'
p21
S'green135'
p22
sS'trial_color'
p23
I70
sS'trial_stimulus_label'
p24
S'red45'
p25
sS'trial_stimulus'
p26
I0
sS'base_ori'
p27
g9
(g13
S'-\x00\x00\x00'
p28
tp29
Rp30
sS'trial_end'
p31
F134.77113411760638
sS'base_color_b'
p32
g9
(g13
S'K\x00\x00\x00'
p33
tp34
Rp35
sS'base_color_a'
p36
g9
(g13
S'P\x00\x00\x00'
p37
tp38
Rp39
sS'correct_answer'
p40
I1
sS'trial_position_y'
p41
I0
sS'trial_position_x'
p42
I0
sS'response'
p43
I-1
sS'trial_direction'
p44
F-1.0
sa(dp45
g4
F0.9417285661138521
sg5
F135.0286112999811
sg6
I2
sg7
F-3.0
sg8
g9
(g13
S'7\x00\x00\x00'
p46
tp47
Rp48
sg19
S'l'
p49
sg21
g25
sg23
I-70
sg24
g22
sg26
I3
sg27
g9
(g13
S'\x87\x00\x00\x00'
p50
tp51
Rp52
sg31
F141.37081253982342
sg32
g9
(g13
S'K\x00\x00\x00'
p53
tp54
Rp55
sg36
g9
(g13
S'\xb0\xff\xff\xff'
p56
tp57
Rp58
sg40
I0
sg41
I0
sg42
I0
sg43
I1
sg44
F-1.0
sa(dp59
g4
F0.7833791610182743
sg5
F141.62780222396123
sg6
I2
sg7
F-3.0
sg8
g9
(g13
S'7\x00\x00\x00'
p60
tp61
Rp62
sg19
S'j'
p63
sg21
g25
sg23
I70
sg24
g25
sg26
I0
sg27
g9
(g13
S'-\x00\x00\x00'
p64
tp65
Rp66
sg31
F148.47044435036605
sg32
g9
(g13
S'K\x00\x00\x00'
p67
tp68
Rp69
sg36
g9
(g13
S'P\x00\x00\x00'
p70
tp71
Rp72
sg40
I1
sg41
I0
sg42
I0
sg43
I-1
sg44
F-1.0
sa(dp73
g4
F0.7417585002158376
sg5
F148.72592136453932
sg6
I1
sg7
F3.0
sg8
g9
(g13
S'7\x00\x00\x00'
p74
tp75
Rp76
sg19
S'f'
p77
sg21
g22
sg23
I70
sg24
g25
sg26
I0
sg27
g9
(g13
S'-\x00\x00\x00'
p78
tp79
Rp80
sg31
F155.07004323339606
sg32
g9
(g13
S'K\x00\x00\x00'
p81
tp82
Rp83
sg36
g9
(g13
S'P\x00\x00\x00'
p84
tp85
Rp86
sg40
I0
sg41
I0
sg42
I0
sg43
I1
sg44
F-1.0
sa(dp87
g4
F0.7084620856085166
sg5
F155.32498200390273
sg6
I2
sg7
F3.0
sg8
g9
(g13
S'7\x00\x00\x00'
p88
tp89
Rp90
sg19
S'l'
p91
sg21
S'green45'
p92
sg23
I-70
sg24
g92
sg26
I2
sg27
g9
(g13
S'-\x00\x00\x00'
p93
tp94
Rp95
sg31
F162.16966592116478
sg32
g9
(g13
S'K\x00\x00\x00'
p96
tp97
Rp98
sg36
g9
(g13
S'\xb0\xff\xff\xff'
p99
tp100
Rp101
sg40
I1
sg41
I0
sg42
I0
sg43
I1
sg44
F1.0
sa(dp102
g4
F0.8750949695022427
sg5
F162.4270507354522
sg6
I2
sg7
F4.0
sg8
g9
(g13
S'7\x00\x00\x00'
p103
tp104
Rp105
sg19
S'l'
p106
sg21
g92
sg23
I85
sg24
S'red135'
p107
sg26
I1
sg27
g9
(g13
S'\x87\x00\x00\x00'
p108
tp109
Rp110
sg31
F168.76934377320777
sg32
g9
(g13
S'K\x00\x00\x00'
p111
tp112
Rp113
sg36
g9
(g13
S'P\x00\x00\x00'
p114
tp115
Rp116
sg40
I1
sg41
I0
sg42
I0
sg43
I1
sg44
F1.0
sa(dp117
g4
F1.7667038704794322
sg5
F169.0265341583745
sg6
I1
sg7
F4.0
sg8
g9
(g13
S'7\x00\x00\x00'
p118
tp119
Rp120
sg19
S's'
p121
sg21
g107
sg23
I85
sg24
g107
sg26
I1
sg27
g9
(g13
S'\x87\x00\x00\x00'
p122
tp123
Rp124
sg31
F175.36899083588833
sg32
g9
(g13
S'K\x00\x00\x00'
p125
tp126
Rp127
sg36
g9
(g13
S'P\x00\x00\x00'
p128
tp129
Rp130
sg40
I0
sg41
I0
sg42
I0
sg43
I-1
sg44
F1.0
sa(dp131
g4
F2.6583449862519046
sg5
F175.62999311515614
sg6
I1
sg7
F-4.0
sg8
g9
(g13
S'7\x00\x00\x00'
p132
tp133
Rp134
sg19
S's'
p135
sg21
g22
sg23
I-70
sg24
g22
sg26
I3
sg27
g9
(g13
S'\x87\x00\x00\x00'
p136
tp137
Rp138
sg31
F181.96862050828076
sg32
g9
(g13
S'K\x00\x00\x00'
p139
tp140
Rp141
sg36
g9
(g13
S'\xb0\xff\xff\xff'
p142
tp143
Rp144
sg40
I1
sg41
I0
sg42
I0
sg43
I-1
sg44
F-1.0
sa(dp145
g4
F2.425071663666131
sg5
F182.22699428828855
sg6
I1
sg7
F3.0
sg8
g9
(g13
S'7\x00\x00\x00'
p146
tp147
Rp148
sg19
S'f'
p149
sg21
g92
sg23
I-70
sg24
g92
sg26
I2
sg27
g9
(g13
S'-\x00\x00\x00'
p150
tp151
Rp152
sg31
F189.06823093732237
sg32
g9
(g13
S'K\x00\x00\x00'
p153
tp154
Rp155
sg36
g9
(g13
S'\xb0\xff\xff\xff'
p156
tp157
Rp158
sg40
I0
sg41
I0
sg42
I0
sg43
I1
sg44
F-1.0
sa(dp159
g4
F1.4167095009415789
sg5
F189.32465786033845
sg6
I1
sg7
F-3.0
sg8
g9
(g13
S'7\x00\x00\x00'
p160
tp161
Rp162
sg19
S's'
p163
sg21
g25
sg23
I100
sg24
g25
sg26
I0
sg27
g9
(g13
S'-\x00\x00\x00'
p164
tp165
Rp166
sg31
F196.16784877861755
sg32
g9
(g13
S'K\x00\x00\x00'
p167
tp168
Rp169
sg36
g9
(g13
S'P\x00\x00\x00'
p170
tp171
Rp172
sg40
I1
sg41
I0
sg42
I0
sg43
I-1
sg44
F-1.0
sa(dp173
g4
F0.716823393073355
sg5
F196.4282865862433
sg6
I2
sg7
F4.0
sg8
g9
(g13
S'7\x00\x00\x00'
p174
tp175
Rp176
sg19
S'l'
p177
sg21
g22
sg23
I-85
sg24
g22
sg26
I3
sg27
g9
(g13
S'\x87\x00\x00\x00'
p178
tp179
Rp180
sg31
F202.7674918500843
sg32
g9
(g13
S'K\x00\x00\x00'
p181
tp182
Rp183
sg36
g9
(g13
S'\xb0\xff\xff\xff'
p184
tp185
Rp186
sg40
I1
sg41
I0
sg42
I0
sg43
I1
sg44
F1.0
sa(dp187
g4
F0.758436071448159
sg5
F203.02697034100675
sg6
I2
sg7
F3.0
sg8
g9
(g13
S'7\x00\x00\x00'
p188
tp189
Rp190
sg19
S'l'
p191
sg21
g92
sg23
I100
sg24
g25
sg26
I0
sg27
g9
(g13
S'-\x00\x00\x00'
p192
tp193
Rp194
sg31
F209.86707776167077
sg32
g9
(g13
S'K\x00\x00\x00'
p195
tp196
Rp197
sg36
g9
(g13
S'P\x00\x00\x00'
p198
tp199
Rp200
sg40
I1
sg41
I0
sg42
I0
sg43
I1
sg44
F1.0
sa(dp201
g4
F1.5417505177883868
sg5
F210.1282362684433
sg6
I1
sg7
F2.0
sg8
g9
(g13
S'7\x00\x00\x00'
p202
tp203
Rp204
sg19
S's'
p205
sg21
g92
sg23
I-85
sg24
g92
sg26
I2
sg27
g9
(g13
S'-\x00\x00\x00'
p206
tp207
Rp208
sg31
F216.97501557286068
sg32
g9
(g13
S'K\x00\x00\x00'
p209
tp210
Rp211
sg36
g9
(g13
S'\xb0\xff\xff\xff'
p212
tp213
Rp214
sg40
I1
sg41
I0
sg42
I0
sg43
I-1
sg44
F-1.0
sa(dp215
g4
F1.1001118965250498
sg5
F217.23342156766284
sg6
I1
sg7
F4.0
sg8
g9
(g13
S'7\x00\x00\x00'
p216
tp217
Rp218
sg19
S's'
p219
sg21
g107
sg23
I100
sg24
g107
sg26
I1
sg27
g9
(g13
S'\x87\x00\x00\x00'
p220
tp221
Rp222
sg31
F223.57472136339857
sg32
g9
(g13
S'K\x00\x00\x00'
p223
tp224
Rp225
sg36
g9
(g13
S'P\x00\x00\x00'
p226
tp227
Rp228
sg40
I0
sg41
I0
sg42
I0
sg43
I-1
sg44
F1.0
sa(dp229
g4
F0.6001325653096501
sg5
F223.830698704709
sg6
I2
sg7
F2.0
sg8
g9
(g13
S'7\x00\x00\x00'
p230
tp231
Rp232
sg19
S'l'
p233
sg21
g92
sg23
I-85
sg24
g92
sg26
I2
sg27
g9
(g13
S'-\x00\x00\x00'
p234
tp235
Rp236
sg31
F230.17433393058946
sg32
g9
(g13
S'K\x00\x00\x00'
p237
tp238
Rp239
sg36
g9
(g13
S'\xb0\xff\xff\xff'
p240
tp241
Rp242
sg40
I1
sg41
I0
sg42
I0
sg43
I1
sg44
F1.0
sa(dp243
g4
F0.7917581438578054
sg5
F230.434659128975
sg6
I2
sg7
F2.0
sg8
g9
(g13
S'7\x00\x00\x00'
p244
tp245
Rp246
sg19
S'l'
p247
sg21
g25
sg23
F111.25
sg24
g25
sg26
I0
sg27
g9
(g13
S'-\x00\x00\x00'
p248
tp249
Rp250
sg31
F236.7739482083016
sg32
g9
(g13
S'K\x00\x00\x00'
p251
tp252
Rp253
sg36
g9
(g13
S'P\x00\x00\x00'
p254
tp255
Rp256
sg40
I1
sg41
I0
sg42
I0
sg43
I1
sg44
F1.0
sa(dp257
g4
F0.8584273763044621
sg5
F237.0353872403748
sg6
I1
sg7
F-2.0
sg8
g9
(g13
S'7\x00\x00\x00'
p258
tp259
Rp260
sg19
S's'
p261
sg21
g25
sg23
F111.25
sg24
g25
sg26
I0
sg27
g9
(g13
S'-\x00\x00\x00'
p262
tp263
Rp264
sg31
F243.38195486792665
sg32
g9
(g13
S'K\x00\x00\x00'
p265
tp266
Rp267
sg36
g9
(g13
S'P\x00\x00\x00'
p268
tp269
Rp270
sg40
I0
sg41
I0
sg42
I0
sg43
I-1
sg44
F1.0
sa(dp271
g4
F1.150083886757784
sg5
F243.64469161460238
sg6
I1
sg7
F2.0
sg8
g9
(g13
S'7\x00\x00\x00'
p272
tp273
Rp274
sg19
S'f'
p275
sg21
g107
sg23
F122.5
sg24
g25
sg26
I0
sg27
g9
(g13
S'-\x00\x00\x00'
p276
tp277
Rp278
sg31
F249.98995069425746
sg32
g9
(g13
S'K\x00\x00\x00'
p279
tp280
Rp281
sg36
g9
(g13
S'P\x00\x00\x00'
p282
tp283
Rp284
sg40
I0
sg41
I0
sg42
I0
sg43
I1
sg44
F-1.0
sa(dp285
g4
F1.4500877354284967
sg5
F250.25168393579315
sg6
I1
sg7
F-4.0
sg8
g9
(g13
S'7\x00\x00\x00'
p286
tp287
Rp288
sg19
S'f'
p289
sg21
g92
sg23
F133.75
sg24
g107
sg26
I1
sg27
g9
(g13
S'\x87\x00\x00\x00'
p290
tp291
Rp292
sg31
F256.5979048979316
sg32
g9
(g13
S'K\x00\x00\x00'
p293
tp294
Rp295
sg36
g9
(g13
S'P\x00\x00\x00'
p296
tp297
Rp298
sg40
I0
sg41
I0
sg42
I0
sg43
I1
sg44
F-1.0
sa(dp299
g4
F1.3667300984543544
sg5
F256.8601772383936
sg6
I2
sg7
F2.0
sg8
g9
(g13
S'7\x00\x00\x00'
p300
tp301
Rp302
sg19
S'l'
p303
sg21
g22
sg23
F145.0
sg24
g25
sg26
I0
sg27
g9
(g13
S'-\x00\x00\x00'
p304
tp305
Rp306
sg31
F263.20584855339894
sg32
g9
(g13
S'K\x00\x00\x00'
p307
tp308
Rp309
sg36
g9
(g13
S'P\x00\x00\x00'
p310
tp311
Rp312
sg40
I1
sg41
I0
sg42
I0
sg43
I1
sg44
F1.0
sa(dp313
g4
F1.158416685553675
sg5
F263.469485603835
sg6
I1
sg7
F-4.0
sg8
g9
(g13
S'7\x00\x00\x00'
p314
tp315
Rp316
sg19
S'f'
p317
sg21
g107
sg23
F145.0
sg24
g107
sg26
I1
sg27
g9
(g13
S'\x87\x00\x00\x00'
p318
tp319
Rp320
sg31
F269.81382898504853
sg32
g9
(g13
S'K\x00\x00\x00'
p321
tp322
Rp323
sg36
g9
(g13
S'P\x00\x00\x00'
p324
tp325
Rp326
sg40
I0
sg41
I0
sg42
I0
sg43
I1
sg44
F-1.0
sa(dp327
g4
F0.8418031162827901
sg5
F270.07591715951
sg6
I1
sg7
F4.0
sg8
g9
(g13
S'7\x00\x00\x00'
p328
tp329
Rp330
sg19
S'f'
p331
sg21
g92
sg23
I-85
sg24
g22
sg26
I3
sg27
g9
(g13
S'\x87\x00\x00\x00'
p332
tp333
Rp334
sg31
F276.921774208492
sg32
g9
(g13
S'K\x00\x00\x00'
p335
tp336
Rp337
sg36
g9
(g13
S'\xb0\xff\xff\xff'
p338
tp339
Rp340
sg40
I0
sg41
I0
sg42
I0
sg43
I1
sg44
F-1.0
sa(dp341
g4
F0.9500864525380166
sg5
F277.1876258123184
sg6
I1
sg7
F1.0
sg8
g9
(g13
S'7\x00\x00\x00'
p342
tp343
Rp344
sg19
S'f'
p345
sg21
g22
sg23
F-96.25
sg24
g92
sg26
I2
sg27
g9
(g13
S'-\x00\x00\x00'
p346
tp347
Rp348
sg31
F284.02979155886806
sg32
g9
(g13
S'K\x00\x00\x00'
p349
tp350
Rp351
sg36
g9
(g13
S'\xb0\xff\xff\xff'
p352
tp353
Rp354
sg40
I1
sg41
I0
sg42
I0
sg43
I1
sg44
F1.0
sa(dp355
g4
F1.6417586427596689
sg5
F284.29442071097765
sg6
I1
sg7
F4.0
sg8
g9
(g13
S'7\x00\x00\x00'
p356
tp357
Rp358
sg19
S'f'
p359
sg21
g107
sg23
F156.25
sg24
g107
sg26
I1
sg27
g9
(g13
S'\x87\x00\x00\x00'
p360
tp361
Rp362
sg31
F290.63772238543424
sg32
g9
(g13
S'K\x00\x00\x00'
p363
tp364
Rp365
sg36
g9
(g13
S'P\x00\x00\x00'
p366
tp367
Rp368
sg40
I0
sg41
I0
sg42
I0
sg43
I1
sg44
F-1.0
sa(dp369
g4
F0.9000965018440183
sg5
F290.90229765616004
sg6
I2
sg7
F1.0
sg8
g9
(g13
S'7\x00\x00\x00'
p370
tp371
Rp372
sg19
S'l'
p373
sg21
g92
sg23
F-96.25
sg24
g92
sg26
I2
sg27
g9
(g13
S'-\x00\x00\x00'
p374
tp375
Rp376
sg31
F297.74569640263326
sg32
g9
(g13
S'K\x00\x00\x00'
p377
tp378
Rp379
sg36
g9
(g13
S'\xb0\xff\xff\xff'
p380
tp381
Rp382
sg40
I1
sg41
I0
sg42
I0
sg43
I1
sg44
F1.0
sa(dp383
g4
F1.933374100729452
sg5
F298.01168541824336
sg6
I1
sg7
F4.0
sg8
g9
(g13
S'7\x00\x00\x00'
p384
tp385
Rp386
sg19
S'f'
p387
sg21
g107
sg23
F167.5
sg24
g107
sg26
I1
sg27
g9
(g13
S'\x87\x00\x00\x00'
p388
tp389
Rp390
sg31
F304.35361183451823
sg32
g9
(g13
S'K\x00\x00\x00'
p391
tp392
Rp393
sg36
g9
(g13
S'P\x00\x00\x00'
p394
tp395
Rp396
sg40
I0
sg41
I0
sg42
I0
sg43
I1
sg44
F-1.0
sa(dp397
g4
F1.4750790046482507
sg5
F304.632924661566
sg6
I1
sg7
F-1.0
sg8
g9
(g13
S'7\x00\x00\x00'
p398
tp399
Rp400
sg19
S's'
p401
sg21
g92
sg23
F-96.25
sg24
g92
sg26
I2
sg27
g9
(g13
S'-\x00\x00\x00'
p402
tp403
Rp404
sg31
F310.97830689866987
sg32
g9
(g13
S'K\x00\x00\x00'
p405
tp406
Rp407
sg36
g9
(g13
S'\xb0\xff\xff\xff'
p408
tp409
Rp410
sg40
I1
sg41
I0
sg42
I0
sg43
I-1
sg44
F-1.0
sa(dp411
g4
F1.0417634892328351
sg5
F311.2458892637778
sg6
I1
sg7
F1.0
sg8
g9
(g13
S'7\x00\x00\x00'
p412
tp413
Rp414
sg19
S's'
p415
sg21
g92
sg23
F-96.25
sg24
g92
sg26
I2
sg27
g9
(g13
S'-\x00\x00\x00'
p416
tp417
Rp418
sg31
F317.58629360222676
sg32
g9
(g13
S'K\x00\x00\x00'
p419
tp420
Rp421
sg36
g9
(g13
S'\xb0\xff\xff\xff'
p422
tp423
Rp424
sg40
I1
sg41
I0
sg42
I0
sg43
I-1
sg44
F-1.0
sa(dp425
g4
F0.9501235138068296
sg5
F317.8488273671819
sg6
I1
sg7
F-1.0
sg8
g9
(g13
S'7\x00\x00\x00'
p426
tp427
Rp428
sg19
S'f'
p429
sg21
g92
sg23
F-87.8125
sg24
g92
sg26
I2
sg27
g9
(g13
S'-\x00\x00\x00'
p430
tp431
Rp432
sg31
F324.1942455252083
sg32
g9
(g13
S'K\x00\x00\x00'
p433
tp434
Rp435
sg36
g9
(g13
S'\xb0\xff\xff\xff'
p436
tp437
Rp438
sg40
I1
sg41
I0
sg42
I0
sg43
I1
sg44
F1.0
sa(dp439
g4
F0.7834276257553938
sg5
F324.4567456499335
sg6
I2
sg7
F4.0
sg8
g9
(g13
S'7\x00\x00\x00'
p440
tp441
Rp442
sg19
S'l'
p443
sg21
g107
sg23
F178.75
sg24
g107
sg26
I1
sg27
g9
(g13
S'\x87\x00\x00\x00'
p444
tp445
Rp446
sg31
F330.8022242463376
sg32
g9
(g13
S'K\x00\x00\x00'
p447
tp448
Rp449
sg36
g9
(g13
S'P\x00\x00\x00'
p450
tp451
Rp452
sg40
I1
sg41
I0
sg42
I0
sg43
I1
sg44
F1.0
sa(dp453
g4
F0.6167496981643126
sg5
F331.0704868282819
sg6
I2
sg7
F3.0
sg8
g9
(g13
S'7\x00\x00\x00'
p454
tp455
Rp456
sg19
S'l'
p457
sg21
g22
sg23
F-87.8125
sg24
g22
sg26
I3
sg27
g9
(g13
S'\x87\x00\x00\x00'
p458
tp459
Rp460
sg31
F337.41019469995354
sg32
g9
(g13
S'K\x00\x00\x00'
p461
tp462
Rp463
sg36
g9
(g13
S'\xb0\xff\xff\xff'
p464
tp465
Rp466
sg40
I1
sg41
I0
sg42
I0
sg43
I1
sg44
F1.0
sa(dp467
g4
F1.0167531192046226
sg5
F337.6767088452425
sg6
I1
sg7
F3.0
sg8
g9
(g13
S'7\x00\x00\x00'
p468
tp469
Rp470
sg19
S'f'
p471
sg21
g107
sg23
F178.75
sg24
g107
sg26
I1
sg27
g9
(g13
S'\x87\x00\x00\x00'
p472
tp473
Rp474
sg31
F344.5181279497565
sg32
g9
(g13
S'K\x00\x00\x00'
p475
tp476
Rp477
sg36
g9
(g13
S'P\x00\x00\x00'
p478
tp479
Rp480
sg40
I0
sg41
I0
sg42
I0
sg43
I1
sg44
F-1.0
sa(dp481
g4
F0.6083972283877301
sg5
F344.7898269666348
sg6
I2
sg7
F3.0
sg8
g9
(g13
S'7\x00\x00\x00'
p482
tp483
Rp484
sg19
S'l'
p485
sg21
g92
sg23
F-87.8125
sg24
g22
sg26
I3
sg27
g9
(g13
S'\x87\x00\x00\x00'
p486
tp487
Rp488
sg31
F351.63440625708245
sg32
g9
(g13
S'K\x00\x00\x00'
p489
tp490
Rp491
sg36
g9
(g13
S'\xb0\xff\xff\xff'
p492
tp493
Rp494
sg40
I1
sg41
I0
sg42
I0
sg43
I1
sg44
F1.0
sa(dp495
g4
F1.0417643444934583
sg5
F351.9288061567322
sg6
I1
sg7
F-3.0
sg8
g9
(g13
S'7\x00\x00\x00'
p496
tp497
Rp498
sg19
S'f'
p499
sg21
g22
sg23
F190.0
sg24
g107
sg26
I1
sg27
g9
(g13
S'\x87\x00\x00\x00'
p500
tp501
Rp502
sg31
F358.2674019052347
sg32
g9
(g13
S'K\x00\x00\x00'
p503
tp504
Rp505
sg36
g9
(g13
S'P\x00\x00\x00'
p506
tp507
Rp508
sg40
I0
sg41
I0
sg42
I0
sg43
I1
sg44
F-1.0
sa(dp509
g4
F1.8833627685344254
sg5
F358.53504641923973
sg6
I1
sg7
F1.0
sg8
g9
(g13
S'7\x00\x00\x00'
p510
tp511
Rp512
sg19
S'f'
p513
sg21
g107
sg23
F-87.8125
sg24
g92
sg26
I2
sg27
g9
(g13
S'-\x00\x00\x00'
p514
tp515
Rp516
sg31
F364.8753367230138
sg32
g9
(g13
S'K\x00\x00\x00'
p517
tp518
Rp519
sg36
g9
(g13
S'\xb0\xff\xff\xff'
p520
tp521
Rp522
sg40
I0
sg41
I0
sg42
I0
sg43
I1
sg44
F-1.0
sa(dp523
g4
F1.6000738374514185
sg5
F365.14335042428047
sg6
I2
sg7
F-1.0
sg8
g9
(g13
S'7\x00\x00\x00'
p524
tp525
Rp526
sg19
S'f'
p527
sg21
g92
sg23
F201.25
sg24
g25
sg26
I0
sg27
g9
(g13
S'-\x00\x00\x00'
p528
tp529
Rp530
sg31
F371.48333625547184
sg32
g9
(g13
S'K\x00\x00\x00'
p531
tp532
Rp533
sg36
g9
(g13
S'P\x00\x00\x00'
p534
tp535
Rp536
sg40
I0
sg41
I0
sg42
I0
sg43
I1
sg44
F-1.0
sa(dp537
g4
F1.1667480589158004
sg5
F371.75094684416126
sg6
I1
sg7
F3.0
sg8
g9
(g13
S'7\x00\x00\x00'
p538
tp539
Rp540
sg19
S'f'
p541
sg21
g25
sg23
F201.25
sg24
g107
sg26
I1
sg27
g9
(g13
S'\x87\x00\x00\x00'
p542
tp543
Rp544
sg31
F378.0913141213414
sg32
g9
(g13
S'K\x00\x00\x00'
p545
tp546
Rp547
sg36
g9
(g13
S'P\x00\x00\x00'
p548
tp549
Rp550
sg40
I1
sg41
I0
sg42
I0
sg43
I1
sg44
F1.0
sa(dp551
g4
F1.183416792461685
sg5
F378.3629584015762
sg6
I1
sg7
F1.0
sg8
g9
(g13
S'7\x00\x00\x00'
p552
tp553
Rp554
sg19
S's'
p555
sg21
g25
sg23
F-96.25
sg24
g92
sg26
I2
sg27
g9
(g13
S'-\x00\x00\x00'
p556
tp557
Rp558
sg31
F385.20761922681595
sg32
g9
(g13
S'K\x00\x00\x00'
p559
tp560
Rp561
sg36
g9
(g13
S'\xb0\xff\xff\xff'
p562
tp563
Rp564
sg40
I1
sg41
I0
sg42
I0
sg43
I-1
sg44
F-1.0
sa(dp565
g4
F1.0250961811216257
sg5
F385.474494576938
sg6
I2
sg7
F-3.0
sg8
g9
(g13
S'7\x00\x00\x00'
p566
tp567
Rp568
sg19
S'f'
p569
sg21
g107
sg23
F201.25
sg24
g107
sg26
I1
sg27
g9
(g13
S'\x87\x00\x00\x00'
p570
tp571
Rp572
sg31
F392.3155430687584
sg32
g9
(g13
S'K\x00\x00\x00'
p573
tp574
Rp575
sg36
g9
(g13
S'P\x00\x00\x00'
p576
tp577
Rp578
sg40
I0
sg41
I0
sg42
I0
sg43
I1
sg44
F-1.0
sa(dp579
g4
F0.7750777217579525
sg5
F392.58540869314857
sg6
I2
sg7
F3.0
sg8
g9
(g13
S'7\x00\x00\x00'
p580
tp581
Rp582
sg19
S'l'
p583
sg21
g107
sg23
F201.25
sg24
g107
sg26
I1
sg27
g9
(g13
S'\x87\x00\x00\x00'
p584
tp585
Rp586
sg31
F398.93184945712346
sg32
g9
(g13
S'K\x00\x00\x00'
p587
tp588
Rp589
sg36
g9
(g13
S'P\x00\x00\x00'
p590
tp591
Rp592
sg40
I1
sg41
I0
sg42
I0
sg43
I1
sg44
F1.0
sa(dp593
g4
F2.466655548286326
sg5
F399.2018681730651
sg6
I1
sg7
F1.0
sg8
g9
(g13
S'7\x00\x00\x00'
p594
tp595
Rp596
sg19
S'f'
p597
sg21
g107
sg23
F201.25
sg24
g25
sg26
I0
sg27
g9
(g13
S'-\x00\x00\x00'
p598
tp599
Rp600
sg31
F406.0481559880318
sg32
g9
(g13
S'K\x00\x00\x00'
p601
tp602
Rp603
sg36
g9
(g13
S'P\x00\x00\x00'
p604
tp605
Rp606
sg40
I0
sg41
I0
sg42
I0
sg43
I1
sg44
F-1.0
sa(dp607
g4
F2.225051992684712
sg5
F406.31714297525014
sg6
I2
sg7
F1.0
sg8
g9
(g13
S'7\x00\x00\x00'
p608
tp609
Rp610
sg19
S'l'
p611
sg21
g92
sg23
F-96.25
sg24
g92
sg26
I2
sg27
g9
(g13
S'-\x00\x00\x00'
p612
tp613
Rp614
sg31
F412.6561167487007
sg32
g9
(g13
S'K\x00\x00\x00'
p615
tp616
Rp617
sg36
g9
(g13
S'\xb0\xff\xff\xff'
p618
tp619
Rp620
sg40
I1
sg41
I0
sg42
I0
sg43
I1
sg44
F1.0
sa(dp621
g4
F1.7333407455871566
sg5
F412.92885120042865
sg6
I2
sg7
F-2.0
sg8
g9
(g13
S'7\x00\x00\x00'
p622
tp623
Rp624
sg19
S'l'
p625
sg21
g22
sg23
F-96.25
sg24
g22
sg26
I3
sg27
g9
(g13
S'\x87\x00\x00\x00'
p626
tp627
Rp628
sg31
F419.27241686515845
sg32
g9
(g13
S'K\x00\x00\x00'
p629
tp630
Rp631
sg36
g9
(g13
S'\xb0\xff\xff\xff'
p632
tp633
Rp634
sg40
I0
sg41
I0
sg42
I0
sg43
I1
sg44
F-1.0
sa(dp635
g4
F1.491725216345003
sg5
F419.542427313585
sg6
I1
sg7
F-3.0
sg8
g9
(g13
S'7\x00\x00\x00'
p636
tp637
Rp638
sg19
S's'
p639
sg21
g22
sg23
F-96.25
sg24
g22
sg26
I3
sg27
g9
(g13
S'\x87\x00\x00\x00'
p640
tp641
Rp642
sg31
F426.38867692693657
sg32
g9
(g13
S'K\x00\x00\x00'
p643
tp644
Rp645
sg36
g9
(g13
S'\xb0\xff\xff\xff'
p646
tp647
Rp648
sg40
I1
sg41
I0
sg42
I0
sg43
I-1
sg44
F-1.0
sa(dp649
g4
F1.7417202985998301
sg5
F426.6605290353664
sg6
I2
sg7
F-3.0
sg8
g9
(g13
S'7\x00\x00\x00'
p650
tp651
Rp652
sg19
S'f'
p653
sg21
g25
sg23
F209.6875
sg24
g107
sg26
I1
sg27
g9
(g13
S'\x87\x00\x00\x00'
p654
tp655
Rp656
sg31
F433.0050560124073
sg32
g9
(g13
S'K\x00\x00\x00'
p657
tp658
Rp659
sg36
g9
(g13
S'P\x00\x00\x00'
p660
tp661
Rp662
sg40
I0
sg41
I0
sg42
I0
sg43
I1
sg44
F-1.0
sa(dp663
g4
F0.7751484232567236
sg5
F433.2935591790074
sg6
I2
sg7
F3.0
sg8
g9
(g13
S'7\x00\x00\x00'
p664
tp665
Rp666
sg19
S'l'
p667
sg21
g22
sg23
F-96.25
sg24
g22
sg26
I3
sg27
g9
(g13
S'\x87\x00\x00\x00'
p668
tp669
Rp670
sg31
F439.63798837131435
sg32
g9
(g13
S'K\x00\x00\x00'
p671
tp672
Rp673
sg36
g9
(g13
S'\xb0\xff\xff\xff'
p674
tp675
Rp676
sg40
I1
sg41
I0
sg42
I0
sg43
I1
sg44
F1.0
sa(dp677
g4
F1.5249882758098465
sg5
F439.9225168593139
sg6
I1
sg7
F1.0
sg8
g9
(g13
S'7\x00\x00\x00'
p678
tp679
Rp680
sg19
S'f'
p681
sg21
g92
sg23
F209.6875
sg24
g25
sg26
I0
sg27
g9
(g13
S'-\x00\x00\x00'
p682
tp683
Rp684
sg31
F446.2626255628684
sg32
g9
(g13
S'K\x00\x00\x00'
p685
tp686
Rp687
sg36
g9
(g13
S'P\x00\x00\x00'
p688
tp689
Rp690
sg40
I1
sg41
I0
sg42
I0
sg43
I1
sg44
F1.0
sa(dp691
g4
F0.6751425789798304
sg5
F446.5535049270102
sg6
I2
sg7
F3.0
sg8
g9
(g13
S'7\x00\x00\x00'
p692
tp693
Rp694
sg19
S'l'
p695
sg21
g22
sg23
F-96.25
sg24
g22
sg26
I3
sg27
g9
(g13
S'\x87\x00\x00\x00'
p696
tp697
Rp698
sg31
F453.3956051036221
sg32
g9
(g13
S'K\x00\x00\x00'
p699
tp700
Rp701
sg36
g9
(g13
S'\xb0\xff\xff\xff'
p702
tp703
Rp704
sg40
I1
sg41
I0
sg42
I0
sg43
I1
sg44
F1.0
sa(dp705
g4
F1.9166831304228253
sg5
F453.6831518043846
sg6
I1
sg7
F3.0
sg8
g9
(g13
S'7\x00\x00\x00'
p706
tp707
Rp708
sg19
S'f'
p709
sg21
g107
sg23
F209.6875
sg24
g107
sg26
I1
sg27
g9
(g13
S'\x87\x00\x00\x00'
p710
tp711
Rp712
sg31
F460.0285634054171
sg32
g9
(g13
S'K\x00\x00\x00'
p713
tp714
Rp715
sg36
g9
(g13
S'P\x00\x00\x00'
p716
tp717
Rp718
sg40
I0
sg41
I0
sg42
I0
sg43
I1
sg44
F-1.0
sa(dp719
g4
F1.7751073707731848
sg5
F460.3140457934742
sg6
I1
sg7
F3.0
sg8
g9
(g13
S'7\x00\x00\x00'
p720
tp721
Rp722
sg19
S's'
p723
sg21
g22
sg23
F-96.25
sg24
g22
sg26
I3
sg27
g9
(g13
S'\x87\x00\x00\x00'
p724
tp725
Rp726
sg31
F466.65323480737425
sg32
g9
(g13
S'K\x00\x00\x00'
p727
tp728
Rp729
sg36
g9
(g13
S'\xb0\xff\xff\xff'
p730
tp731
Rp732
sg40
I1
sg41
I0
sg42
I0
sg43
I-1
sg44
F-1.0
sa(dp733
g4
F0.8001391223042447
sg5
F466.9487257337778
sg6
I2
sg7
F-3.0
sg8
g9
(g13
S'7\x00\x00\x00'
p734
tp735
Rp736
sg19
S'l'
p737
sg21
g22
sg23
F216.015625
sg24
g107
sg26
I1
sg27
g9
(g13
S'\x87\x00\x00\x00'
p738
tp739
Rp740
sg31
F473.29447658796835
sg32
g9
(g13
S'K\x00\x00\x00'
p741
tp742
Rp743
sg36
g9
(g13
S'P\x00\x00\x00'
p744
tp745
Rp746
sg40
I0
sg41
I0
sg42
I0
sg43
I1
sg44
F-1.0
sa(dp747
g4
F1.316759533655386
sg5
F473.58345071777694
sg6
I2
sg7
F-3.75
sg8
g9
(g13
S'7\x00\x00\x00'
p748
tp749
Rp750
sg19
S'l'
p751
sg21
g107
sg23
F216.015625
sg24
g107
sg26
I1
sg27
g9
(g13
S'\x87\x00\x00\x00'
p752
tp753
Rp754
sg31
F479.9274916220147
sg32
g9
(g13
S'K\x00\x00\x00'
p755
tp756
Rp757
sg36
g9
(g13
S'P\x00\x00\x00'
p758
tp759
Rp760
sg40
I0
sg41
I0
sg42
I0
sg43
I1
sg44
F-1.0
sa(dp761
g4
F1.2917471680202652
sg5
F480.21548733431155
sg6
I1
sg7
F-1.0
sg8
g9
(g13
S'7\x00\x00\x00'
p762
tp763
Rp764
sg19
S'f'
p765
sg21
g25
sg23
F216.015625
sg24
g25
sg26
I0
sg27
g9
(g13
S'-\x00\x00\x00'
p766
tp767
Rp768
sg31
F487.06043552693245
sg32
g9
(g13
S'K\x00\x00\x00'
p769
tp770
Rp771
sg36
g9
(g13
S'P\x00\x00\x00'
p772
tp773
Rp774
sg40
I1
sg41
I0
sg42
I0
sg43
I1
sg44
F1.0
sa(dp775
g4
F1.6833904219429314
sg5
F487.3503892146
sg6
I1
sg7
F1.0
sg8
g9
(g13
S'7\x00\x00\x00'
p776
tp777
Rp778
sg19
S'f'
p779
sg21
g25
sg23
F216.015625
sg24
g25
sg26
I0
sg27
g9
(g13
S'-\x00\x00\x00'
p780
tp781
Rp782
sg31
F494.1933617564764
sg32
g9
(g13
S'K\x00\x00\x00'
p783
tp784
Rp785
sg36
g9
(g13
S'P\x00\x00\x00'
p786
tp787
Rp788
sg40
I0
sg41
I0
sg42
I0
sg43
I1
sg44
F-1.0
sa(dp789
g4
F1.2584151175769875
sg5
F494.48029209981996
sg6
I2
sg7
F-1.0
sg8
g9
(g13
S'7\x00\x00\x00'
p790
tp791
Rp792
sg19
S'j'
p793
sg21
g107
sg23
F-89.921875
sg24
g92
sg26
I2
sg27
g9
(g13
S'-\x00\x00\x00'
p794
tp795
Rp796
sg31
F500.8263277556125
sg32
g9
(g13
S'K\x00\x00\x00'
p797
tp798
Rp799
sg36
g9
(g13
S'\xb0\xff\xff\xff'
p800
tp801
Rp802
sg40
I1
sg41
I0
sg42
I0
sg43
I-1
sg44
F-1.0
sa(dp803
g4
F1.2250668171927828
sg5
F501.11919075292826
sg6
I2
sg7
F-4.3125
sg8
g9
(g13
S'7\x00\x00\x00'
p804
tp805
Rp806
sg19
S'l'
p807
sg21
g22
sg23
F-89.921875
sg24
g22
sg26
I3
sg27
g9
(g13
S'\x87\x00\x00\x00'
p808
tp809
Rp810
sg31
F507.9593175594864
sg32
g9
(g13
S'K\x00\x00\x00'
p811
tp812
Rp813
sg36
g9
(g13
S'\xb0\xff\xff\xff'
p814
tp815
Rp816
sg40
I0
sg41
I0
sg42
I0
sg43
I1
sg44
F-1.0
sa(dp817
g4
F0.7667258221545126
sg5
F508.24728105698705
sg6
I2
sg7
F-4.875
sg8
g9
(g13
S'7\x00\x00\x00'
p818
tp819
Rp820
sg19
S'j'
p821
sg21
g107
sg23
F-89.921875
sg24
g22
sg26
I3
sg27
g9
(g13
S'\x87\x00\x00\x00'
p822
tp823
Rp824
sg31
F514.5922781419758
sg32
g9
(g13
S'K\x00\x00\x00'
p825
tp826
Rp827
sg36
g9
(g13
S'\xb0\xff\xff\xff'
p828
tp829
Rp830
sg40
I1
sg41
I0
sg42
I0
sg43
I-1
sg44
F-1.0
sa(dp831
g4
F1.0417646295800296
sg5
F514.8842568003865
sg6
I2
sg7
F-0.0
sg8
g9
(g13
S'7\x00\x00\x00'
p832
tp833
Rp834
sg19
S'j'
p835
sg21
g107
sg23
F-89.921875
sg24
g92
sg26
I2
sg27
g9
(g13
S'-\x00\x00\x00'
p836
tp837
Rp838
sg31
F521.7251744374171
sg32
g9
(g13
S'K\x00\x00\x00'
p839
tp840
Rp841
sg36
g9
(g13
S'\xb0\xff\xff\xff'
p842
tp843
Rp844
sg40
I1
sg41
I0
sg42
I0
sg43
I-1
sg44
F-1.0
sa(dp845
g4
F1.8251098652817745
sg5
F522.0139763748657
sg6
I1
sg7
F-4.875
sg8
g9
(g13
S'7\x00\x00\x00'
p846
tp847
Rp848
sg19
S's'
p849
sg21
g22
sg23
F-89.921875
sg24
g22
sg26
I3
sg27
g9
(g13
S'\x87\x00\x00\x00'
p850
tp851
Rp852
sg31
F528.858149986957
sg32
g9
(g13
S'K\x00\x00\x00'
p853
tp854
Rp855
sg36
g9
(g13
S'\xb0\xff\xff\xff'
p856
tp857
Rp858
sg40
I1
sg41
I0
sg42
I0
sg43
I-1
sg44
F-1.0
sa(dp859
g4
F0.825081641700308
sg5
F529.1472800591837
sg6
I2
sg7
F0.0
sg8
g9
(g13
S'7\x00\x00\x00'
p860
tp861
Rp862
sg19
S'j'
p863
sg21
g25
sg23
F220.76171875
sg24
g25
sg26
I0
sg27
g9
(g13
S'-\x00\x00\x00'
p864
tp865
Rp866
sg31
F535.9910904708349
sg32
g9
(g13
S'K\x00\x00\x00'
p867
tp868
Rp869
sg36
g9
(g13
S'P\x00\x00\x00'
p870
tp871
Rp872
sg40
I0
sg41
I0
sg42
I0
sg43
I-1
sg44
F1.0
sa(dp873
g4
F1.86672311383154
sg5
F536.2868143130618
sg6
I1
sg7
F-1.0
sg8
g9
(g13
S'7\x00\x00\x00'
p874
tp875
Rp876
sg19
S'f'
p877
sg21
g25
sg23
F220.76171875
sg24
g25
sg26
I0
sg27
g9
(g13
S'-\x00\x00\x00'
p878
tp879
Rp880
sg31
F542.6323864179003
sg32
g9
(g13
S'K\x00\x00\x00'
p881
tp882
Rp883
sg36
g9
(g13
S'P\x00\x00\x00'
p884
tp885
Rp886
sg40
I1
sg41
I0
sg42
I0
sg43
I1
sg44
F1.0
sa(dp887
g4
F1.216752834118779
sg5
F542.9238165695233
sg6
I2
sg7
F1.0
sg8
g9
(g13
S'7\x00\x00\x00'
p888
tp889
Rp890
sg19
S'l'
p891
sg21
g25
sg23
F220.76171875
sg24
g25
sg26
I0
sg27
g9
(g13
S'-\x00\x00\x00'
p892
tp893
Rp894
sg31
F549.7653314631643
sg32
g9
(g13
S'K\x00\x00\x00'
p895
tp896
Rp897
sg36
g9
(g13
S'P\x00\x00\x00'
p898
tp899
Rp900
sg40
I1
sg41
I0
sg42
I0
sg43
I1
sg44
F1.0
sa(dp901
g4
F1.758383900584704
sg5
F550.0563701907658
sg6
I1
sg7
F-1.0
sg8
g9
(g13
S'7\x00\x00\x00'
p902
tp903
Rp904
sg19
S'f'
p905
sg21
g92
sg23
F-89.921875
sg24
g92
sg26
I2
sg27
g9
(g13
S'-\x00\x00\x00'
p906
tp907
Rp908
sg31
F556.3983085806813
sg32
g9
(g13
S'K\x00\x00\x00'
p909
tp910
Rp911
sg36
g9
(g13
S'\xb0\xff\xff\xff'
p912
tp913
Rp914
sg40
I1
sg41
I0
sg42
I0
sg43
I1
sg44
F1.0
sa(dp915
g4
F0.8250716636657671
sg5
F556.6976587255767
sg6
I2
sg7
F4.875
sg8
g9
(g13
S'7\x00\x00\x00'
p916
tp917
Rp918
sg19
S'l'
p919
sg21
g22
sg23
F-89.921875
sg24
g22
sg26
I3
sg27
g9
(g13
S'\x87\x00\x00\x00'
p920
tp921
Rp922
sg31
F563.0396031023129
sg32
g9
(g13
S'K\x00\x00\x00'
p923
tp924
Rp925
sg36
g9
(g13
S'\xb0\xff\xff\xff'
p926
tp927
Rp928
sg40
I1
sg41
I0
sg42
I0
sg43
I1
sg44
F1.0
sa(dp929
g4
F1.6417207262302327
sg5
F563.3312978143831
sg6
I1
sg7
F-4.875
sg8
g9
(g13
S'7\x00\x00\x00'
p930
tp931
Rp932
sg19
S's'
p933
sg21
g107
sg23
F-89.921875
sg24
g22
sg26
I3
sg27
g9
(g13
S'\x87\x00\x00\x00'
p934
tp935
Rp936
sg31
F569.6726158556667
sg32
g9
(g13
S'K\x00\x00\x00'
p937
tp938
Rp939
sg36
g9
(g13
S'\xb0\xff\xff\xff'
p940
tp941
Rp942
sg40
I1
sg41
I0
sg42
I0
sg43
I-1
sg44
F-1.0
sa(dp943
g4
F1.2250790759198935
sg5
F569.9680452033454
sg6
I2
sg7
F-4.875
sg8
g9
(g13
S'7\x00\x00\x00'
p944
tp945
Rp946
sg19
S'l'
p947
sg21
g107
sg23
F220.76171875
sg24
g107
sg26
I1
sg27
g9
(g13
S'\x87\x00\x00\x00'
p948
tp949
Rp950
sg31
F576.8138771646991
sg32
g9
(g13
S'K\x00\x00\x00'
p951
tp952
Rp953
sg36
g9
(g13
S'P\x00\x00\x00'
p954
tp955
Rp956
sg40
I0
sg41
I0
sg42
I0
sg43
I1
sg44
F-1.0
sa(dp957
g4
F2.3167113540048376
sg5
F577.10676467947
sg6
I2
sg7
F-5.4375
sg8
g9
(g13
S'7\x00\x00\x00'
p958
tp959
Rp960
sg19
S's'
p961
sg21
g22
sg23
F220.76171875
sg24
g107
sg26
I1
sg27
g9
(g13
S'\x87\x00\x00\x00'
p962
tp963
Rp964
sg31
F583.9468321879976
sg32
g9
(g13
S'K\x00\x00\x00'
p965
tp966
Rp967
sg36
g9
(g13
S'P\x00\x00\x00'
p968
tp969
Rp970
sg40
I0
sg41
I0
sg42
I0
sg43
I-1
sg44
F-1.0
sa(dp971
g4
F1.0168528995454835
sg5
F584.2395751638178
sg6
I2
sg7
F-1.0
sg8
g9
(g13
S'7\x00\x00\x00'
p972
tp973
Rp974
sg19
S'j'
p975
sg21
g25
sg23
F-83.59375
sg24
g92
sg26
I2
sg27
g9
(g13
S'-\x00\x00\x00'
p976
tp977
Rp978
sg31
F590.5798087353414
sg32
g9
(g13
S'K\x00\x00\x00'
p979
tp980
Rp981
sg36
g9
(g13
S'\xb0\xff\xff\xff'
p982
tp983
Rp984
sg40
I1
sg41
I0
sg42
I0
sg43
I-1
sg44
F-1.0
sa(dp985
g4
F1.2500717705734132
sg5
F590.8723182251642
sg6
I2
sg7
F1.0
sg8
g9
(g13
S'7\x00\x00\x00'
p986
tp987
Rp988
sg19
S'j'
p989
sg21
g92
sg23
F-83.59375
sg24
g92
sg26
I2
sg27
g9
(g13
S'-\x00\x00\x00'
p990
tp991
Rp992
sg31
F597.2127701730906
sg32
g9
(g13
S'K\x00\x00\x00'
p993
tp994
Rp995
sg36
g9
(g13
S'\xb0\xff\xff\xff'
p996
tp997
Rp998
sg40
I0
sg41
I0
sg42
I0
sg43
I-1
sg44
F1.0
sa(dp999
g4
F1.0167645226729292
sg5
F597.5078762324656
sg6
I2
sg7
F-5.4375
sg8
g9
(g13
S'7\x00\x00\x00'
p1000
tp1001
Rp1002
sg19
S'j'
p1003
sg21
g22
sg23
F-83.59375
sg24
g22
sg26
I3
sg27
g9
(g13
S'\x87\x00\x00\x00'
p1004
tp1005
Rp1006
sg31
F604.3540728196922
sg32
g9
(g13
S'K\x00\x00\x00'
p1007
tp1008
Rp1009
sg36
g9
(g13
S'\xb0\xff\xff\xff'
p1010
tp1011
Rp1012
sg40
I1
sg41
I0
sg42
I0
sg43
I-1
sg44
F-1.0
sa(dp1013
g4
F0.9750224149402129
sg5
F604.6541279839666
sg6
I2
sg7
F1.75
sg8
g9
(g13
S'7\x00\x00\x00'
p1014
tp1015
Rp1016
sg19
S'j'
p1017
sg21
g22
sg23
F-83.59375
sg24
g92
sg26
I2
sg27
g9
(g13
S'-\x00\x00\x00'
p1018
tp1019
Rp1020
sg31
F611.4953381199384
sg32
g9
(g13
S'K\x00\x00\x00'
p1021
tp1022
Rp1023
sg36
g9
(g13
S'\xb0\xff\xff\xff'
p1024
tp1025
Rp1026
sg40
I0
sg41
I0
sg42
I0
sg43
I-1
sg44
F1.0
sa(dp1027
g4
F2.1334142979530952
sg5
F611.7902873816356
sg6
I1
sg7
F5.4375
sg8
g9
(g13
S'7\x00\x00\x00'
p1028
tp1029
Rp1030
sg19
S'f'
p1031
sg21
g107
sg23
F220.76171875
sg24
g107
sg26
I1
sg27
g9
(g13
S'\x87\x00\x00\x00'
p1032
tp1033
Rp1034
sg31
F618.1366571590252
sg32
g9
(g13
S'K\x00\x00\x00'
p1035
tp1036
Rp1037
sg36
g9
(g13
S'P\x00\x00\x00'
p1038
tp1039
Rp1040
sg40
I1
sg41
I0
sg42
I0
sg43
I1
sg44
F1.0
sa(dp1041
g4
F1.9417228643796989
sg5
F618.4300692333018
sg6
I1
sg7
F-5.4375
sg8
g9
(g13
S'7\x00\x00\x00'
p1042
tp1043
Rp1044
sg19
S's'
p1045
sg21
g22
sg23
F-83.59375
sg24
g22
sg26
I3
sg27
g9
(g13
S'\x87\x00\x00\x00'
p1046
tp1047
Rp1048
sg31
F624.7696166011683
sg32
g9
(g13
S'K\x00\x00\x00'
p1049
tp1050
Rp1051
sg36
g9
(g13
S'\xb0\xff\xff\xff'
p1052
tp1053
Rp1054
sg40
I1
sg41
I0
sg42
I0
sg43
I-1
sg44
F-1.0
sa(dp1055
g4
F0.775194892386935
sg5
F625.0644752052976
sg6
I2
sg7
F5.4375
sg8
g9
(g13
S'7\x00\x00\x00'
p1056
tp1057
Rp1058
sg19
S'l'
p1059
sg21
g107
sg23
F220.76171875
sg24
g107
sg26
I1
sg27
g9
(g13
S'\x87\x00\x00\x00'
p1060
tp1061
Rp1062
sg31
F631.9109360678849
sg32
g9
(g13
S'K\x00\x00\x00'
p1063
tp1064
Rp1065
sg36
g9
(g13
S'P\x00\x00\x00'
p1066
tp1067
Rp1068
sg40
I1
sg41
I0
sg42
I0
sg43
I1
sg44
F1.0
sa(dp1069
g4
F1.241728993743891
sg5
F632.2064914238799
sg6
I2
sg7
F-5.4375
sg8
g9
(g13
S'7\x00\x00\x00'
p1070
tp1071
Rp1072
sg19
S'j'
p1073
sg21
g92
sg23
F-83.59375
sg24
g22
sg26
I3
sg27
g9
(g13
S'\x87\x00\x00\x00'
p1074
tp1075
Rp1076
sg31
F639.0522324425801
sg32
g9
(g13
S'K\x00\x00\x00'
p1077
tp1078
Rp1079
sg36
g9
(g13
S'\xb0\xff\xff\xff'
p1080
tp1081
Rp1082
sg40
I1
sg41
I0
sg42
I0
sg43
I-1
sg44
F-1.0
sa(dp1083
g4
F0.9584474749153742
sg5
F639.3508279630132
sg6
I1
sg7
F5.015625
sg8
g9
(g13
S'7\x00\x00\x00'
p1084
tp1085
Rp1086
sg19
S's'
p1087
sg21
g22
sg23
F-83.59375
sg24
g22
sg26
I3
sg27
g9
(g13
S'\x87\x00\x00\x00'
p1088
tp1089
Rp1090
sg31
F645.6935135651374
sg32
g9
(g13
S'K\x00\x00\x00'
p1091
tp1092
Rp1093
sg36
g9
(g13
S'\xb0\xff\xff\xff'
p1094
tp1095
Rp1096
sg40
I1
sg41
I0
sg42
I0
sg43
I-1
sg44
F-1.0
sa(dp1097
g4
F1.9333703946031164
sg5
F645.9902987851028
sg6
I1
sg7
F5.015625
sg8
g9
(g13
S'7\x00\x00\x00'
p1098
tp1099
Rp1100
sg19
S's'
p1101
sg21
g22
sg23
F-83.59375
sg24
g22
sg26
I3
sg27
g9
(g13
S'\x87\x00\x00\x00'
p1102
tp1103
Rp1104
sg31
F652.8347703127829
sg32
g9
(g13
S'K\x00\x00\x00'
p1105
tp1106
Rp1107
sg36
g9
(g13
S'\xb0\xff\xff\xff'
p1108
tp1109
Rp1110
sg40
I1
sg41
I0
sg42
I0
sg43
I-1
sg44
F-1.0
sa(dp1111
g4
F1.1084486865347571
sg5
F653.1337392967762
sg6
I2
sg7
F-2.5
sg8
g9
(g13
S'7\x00\x00\x00'
p1112
tp1113
Rp1114
sg19
S'j'
p1115
sg21
g92
sg23
F-77.265625
sg24
g92
sg26
I2
sg27
g9
(g13
S'-\x00\x00\x00'
p1116
tp1117
Rp1118
sg31
F659.4761269833125
sg32
g9
(g13
S'K\x00\x00\x00'
p1119
tp1120
Rp1121
sg36
g9
(g13
S'\xb0\xff\xff\xff'
p1122
tp1123
Rp1124
sg40
I1
sg41
I0
sg42
I0
sg43
I-1
sg44
F-1.0
sa(dp1125
g4
F2.1500374176275727
sg5
F659.7711569245421
sg6
I1
sg7
F5.015625
sg8
g9
(g13
S'7\x00\x00\x00'
p1126
tp1127
Rp1128
sg19
S's'
p1129
sg21
g22
sg23
F-77.265625
sg24
g22
sg26
I3
sg27
g9
(g13
S'\x87\x00\x00\x00'
p1130
tp1131
Rp1132
sg31
F666.1174072506101
sg32
g9
(g13
S'K\x00\x00\x00'
p1133
tp1134
Rp1135
sg36
g9
(g13
S'\xb0\xff\xff\xff'
p1136
tp1137
Rp1138
sg40
I0
sg41
I0
sg42
I0
sg43
I-1
sg44
F1.0
sa(dp1139
g4
F0.8334609096255008
sg5
F666.4156298776552
sg6
I2
sg7
F2.5
sg8
g9
(g13
S'7\x00\x00\x00'
p1140
tp1141
Rp1142
sg19
S'j'
p1143
sg21
g92
sg23
F-83.59375
sg24
g92
sg26
I2
sg27
g9
(g13
S'-\x00\x00\x00'
p1144
tp1145
Rp1146
sg31
F673.2586600070417
sg32
g9
(g13
S'K\x00\x00\x00'
p1147
tp1148
Rp1149
sg36
g9
(g13
S'\xb0\xff\xff\xff'
p1150
tp1151
Rp1152
sg40
I0
sg41
I0
sg42
I0
sg43
I-1
sg44
F1.0
sa(dp1153
g4
F1.2167183386281977
sg5
F673.5601742449835
sg6
I2
sg7
F3.0625
sg8
g9
(g13
S'7\x00\x00\x00'
p1154
tp1155
Rp1156
sg19
S'l'
p1157
sg21
g92
sg23
F-83.59375
sg24
g92
sg26
I2
sg27
g9
(g13
S'-\x00\x00\x00'
p1158
tp1159
Rp1160
sg31
F680.3999712062441
sg32
g9
(g13
S'K\x00\x00\x00'
p1161
tp1162
Rp1163
sg36
g9
(g13
S'\xb0\xff\xff\xff'
p1164
tp1165
Rp1166
sg40
I1
sg41
I0
sg42
I0
sg43
I1
sg44
F1.0
sa(dp1167
g4
F2.6083151234206525
sg5
F680.6978617072982
sg6
I1
sg7
F-3.0625
sg8
g9
(g13
S'7\x00\x00\x00'
p1168
tp1169
Rp1170
sg19
S'f'
p1171
sg21
g25
sg23
F220.76171875
sg24
g25
sg26
I0
sg27
g9
(g13
S'-\x00\x00\x00'
p1172
tp1173
Rp1174
sg31
F687.0412563200152
sg32
g9
(g13
S'K\x00\x00\x00'
p1175
tp1176
Rp1177
sg36
g9
(g13
S'P\x00\x00\x00'
p1178
tp1179
Rp1180
sg40
I1
sg41
I0
sg42
I0
sg43
I1
sg44
F1.0
sa(dp1181
g4
F1.166729813367965
sg5
F687.3373088671933
sg6
I1
sg7
F5.015625
sg8
g9
(g13
S'7\x00\x00\x00'
p1182
tp1183
Rp1184
sg19
S'f'
p1185
sg21
g92
sg23
F217.2021484375
sg24
g107
sg26
I1
sg27
g9
(g13
S'\x87\x00\x00\x00'
p1186
tp1187
Rp1188
sg31
F694.1825826288132
sg32
g9
(g13
S'K\x00\x00\x00'
p1189
tp1190
Rp1191
sg36
g9
(g13
S'P\x00\x00\x00'
p1192
tp1193
Rp1194
sg40
I1
sg41
I0
sg42
I0
sg43
I1
sg44
F1.0
sa(dp1195
g4
F0.5501149612064182
sg5
F694.4793296471626
sg6
I2
sg7
F5.015625
sg8
g9
(g13
S'7\x00\x00\x00'
p1196
tp1197
Rp1198
sg19
S'l'
p1199
sg21
g107
sg23
F217.2021484375
sg24
g107
sg26
I1
sg27
g9
(g13
S'\x87\x00\x00\x00'
p1200
tp1201
Rp1202
sg31
F701.3238114379628
sg32
g9
(g13
S'K\x00\x00\x00'
p1203
tp1204
Rp1205
sg36
g9
(g13
S'P\x00\x00\x00'
p1206
tp1207
Rp1208
sg40
I1
sg41
I0
sg42
I0
sg43
I1
sg44
F1.0
sa(dp1209
g4
F2.0166898299603417
sg5
F701.6236576336951
sg6
I2
sg7
F3.0625
sg8
g9
(g13
S'7\x00\x00\x00'
p1210
tp1211
Rp1212
sg19
S'j'
p1213
sg21
g107
sg23
F217.2021484375
sg24
g25
sg26
I0
sg27
g9
(g13
S'-\x00\x00\x00'
p1214
tp1215
Rp1216
sg31
F707.9651527138112
sg32
g9
(g13
S'K\x00\x00\x00'
p1217
tp1218
Rp1219
sg36
g9
(g13
S'P\x00\x00\x00'
p1220
tp1221
Rp1222
sg40
I0
sg41
I0
sg42
I0
sg43
I-1
sg44
F1.0
sa(dp1223
g4
F1.0084360001765162
sg5
F708.2665035970813
sg6
I1
sg7
F-3.484375
sg8
g9
(g13
S'7\x00\x00\x00'
p1224
tp1225
Rp1226
sg19
S'f'
p1227
sg21
g25
sg23
F-83.59375
sg24
g92
sg26
I2
sg27
g9
(g13
S'-\x00\x00\x00'
p1228
tp1229
Rp1230
sg31
F715.1064191544046
sg32
g9
(g13
S'K\x00\x00\x00'
p1231
tp1232
Rp1233
sg36
g9
(g13
S'\xb0\xff\xff\xff'
p1234
tp1235
Rp1236
sg40
I1
sg41
I0
sg42
I0
sg43
I1
sg44
F1.0
sa(dp1237
g4
F1.1584486152632962
sg5
F715.4060720613616
sg6
I2
sg7
F-3.484375
sg8
g9
(g13
S'7\x00\x00\x00'
p1238
tp1239
Rp1240
sg19
S'j'
p1241
sg21
g25
sg23
F217.2021484375
sg24
g25
sg26
I0
sg27
g9
(g13
S'-\x00\x00\x00'
p1242
tp1243
Rp1244
sg31
F722.2476642134952
sg32
g9
(g13
S'K\x00\x00\x00'
p1245
tp1246
Rp1247
sg36
g9
(g13
S'P\x00\x00\x00'
p1248
tp1249
Rp1250
sg40
I1
sg41
I0
sg42
I0
sg43
I-1
sg44
F-1.0
sa(dp1251
g4
F0.6917306329924031
sg5
F722.5485227520558
sg6
I2
sg7
F-3.484375
sg8
g9
(g13
S'7\x00\x00\x00'
p1252
tp1253
Rp1254
sg19
S'j'
p1255
sg21
g25
sg23
F217.2021484375
sg24
g25
sg26
I0
sg27
g9
(g13
S'-\x00\x00\x00'
p1256
tp1257
Rp1258
sg31
F729.3890221669153
sg32
g9
(g13
S'K\x00\x00\x00'
p1259
tp1260
Rp1261
sg36
g9
(g13
S'P\x00\x00\x00'
p1262
tp1263
Rp1264
sg40
I1
sg41
I0
sg42
I0
sg43
I-1
sg44
F-1.0
sa(dp1265
g4
F0.6834289086455101
sg5
F729.6893321986881
sg6
I2
sg7
F5.015625
sg8
g9
(g13
S'7\x00\x00\x00'
p1266
tp1267
Rp1268
sg19
S'l'
p1269
sg21
g25
sg23
F217.2021484375
sg24
g107
sg26
I1
sg27
g9
(g13
S'\x87\x00\x00\x00'
p1270
tp1271
Rp1272
sg31
F736.0302858991845
sg32
g9
(g13
S'K\x00\x00\x00'
p1273
tp1274
Rp1275
sg36
g9
(g13
S'P\x00\x00\x00'
p1276
tp1277
Rp1278
sg40
I1
sg41
I0
sg42
I0
sg43
I1
sg44
F1.0
sa(dp1279
g4
F1.3417756054168422
sg5
F736.3281635713383
sg6
I1
sg7
F5.015625
sg8
g9
(g13
S'7\x00\x00\x00'
p1280
tp1281
Rp1282
sg19
S'f'
p1283
sg21
g107
sg23
F-83.59375
sg24
g22
sg26
I3
sg27
g9
(g13
S'\x87\x00\x00\x00'
p1284
tp1285
Rp1286
sg31
F743.1715720107595
sg32
g9
(g13
S'K\x00\x00\x00'
p1287
tp1288
Rp1289
sg36
g9
(g13
S'\xb0\xff\xff\xff'
p1290
tp1291
Rp1292
sg40
I1
sg41
I0
sg42
I0
sg43
I1
sg44
F1.0
sa(dp1293
g4
F0.8334067431551375
sg5
F743.4762752283896
sg6
I2
sg7
F-3.484375
sg8
g9
(g13
S'7\x00\x00\x00'
p1294
tp1295
Rp1296
sg19
S'j'
p1297
sg21
g25
sg23
F217.2021484375
sg24
g25
sg26
I0
sg27
g9
(g13
S'-\x00\x00\x00'
p1298
tp1299
Rp1300
sg31
F750.3211946272559
sg32
g9
(g13
S'K\x00\x00\x00'
p1301
tp1302
Rp1303
sg36
g9
(g13
S'P\x00\x00\x00'
p1304
tp1305
Rp1306
sg40
I1
sg41
I0
sg42
I0
sg43
I-1
sg44
F-1.0
sa(dp1307
g4
F0.9834330424027939
sg5
F750.6187587040531
sg6
I2
sg7
F3.16796875
sg8
g9
(g13
S'7\x00\x00\x00'
p1308
tp1309
Rp1310
sg19
S'j'
p1311
sg21
g25
sg23
F217.2021484375
sg24
g25
sg26
I0
sg27
g9
(g13
S'-\x00\x00\x00'
p1312
tp1313
Rp1314
sg31
F757.4624778879634
sg32
g9
(g13
S'K\x00\x00\x00'
p1315
tp1316
Rp1317
sg36
g9
(g13
S'P\x00\x00\x00'
p1318
tp1319
Rp1320
sg40
I0
sg41
I0
sg42
I0
sg43
I-1
sg44
F1.0
sa(dp1321
g4
F1.9167509810549745
sg5
F757.7621746982713
sg6
I1
sg7
F3.484375
sg8
g9
(g13
S'7\x00\x00\x00'
p1322
tp1323
Rp1324
sg19
S'f'
p1325
sg21
g25
sg23
F217.2021484375
sg24
g25
sg26
I0
sg27
g9
(g13
S'-\x00\x00\x00'
p1326
tp1327
Rp1328
sg31
F764.6037349206963
sg32
g9
(g13
S'K\x00\x00\x00'
p1329
tp1330
Rp1331
sg36
g9
(g13
S'P\x00\x00\x00'
p1332
tp1333
Rp1334
sg40
I0
sg41
I0
sg42
I0
sg43
I1
sg44
F-1.0
sa(dp1335
g4
F0.7417844431038247
sg5
F764.9066694605162
sg6
I2
sg7
F5.015625
sg8
g9
(g13
S'7\x00\x00\x00'
p1336
tp1337
Rp1338
sg19
S'l'
p1339
sg21
g107
sg23
F220.76171875
sg24
g107
sg26
I1
sg27
g9
(g13
S'\x87\x00\x00\x00'
p1340
tp1341
Rp1342
sg31
F771.753340431992
sg32
g9
(g13
S'K\x00\x00\x00'
p1343
tp1344
Rp1345
sg36
g9
(g13
S'P\x00\x00\x00'
p1346
tp1347
Rp1348
sg40
I1
sg41
I0
sg42
I0
sg43
I1
sg44
F1.0
sa(dp1349
g4
F0.8584484727189192
sg5
F772.0519701628273
sg6
I2
sg7
F4.59375
sg8
g9
(g13
S'7\x00\x00\x00'
p1350
tp1351
Rp1352
sg19
S'l'
p1353
sg21
g25
sg23
F-83.59375
sg24
g22
sg26
I3
sg27
g9
(g13
S'\x87\x00\x00\x00'
p1354
tp1355
Rp1356
sg31
F778.8946516311944
sg32
g9
(g13
S'K\x00\x00\x00'
p1357
tp1358
Rp1359
sg36
g9
(g13
S'\xb0\xff\xff\xff'
p1360
tp1361
Rp1362
sg40
I1
sg41
I0
sg42
I0
sg43
I1
sg44
F1.0
sa(dp1363
g4
F0.966760887817145
sg5
F779.1957348180649
sg6
I1
sg7
F-4.59375
sg8
g9
(g13
S'7\x00\x00\x00'
p1364
tp1365
Rp1366
sg19
S'j'
p1367
sg21
g25
sg23
F-83.59375
sg24
g22
sg26
I3
sg27
g9
(g13
S'\x87\x00\x00\x00'
p1368
tp1369
Rp1370
sg31
F785.5359886307424
sg32
g9
(g13
S'K\x00\x00\x00'
p1371
tp1372
Rp1373
sg36
g9
(g13
S'\xb0\xff\xff\xff'
p1374
tp1375
Rp1376
sg40
I0
sg41
I0
sg42
I0
sg43
I-1
sg44
F-1.0
sa(dp1377
g4
F2.050051814505423
sg5
F785.8357378970013
sg6
I1
sg7
F-3.484375
sg8
g9
(g13
S'7\x00\x00\x00'
p1378
tp1379
Rp1380
sg19
S'f'
p1381
sg21
g25
sg23
F220.76171875
sg24
g25
sg26
I0
sg27
g9
(g13
S'-\x00\x00\x00'
p1382
tp1383
Rp1384
sg31
F792.6772450933013
sg32
g9
(g13
S'K\x00\x00\x00'
p1385
tp1386
Rp1387
sg36
g9
(g13
S'P\x00\x00\x00'
p1388
tp1389
Rp1390
sg40
I1
sg41
I0
sg42
I0
sg43
I1
sg44
F1.0
sa(dp1391
g4
F1.883385005296077
sg5
F792.9867976354908
sg6
I1
sg7
F3.484375
sg8
g9
(g13
S'7\x00\x00\x00'
p1392
tp1393
Rp1394
sg19
S'f'
p1395
sg21
g22
sg23
F-83.59375
sg24
g92
sg26
I2
sg27
g9
(g13
S'-\x00\x00\x00'
p1396
tp1397
Rp1398
sg31
F799.8268443326906
sg32
g9
(g13
S'K\x00\x00\x00'
p1399
tp1400
Rp1401
sg36
g9
(g13
S'\xb0\xff\xff\xff'
p1402
tp1403
Rp1404
sg40
I1
sg41
I0
sg42
I0
sg43
I1
sg44
F1.0
sa(dp1405
g4
F1.6000382016163712
sg5
F800.1310366749767
sg6
I1
sg7
F3.484375
sg8
g9
(g13
S'7\x00\x00\x00'
p1406
tp1407
Rp1408
sg19
S's'
p1409
sg21
g92
sg23
F-78.84765625
sg24
g92
sg26
I2
sg27
g9
(g13
S'-\x00\x00\x00'
p1410
tp1411
Rp1412
sg31
F806.9765402164667
sg32
g9
(g13
S'K\x00\x00\x00'
p1413
tp1414
Rp1415
sg36
g9
(g13
S'\xb0\xff\xff\xff'
p1416
tp1417
Rp1418
sg40
I1
sg41
I0
sg42
I0
sg43
I-1
sg44
F-1.0
sa(dp1419
g4
F1.6750288293906124
sg5
F807.277879981355
sg6
I1
sg7
F-3.484375
sg8
g9
(g13
S'7\x00\x00\x00'
p1420
tp1421
Rp1422
sg19
S's'
p1423
sg21
g92
sg23
F-78.84765625
sg24
g92
sg26
I2
sg27
g9
(g13
S'-\x00\x00\x00'
p1424
tp1425
Rp1426
sg31
F813.6177831374071
sg32
g9
(g13
S'K\x00\x00\x00'
p1427
tp1428
Rp1429
sg36
g9
(g13
S'\xb0\xff\xff\xff'
p1430
tp1431
Rp1432
sg40
I1
sg41
I0
sg42
I0
sg43
I-1
sg44
F-1.0
sasS'eventArray'
p1433
(lp1434
(lp1435
S'trial 0 started at 127.925317551'
p1436
aS'trial 0 phase 6 started at 131.621107818'
p1437
aS'trial 0 event s at 133.762783929'
p1438
aS'staircase 0 updated from 70.000000 to 70.000000 after response 1 at 133.762799'
p1439
aa(lp1440
S'trial 1 started at 135.0286113'
p1441
aS'trial 1 phase 6 started at 138.220746328'
p1442
aS'trial 1 event l at 139.162472899'
p1443
aS'staircase 3 updated from 3.000000 to 4.000000 after response 0 at 139.162487'
p1444
aa(lp1445
S'trial 2 started at 141.627802224'
p1446
aS'trial 2 phase 6 started at 145.320399235'
p1447
aS'trial 2 event j at 146.103776116'
p1448
aS'staircase 2 updated from 3.000000 to 3.000000 after response 1 at 146.103789'
p1449
aa(lp1450
S'trial 3 started at 148.725921365'
p1451
aS'trial 3 phase 6 started at 151.92000268'
p1452
aS'trial 3 event f at 152.661758899'
p1453
aS'staircase 0 updated from 70.000000 to 85.000000 after response 0 at 152.661773'
p1454
aa(lp1455
S'trial 4 started at 155.324982004'
p1456
aS'trial 4 phase 6 started at 159.019630784'
p1457
aS'trial 4 event l at 159.728080896'
p1458
aS'staircase 2 updated from 3.000000 to 3.000000 after response 1 at 159.728103'
p1459
aa(lp1460
S'trial 5 started at 162.427050735'
p1461
aS'trial 5 phase 6 started at 165.619259031'
p1462
aS'trial 5 event l at 166.49435115'
p1463
aS'staircase 3 updated from 4.000000 to 4.000000 after response 1 at 166.494366'
p1464
aa(lp1465
S'trial 6 started at 169.026534158'
p1466
aS'trial 6 phase 6 started at 172.218898682'
p1467
aS'trial 6 event s at 173.985599986'
p1468
aS'staircase 0 updated from 85.000000 to 100.000000 after response 0 at 173.985613'
p1469
aa(lp1470
S'trial 7 started at 175.629993115'
p1471
aS'trial 7 phase 6 started at 178.818550021'
p1472
aS'trial 7 event s at 181.476892441'
p1473
aS'staircase 1 updated from 70.000000 to 70.000000 after response 1 at 181.476907'
p1474
aa(lp1475
S'trial 8 started at 182.226994288'
p1476
aS'trial 8 phase 6 started at 185.918179265'
p1477
aS'trial 8 event f at 188.343248078'
p1478
aS'staircase 1 updated from 70.000000 to 85.000000 after response 0 at 188.343262'
p1479
aa(lp1480
S'trial 9 started at 189.32465786'
p1481
aS'trial 9 phase 6 started at 193.017766032'
p1482
aS'trial 9 event s at 194.434472682'
p1483
aS'staircase 0 updated from 100.000000 to 100.000000 after response 1 at 194.434498'
p1484
aa(lp1485
S'trial 10 started at 196.428286586'
p1486
aS'trial 10 phase 6 started at 199.617418512'
p1487
aS'trial 10 event l at 200.334239624'
p1488
aS'staircase 3 updated from 4.000000 to 4.000000 after response 1 at 200.334252'
p1489
aa(lp1490
S'trial 11 started at 203.026970341'
p1491
aS'trial 11 phase 6 started at 206.717025234'
p1492
aS'trial 11 event l at 207.475459025'
p1493
aS'staircase 2 updated from 3.000000 to 2.000000 after response 1 at 207.475472'
p1494
aa(lp1495
S'trial 12 started at 210.128236268'
p1496
aS'trial 12 phase 6 started at 213.816645642'
p1497
aS'trial 12 event s at 215.358394164'
p1498
aS'staircase 1 updated from 85.000000 to 85.000000 after response 1 at 215.358409'
p1499
aa(lp1500
S'trial 13 started at 217.233421568'
p1501
aS'trial 13 phase 6 started at 220.424603266'
p1502
aS'trial 13 event s at 221.524713167'
p1503
aS'staircase 0 updated from 100.000000 to 111.250000 after response 0 at 221.524728'
p1504
aa(lp1505
S'trial 14 started at 223.830698705'
p1506
aS'trial 14 phase 6 started at 227.024261162'
p1507
aS'trial 14 event l at 227.624391732'
p1508
aS'staircase 2 updated from 2.000000 to 2.000000 after response 1 at 227.624405'
p1509
aa(lp1510
S'trial 15 started at 230.434659129'
p1511
aS'trial 15 phase 6 started at 233.623892545'
p1512
aS'trial 15 event l at 234.415649264'
p1513
aS'staircase 2 updated from 2.000000 to 2.000000 after response 1 at 234.415664'
p1514
aa(lp1515
S'trial 16 started at 237.03538724'
p1516
aS'trial 16 phase 6 started at 240.231898635'
p1517
aS'trial 16 event s at 241.09032373'
p1518
aS'staircase 0 updated from 111.250000 to 122.500000 after response 0 at 241.090337'
p1519
aa(lp1520
S'trial 17 started at 243.644691615'
p1521
aS'trial 17 phase 6 started at 246.839864242'
p1522
aS'trial 17 event f at 247.989946133'
p1523
aS'staircase 0 updated from 122.500000 to 133.750000 after response 0 at 247.989959'
p1524
aa(lp1525
S'trial 18 started at 250.251683936'
p1526
aS'trial 18 phase 6 started at 253.447840112'
p1527
aS'trial 18 event f at 254.897925567'
p1528
aS'staircase 0 updated from 133.750000 to 145.000000 after response 0 at 254.897939'
p1529
aa(lp1530
S'trial 19 started at 256.860177238'
p1531
aS'trial 19 phase 6 started at 260.055815412'
p1532
aS'trial 19 event l at 261.422542375'
p1533
aS'staircase 2 updated from 2.000000 to 1.000000 after response 1 at 261.422558'
p1534
aa(lp1535
S'trial 20 started at 263.469485604'
p1536
aS'trial 20 phase 6 started at 266.66378501'
p1537
aS'trial 20 event f at 267.822198845'
p1538
aS'staircase 0 updated from 145.000000 to 156.250000 after response 0 at 267.822213'
p1539
aa(lp1540
S'trial 21 started at 270.07591716'
p1541
aS'trial 21 phase 6 started at 273.77171712'
p1542
aS'trial 21 event f at 274.613519096'
p1543
aS'staircase 1 updated from 85.000000 to 96.250000 after response 0 at 274.613533'
p1544
aa(lp1545
S'trial 22 started at 277.187625812'
p1546
aS'trial 22 phase 6 started at 280.879673747'
p1547
aS'trial 22 event f at 281.829757634'
p1548
aS'staircase 1 updated from 96.250000 to 96.250000 after response 1 at 281.829774'
p1549
aa(lp1550
S'trial 23 started at 284.294420711'
p1551
aS'trial 23 phase 6 started at 287.487658455'
p1552
aS'trial 23 event f at 289.129414247'
p1553
aS'staircase 0 updated from 156.250000 to 167.500000 after response 0 at 289.129429'
p1554
aa(lp1555
S'trial 24 started at 290.902297656'
p1556
aS'trial 24 phase 6 started at 294.595610805'
p1557
aS'trial 24 event l at 295.495705312'
p1558
aS'staircase 2 updated from 1.000000 to 1.000000 after response 1 at 295.495718'
p1559
aa(lp1560
S'trial 25 started at 298.011685418'
p1561
aS'trial 25 phase 6 started at 301.203564154'
p1562
aS'trial 25 event f at 303.136935404'
p1563
aS'staircase 0 updated from 167.500000 to 178.750000 after response 0 at 303.136949'
p1564
aa(lp1565
S'trial 26 started at 304.632924662'
p1566
aS'trial 26 phase 6 started at 307.828211323'
p1567
aS'trial 26 event s at 309.303288047'
p1568
aS'staircase 1 updated from 96.250000 to 96.250000 after response 1 at 309.303301'
p1569
aa(lp1570
S'trial 27 started at 311.245889264'
p1571
aS'trial 27 phase 6 started at 314.436199452'
p1572
aS'trial 27 event s at 315.477960661'
p1573
aS'staircase 1 updated from 96.250000 to 87.812500 after response 1 at 315.477975'
p1574
aa(lp1575
S'trial 28 started at 317.848827367'
p1576
aS'trial 28 phase 6 started at 321.044172472'
p1577
aS'trial 28 event f at 321.99429399'
p1578
aS'staircase 1 updated from 87.812500 to 87.812500 after response 1 at 321.994307'
p1579
aa(lp1580
S'trial 29 started at 324.45674565'
p1581
aS'trial 29 phase 6 started at 327.652130382'
p1582
aS'trial 29 event l at 328.435556012'
p1583
aS'staircase 3 updated from 4.000000 to 3.000000 after response 1 at 328.435569'
p1584
aa(lp1585
S'trial 30 started at 331.070486828'
p1586
aS'trial 30 phase 6 started at 334.260143598'
p1587
aS'trial 30 event l at 334.876891016'
p1588
aS'staircase 3 updated from 3.000000 to 3.000000 after response 1 at 334.876905'
p1589
aa(lp1590
S'trial 31 started at 337.676708845'
p1591
aS'trial 31 phase 6 started at 341.368078273'
p1592
aS'trial 31 event f at 342.384830252'
p1593
aS'staircase 0 updated from 178.750000 to 190.000000 after response 0 at 342.384843'
p1594
aa(lp1595
S'trial 32 started at 344.789826967'
p1596
aS'trial 32 phase 6 started at 348.484382239'
p1597
aS'trial 32 event l at 349.092776901'
p1598
aS'staircase 3 updated from 3.000000 to 3.000000 after response 1 at 349.092790'
p1599
aa(lp1600
S'trial 33 started at 351.928806157'
p1601
aS'trial 33 phase 6 started at 355.117339685'
p1602
aS'trial 33 event f at 356.159101464'
p1603
aS'staircase 0 updated from 190.000000 to 201.250000 after response 0 at 356.159114'
p1604
aa(lp1605
S'trial 34 started at 358.535046419'
p1606
aS'trial 34 phase 6 started at 361.725310994'
p1607
aS'trial 34 event f at 363.608671197'
p1608
aS'staircase 1 updated from 87.812500 to 96.250000 after response 0 at 363.608685'
p1609
aa(lp1610
S'trial 35 started at 365.143350424'
p1611
aS'trial 35 phase 6 started at 368.333273465'
p1612
aS'trial 35 event f at 369.933345307'
p1613
aa(lp1614
S'trial 36 started at 371.750946844'
p1615
aS'trial 36 phase 6 started at 374.94124734'
p1616
aS'trial 36 event f at 376.107992833'
p1617
aS'staircase 0 updated from 201.250000 to 201.250000 after response 1 at 376.108007'
p1618
aa(lp1619
S'trial 37 started at 378.362958402'
p1620
aS'trial 37 phase 6 started at 382.057543608'
p1621
aS'trial 37 event s at 383.240957264'
p1622
aS'staircase 1 updated from 96.250000 to 96.250000 after response 1 at 383.240974'
p1623
aa(lp1624
S'trial 38 started at 385.474494577'
p1625
aS'trial 38 phase 6 started at 389.165489401'
p1626
aS'trial 38 event f at 390.190583587'
p1627
aa(lp1628
S'trial 39 started at 392.585408693'
p1629
aS'trial 39 phase 6 started at 395.781800636'
p1630
aS'trial 39 event l at 396.556876077'
p1631
aS'staircase 3 updated from 3.000000 to 2.000000 after response 1 at 396.556890'
p1632
aa(lp1633
S'trial 40 started at 399.201868173'
p1634
aS'trial 40 phase 6 started at 402.898114294'
p1635
aS'trial 40 event f at 405.364767562'
p1636
aS'staircase 0 updated from 201.250000 to 209.687500 after response 0 at 405.364781'
p1637
aa(lp1638
S'trial 41 started at 406.317142975'
p1639
aS'trial 41 phase 6 started at 409.506050252'
p1640
aS'trial 41 event l at 411.731099964'
p1641
aS'staircase 2 updated from 1.000000 to 1.000000 after response 1 at 411.731114'
p1642
aa(lp1643
S'trial 42 started at 412.9288512'
p1644
aS'trial 42 phase 6 started at 416.122393702'
p1645
aS'trial 42 event l at 417.855731597'
p1646
aS'staircase 3 updated from 2.000000 to 3.000000 after response 0 at 417.855748'
p1647
aa(lp1648
S'trial 43 started at 419.542427314'
p1649
aS'trial 43 phase 6 started at 423.238642645'
p1650
aS'trial 43 event s at 424.730365866'
p1651
aS'staircase 1 updated from 96.250000 to 96.250000 after response 1 at 424.730379'
p1652
aa(lp1653
S'trial 44 started at 426.660529035'
p1654
aS'trial 44 phase 6 started at 429.854955591'
p1655
aS'trial 44 event f at 431.596673894'
p1656
aa(lp1657
S'trial 45 started at 433.293559179'
p1658
aS'trial 45 phase 6 started at 436.487930142'
p1659
aS'trial 45 event l at 437.263076285'
p1660
aS'staircase 3 updated from 3.000000 to 3.000000 after response 1 at 437.263091'
p1661
aa(lp1662
S'trial 46 started at 439.922516859'
p1663
aS'trial 46 phase 6 started at 443.112559637'
p1664
aS'trial 46 event f at 444.637545347'
p1665
aS'staircase 0 updated from 209.687500 to 209.687500 after response 1 at 444.637561'
p1666
aa(lp1667
S'trial 47 started at 446.553504927'
p1668
aS'trial 47 phase 6 started at 450.245496984'
p1669
aS'trial 47 event l at 450.920636998'
p1670
aS'staircase 3 updated from 3.000000 to 3.000000 after response 1 at 450.920660'
p1671
aa(lp1672
S'trial 48 started at 453.683151804'
p1673
aS'trial 48 phase 6 started at 456.878512874'
p1674
aS'trial 48 event f at 458.795194579'
p1675
aS'staircase 0 updated from 209.687500 to 216.015625 after response 0 at 458.795209'
p1676
aa(lp1677
S'trial 49 started at 460.314045793'
p1678
aS'trial 49 phase 6 started at 463.503099035'
p1679
aS'trial 49 event s at 465.278204125'
p1680
aS'staircase 1 updated from 96.250000 to 89.921875 after response 1 at 465.278218'
p1681
aa(lp1682
S'trial 50 started at 466.948725734'
p1683
aS'trial 50 phase 6 started at 470.144400113'
p1684
aS'trial 50 event l at 470.944536955'
p1685
aS'staircase 3 updated from 3.000000 to 3.750000 after response 0 at 470.944551'
p1686
aa(lp1687
S'trial 51 started at 473.583450718'
p1688
aS'trial 51 phase 6 started at 476.777433393'
p1689
aS'trial 51 event l at 478.094190076'
p1690
aS'staircase 3 updated from 3.750000 to 4.312500 after response 0 at 478.094204'
p1691
aa(lp1692
S'trial 52 started at 480.215487334'
p1693
aS'trial 52 phase 6 started at 483.910391552'
p1694
aS'trial 52 event f at 485.202136155'
p1695
aS'staircase 0 updated from 216.015625 to 216.015625 after response 1 at 485.202152'
p1696
aa(lp1697
S'trial 53 started at 487.350389215'
p1698
aS'trial 53 phase 6 started at 491.043310085'
p1699
aS'trial 53 event f at 492.726698226'
p1700
aS'staircase 0 updated from 216.015625 to 220.761719 after response 0 at 492.726712'
p1701
aa(lp1702
S'trial 54 started at 494.4802921'
p1703
aS'trial 54 phase 6 started at 497.6762815'
p1704
aS'trial 54 event j at 498.934694337'
p1705
aS'staircase 2 updated from 1.000000 to 0.000000 after response 1 at 498.934708'
p1706
aa(lp1707
S'trial 55 started at 501.119190753'
p1708
aS'trial 55 phase 6 started at 504.809231107'
p1709
aS'trial 55 event l at 506.034295358'
p1710
aS'staircase 3 updated from 4.312500 to 4.875000 after response 0 at 506.034309'
p1711
aa(lp1712
S'trial 56 started at 508.247281057'
p1713
aS'trial 56 phase 6 started at 511.442221338'
p1714
aS'trial 56 event j at 512.20894488'
p1715
aS'staircase 3 updated from 4.875000 to 4.875000 after response 1 at 512.208960'
p1716
aa(lp1717
S'trial 57 started at 514.8842568'
p1718
aS'trial 57 phase 6 started at 518.575156976'
p1719
aS'trial 57 event j at 519.616918755'
p1720
aS'staircase 2 updated from 0.000000 to 0.000000 after response 1 at 519.616934'
p1721
aa(lp1722
S'trial 58 started at 522.013976375'
p1723
aS'trial 58 phase 6 started at 525.708061824'
p1724
aS'trial 58 event s at 527.533169408'
p1725
aS'staircase 1 updated from 89.921875 to 89.921875 after response 1 at 527.533183'
p1726
aa(lp1727
S'trial 59 started at 529.147280059'
p1728
aS'trial 59 phase 6 started at 532.84104108'
p1729
aS'trial 59 event j at 533.666120155'
p1730
aS'staircase 2 updated from 0.000000 to 1.000000 after response 0 at 533.666134'
p1731
aa(lp1732
S'trial 60 started at 536.286814313'
p1733
aS'trial 60 phase 6 started at 539.482367816'
p1734
aS'trial 60 event f at 541.349088934'
p1735
aS'staircase 0 updated from 220.761719 to 220.761719 after response 1 at 541.349104'
p1736
aa(lp1737
S'trial 61 started at 542.92381657'
p1738
aS'trial 61 phase 6 started at 546.615294046'
p1739
aS'trial 61 event l at 547.832044599'
p1740
aS'staircase 2 updated from 1.000000 to 1.000000 after response 1 at 547.832060'
p1741
aa(lp1742
S'trial 62 started at 550.056370191'
p1743
aS'trial 62 phase 6 started at 553.248263466'
p1744
aS'trial 62 event f at 555.006645371'
p1745
aS'staircase 1 updated from 89.921875 to 89.921875 after response 1 at 555.006658'
p1746
aa(lp1747
S'trial 63 started at 556.697658726'
p1748
aS'trial 63 phase 6 started at 559.889567965'
p1749
aS'trial 63 event l at 560.714637633'
p1750
aS'staircase 3 updated from 4.875000 to 4.875000 after response 1 at 560.714651'
p1751
aa(lp1752
S'trial 64 started at 563.331297814'
p1753
aS'trial 64 phase 6 started at 566.522544228'
p1754
aS'trial 64 event s at 568.164262673'
p1755
aS'staircase 1 updated from 89.921875 to 83.593750 after response 1 at 568.164277'
p1756
aa(lp1757
S'trial 65 started at 569.968045203'
p1758
aS'trial 65 phase 6 started at 573.663824923'
p1759
aS'trial 65 event l at 574.888901718'
p1760
aS'staircase 3 updated from 4.875000 to 5.437500 after response 0 at 574.888917'
p1761
aa(lp1762
S'trial 66 started at 577.106764679'
p1763
aS'trial 66 phase 6 started at 580.796782512'
p1764
aS'trial 66 event s at 583.113491585'
p1765
aa(lp1766
S'trial 67 started at 584.239575164'
p1767
aS'trial 67 phase 6 started at 587.429746515'
p1768
aS'trial 67 event j at 588.446597134'
p1769
aS'staircase 2 updated from 1.000000 to 1.000000 after response 1 at 588.446610'
p1770
aa(lp1771
S'trial 68 started at 590.872318225'
p1772
aS'trial 68 phase 6 started at 594.062738172'
p1773
aS'trial 68 event j at 595.312807662'
p1774
aS'staircase 2 updated from 1.000000 to 1.750000 after response 0 at 595.312821'
p1775
aa(lp1776
S'trial 69 started at 597.507876232'
p1777
aS'trial 69 phase 6 started at 601.204019437'
p1778
aS'trial 69 event j at 602.220781679'
p1779
aS'staircase 3 updated from 5.437500 to 5.437500 after response 1 at 602.220796'
p1780
aa(lp1781
S'trial 70 started at 604.654127984'
p1782
aS'trial 70 phase 6 started at 608.345352588'
p1783
aS'trial 70 event j at 609.320372722'
p1784
aS'staircase 2 updated from 1.750000 to 2.500000 after response 0 at 609.320386'
p1785
aa(lp1786
S'trial 71 started at 611.790287382'
p1787
aS'trial 71 phase 6 started at 614.986572702'
p1788
aS'trial 71 event f at 617.119984149'
p1789
aS'staircase 0 updated from 220.761719 to 220.761719 after response 1 at 617.120007'
p1790
aa(lp1791
S'trial 72 started at 618.430069233'
p1792
aS'trial 72 phase 6 started at 621.619580324'
p1793
aS'trial 72 event s at 623.561300908'
p1794
aS'staircase 1 updated from 83.593750 to 83.593750 after response 1 at 623.561314'
p1795
aa(lp1796
S'trial 73 started at 625.064475205'
p1797
aS'trial 73 phase 6 started at 628.760835931'
p1798
aS'trial 73 event l at 629.536029113'
p1799
aS'staircase 3 updated from 5.437500 to 5.437500 after response 1 at 629.536043'
p1800
aa(lp1801
S'trial 74 started at 632.206491424'
p1802
aS'trial 74 phase 6 started at 635.902138578'
p1803
aS'trial 74 event j at 637.143865291'
p1804
aS'staircase 3 updated from 5.437500 to 5.015625 after response 1 at 637.143880'
p1805
aa(lp1806
S'trial 75 started at 639.350827963'
p1807
aS'trial 75 phase 6 started at 642.543444503'
p1808
aS'trial 75 event s at 643.501889412'
p1809
aS'staircase 1 updated from 83.593750 to 83.593750 after response 1 at 643.501902'
p1810
aa(lp1811
S'trial 76 started at 645.990298785'
p1812
aS'trial 76 phase 6 started at 649.684738027'
p1813
aS'trial 76 event s at 651.618105856'
p1814
aS'staircase 1 updated from 83.593750 to 77.265625 after response 1 at 651.618121'
p1815
aa(lp1816
S'trial 77 started at 653.133739297'
p1817
aS'trial 77 phase 6 started at 656.326049939'
p1818
aS'trial 77 event j at 657.434496059'
p1819
aS'staircase 2 updated from 2.500000 to 2.500000 after response 1 at 657.434511'
p1820
aa(lp1821
S'trial 78 started at 659.771156925'
p1822
aS'trial 78 phase 6 started at 662.967350447'
p1823
aS'trial 78 event s at 665.117385014'
p1824
aS'staircase 1 updated from 77.265625 to 83.593750 after response 0 at 665.117400'
p1825
aa(lp1826
S'trial 79 started at 666.415629878'
p1827
aS'trial 79 phase 6 started at 670.108615462'
p1828
aS'trial 79 event j at 670.942073236'
p1829
aS'staircase 2 updated from 2.500000 to 3.062500 after response 0 at 670.942088'
p1830
aa(lp1831
S'trial 80 started at 673.560174245'
p1832
aS'trial 80 phase 6 started at 677.249916683'
p1833
aS'trial 80 event l at 678.466632456'
p1834
aS'staircase 2 updated from 3.062500 to 3.062500 after response 1 at 678.466649'
p1835
aa(lp1836
S'trial 81 started at 680.697861707'
p1837
aS'trial 81 phase 6 started at 683.891231161'
p1838
aS'trial 81 event f at 686.499543719'
p1839
aS'staircase 0 updated from 220.761719 to 217.202148 after response 1 at 686.499558'
p1840
aa(lp1841
S'trial 82 started at 687.337308867'
p1842
aS'trial 82 phase 6 started at 691.032490475'
p1843
aS'trial 82 event f at 692.199217722'
p1844
aS'staircase 0 updated from 217.202148 to 217.202148 after response 1 at 692.199231'
p1845
aa(lp1846
S'trial 83 started at 694.479329647'
p1847
aS'trial 83 phase 6 started at 698.173771169'
p1848
aS'trial 83 event l at 698.72388328'
p1849
aS'staircase 3 updated from 5.015625 to 5.015625 after response 1 at 698.723897'
p1850
aa(lp1851
S'trial 84 started at 701.623657634'
p1852
aS'trial 84 phase 6 started at 704.815084222'
p1853
aS'trial 84 event j at 706.831771486'
p1854
aS'staircase 2 updated from 3.062500 to 3.484375 after response 0 at 706.831787'
p1855
aa(lp1856
S'trial 85 started at 708.266503597'
p1857
aS'trial 85 phase 6 started at 711.956346386'
p1858
aS'trial 85 event f at 712.964780106'
p1859
aS'staircase 1 updated from 83.593750 to 83.593750 after response 1 at 712.964795'
p1860
aa(lp1861
S'trial 86 started at 715.406072061'
p1862
aS'trial 86 phase 6 started at 719.097648462'
p1863
aS'trial 86 event j at 720.256094797'
p1864
aS'staircase 2 updated from 3.484375 to 3.484375 after response 1 at 720.256110'
p1865
aa(lp1866
S'trial 87 started at 722.548522752'
p1867
aS'trial 87 phase 6 started at 726.238973631'
p1868
aS'trial 87 event j at 726.930701983'
p1869
aS'staircase 2 updated from 3.484375 to 3.484375 after response 1 at 726.930716'
p1870
aa(lp1871
S'trial 88 started at 729.689332199'
p1872
aS'trial 88 phase 6 started at 732.880237648'
p1873
aS'trial 88 event l at 733.563664561'
p1874
aS'staircase 3 updated from 5.015625 to 5.015625 after response 1 at 733.563677'
p1875
aa(lp1876
S'trial 89 started at 736.328163571'
p1877
aS'trial 89 phase 6 started at 740.021501523'
p1878
aS'trial 89 event f at 741.363274848'
p1879
aS'staircase 1 updated from 83.593750 to 83.593750 after response 1 at 741.363288'
p1880
aa(lp1881
S'trial 90 started at 743.476275228'
p1882
aS'trial 90 phase 6 started at 747.17114096'
p1883
aS'trial 90 event j at 748.004545137'
p1884
aS'staircase 2 updated from 3.484375 to 3.167969 after response 1 at 748.004559'
p1885
aa(lp1886
S'trial 91 started at 750.618758704'
p1887
aS'trial 91 phase 6 started at 754.312422225'
p1888
aS'trial 91 event j at 755.295853557'
p1889
aS'staircase 2 updated from 3.167969 to 3.484375 after response 0 at 755.295868'
p1890
aa(lp1891
S'trial 92 started at 757.762174698'
p1892
aS'trial 92 phase 6 started at 761.453663008'
p1893
aS'trial 92 event f at 763.370411138'
p1894
aS'staircase 0 updated from 217.202148 to 220.761719 after response 0 at 763.370426'
p1895
aa(lp1896
S'trial 93 started at 764.906669461'
p1897
aS'trial 93 phase 6 started at 768.603307006'
p1898
aS'trial 93 event l at 769.345088883'
p1899
aS'staircase 3 updated from 5.015625 to 4.593750 after response 1 at 769.345104'
p1900
aa(lp1901
S'trial 94 started at 772.051970163'
p1902
aS'trial 94 phase 6 started at 775.744595113'
p1903
aS'trial 94 event l at 776.603040735'
p1904
aS'staircase 3 updated from 4.593750 to 4.593750 after response 1 at 776.603054'
p1905
aa(lp1906
S'trial 95 started at 779.195734818'
p1907
aS'trial 95 phase 6 started at 782.385918428'
p1908
aS'trial 95 event j at 783.352677605'
p1909
aa(lp1910
S'trial 96 started at 785.835737897'
p1911
aS'trial 96 phase 6 started at 789.527179737'
p1912
aS'trial 96 event f at 791.577229271'
p1913
aS'staircase 0 updated from 220.761719 to 220.761719 after response 1 at 791.577245'
p1914
aa(lp1915
S'trial 97 started at 792.986797635'
p1916
aS'trial 97 phase 6 started at 796.676787814'
p1917
aS'trial 97 event f at 798.560171109'
p1918
aS'staircase 1 updated from 83.593750 to 78.847656 after response 1 at 798.560184'
p1919
aa(lp1920
S'trial 98 started at 800.131036675'
p1921
aS'trial 98 phase 6 started at 803.826422404'
p1922
aS'trial 98 event s at 805.426458895'
p1923
aS'staircase 1 updated from 78.847656 to 78.847656 after response 1 at 805.426472'
p1924
aa(lp1925
S'trial 99 started at 807.277879981'
p1926
aS'trial 99 phase 6 started at 810.467719777'
p1927
aS'trial 99 event s at 812.142746041'
p1928
aS'staircase 1 updated from 78.847656 to 78.847656 after response 1 at 812.142759'
p1929
aasS'trialResponses'
p1930
(lp1931
s.