(dp0
S'parameterArray'
p1
(lp2
(dp3
S'reaction_time'
p4
F2.0250060937287344
sS'trial_start'
p5
F65.55679767825404
sS'task'
p6
I1
sS'trial_orientation'
p7
F3.0
sS'base_color_lum'
p8
cnumpy.core.multiarray
scalar
p9
(cnumpy
dtype
p10
(S'i4'
p11
I0
I1
tp12
Rp13
(I3
S'<'
p14
NNNI-1
I-1
I0
tp15
bS'7\x00\x00\x00'
p16
tp17
Rp18
sS'button'
p19
S's'
p20
sS'trial_cue'
p21
S'red135'
p22
sS'trial_color'
p23
I70
sS'trial_stimulus_label'
p24
g22
sS'trial_stimulus'
p25
I1
sS'base_ori'
p26
g9
(g13
S'\x87\x00\x00\x00'
p27
tp28
Rp29
sS'trial_end'
p30
F72.40181514694086
sS'base_color_b'
p31
g9
(g13
S'K\x00\x00\x00'
p32
tp33
Rp34
sS'base_color_a'
p35
g9
(g13
S'P\x00\x00\x00'
p36
tp37
Rp38
sS'correct_answer'
p39
I1
sS'trial_position_y'
p40
I0
sS'trial_position_x'
p41
I0
sS'response'
p42
I-1
sS'trial_direction'
p43
F-1.0
sa(dp44
g4
F0.9334573460428146
sg5
F72.66775911885361
sg6
I1
sg7
F-3.0
sg8
g9
(g13
S'7\x00\x00\x00'
p45
tp46
Rp47
sg19
S's'
p48
sg21
S'red45'
p49
sg23
I70
sg24
g49
sg25
I0
sg26
g9
(g13
S'-\x00\x00\x00'
p50
tp51
Rp52
sg30
F79.50977890101876
sg31
g9
(g13
S'K\x00\x00\x00'
p53
tp54
Rp55
sg35
g9
(g13
S'P\x00\x00\x00'
p56
tp57
Rp58
sg39
I1
sg40
I0
sg41
I0
sg42
I-1
sg43
F-1.0
sa(dp59
g4
F1.441722436749842
sg5
F79.76444626899865
sg6
I1
sg7
F3.0
sg8
g9
(g13
S'7\x00\x00\x00'
p60
tp61
Rp62
sg19
S'f'
p63
sg21
S'green45'
p64
sg23
I-70
sg24
g64
sg25
I2
sg26
g9
(g13
S'-\x00\x00\x00'
p65
tp66
Rp67
sg30
F86.60940044844119
sg31
g9
(g13
S'K\x00\x00\x00'
p68
tp69
Rp70
sg35
g9
(g13
S'\xb0\xff\xff\xff'
p71
tp72
Rp73
sg39
I1
sg40
I0
sg41
I0
sg42
I1
sg43
F1.0
sa(dp74
g4
F2.1417345529343947
sg5
F86.86800315305845
sg6
I1
sg7
F-3.0
sg8
g9
(g13
S'7\x00\x00\x00'
p75
tp76
Rp77
sg19
S's'
p78
sg21
g22
sg23
I70
sg24
g22
sg25
I1
sg26
g9
(g13
S'\x87\x00\x00\x00'
p79
tp80
Rp81
sg30
F93.20904922164209
sg31
g9
(g13
S'K\x00\x00\x00'
p82
tp83
Rp84
sg35
g9
(g13
S'P\x00\x00\x00'
p85
tp86
Rp87
sg39
I0
sg40
I0
sg41
I0
sg42
I-1
sg43
F1.0
sa(dp88
g4
F0.7834202135009036
sg5
F93.46692752098534
sg6
I2
sg7
F-3.0
sg8
g9
(g13
S'7\x00\x00\x00'
p89
tp90
Rp91
sg19
S'l'
p92
sg21
g22
sg23
I85
sg24
g22
sg25
I1
sg26
g9
(g13
S'\x87\x00\x00\x00'
p93
tp94
Rp95
sg30
F100.30866791819699
sg31
g9
(g13
S'K\x00\x00\x00'
p96
tp97
Rp98
sg35
g9
(g13
S'P\x00\x00\x00'
p99
tp100
Rp101
sg39
I0
sg40
I0
sg41
I0
sg42
I1
sg43
F-1.0
sa(dp102
g4
F0.9334473680091833
sg5
F100.56512933670274
sg6
I1
sg7
F-4.0
sg8
g9
(g13
S'7\x00\x00\x00'
p103
tp104
Rp105
sg19
S'f'
p106
sg21
g22
sg23
I-70
sg24
S'green135'
p107
sg25
I3
sg26
g9
(g13
S'\x87\x00\x00\x00'
p108
tp109
Rp110
sg30
F106.90829559498252
sg31
g9
(g13
S'K\x00\x00\x00'
p111
tp112
Rp113
sg35
g9
(g13
S'\xb0\xff\xff\xff'
p114
tp115
Rp116
sg39
I1
sg40
I0
sg41
I0
sg42
I1
sg43
F1.0
sa(dp117
g4
F1.1917401833961776
sg5
F107.17655190502046
sg6
I1
sg7
F-4.0
sg8
g9
(g13
S'7\x00\x00\x00'
p118
tp119
Rp120
sg19
S's'
p121
sg21
g49
sg23
I85
sg24
g22
sg25
I1
sg26
g9
(g13
S'\x87\x00\x00\x00'
p122
tp123
Rp124
sg30
F113.51628315380003
sg31
g9
(g13
S'K\x00\x00\x00'
p125
tp126
Rp127
sg35
g9
(g13
S'P\x00\x00\x00'
p128
tp129
Rp130
sg39
I0
sg40
I0
sg41
I0
sg42
I-1
sg43
F1.0
sa(dp131
g4
F0.6917882205025307
sg5
F113.77348978890768
sg6
I2
sg7
F3.0
sg8
g9
(g13
S'7\x00\x00\x00'
p132
tp133
Rp134
sg19
S'l'
p135
sg21
g64
sg23
I-70
sg24
g64
sg25
I2
sg26
g9
(g13
S'-\x00\x00\x00'
p136
tp137
Rp138
sg30
F120.61589500827449
sg31
g9
(g13
S'K\x00\x00\x00'
p139
tp140
Rp141
sg35
g9
(g13
S'\xb0\xff\xff\xff'
p142
tp143
Rp144
sg39
I1
sg40
I0
sg41
I0
sg42
I1
sg43
F1.0
sa(dp145
g4
F0.7251151393857072
sg5
F120.87540942011947
sg6
I2
sg7
F3.0
sg8
g9
(g13
S'7\x00\x00\x00'
p146
tp147
Rp148
sg19
S'l'
p149
sg21
g22
sg23
I100
sg24
g49
sg25
I0
sg26
g9
(g13
S'-\x00\x00\x00'
p150
tp151
Rp152
sg30
F127.21552268506002
sg31
g9
(g13
S'K\x00\x00\x00'
p153
tp154
Rp155
sg35
g9
(g13
S'P\x00\x00\x00'
p156
tp157
Rp158
sg39
I1
sg40
I0
sg41
I0
sg42
I1
sg43
F1.0
sa(dp159
g4
F0.6167653779330067
sg5
F127.47151542105166
sg6
I2
sg7
F3.0
sg8
g9
(g13
S'7\x00\x00\x00'
p160
tp161
Rp162
sg19
S'l'
p163
sg21
g107
sg23
I-70
sg24
g64
sg25
I2
sg26
g9
(g13
S'-\x00\x00\x00'
p164
tp165
Rp166
sg30
F134.31519070161266
sg31
g9
(g13
S'K\x00\x00\x00'
p167
tp168
Rp169
sg35
g9
(g13
S'\xb0\xff\xff\xff'
p170
tp171
Rp172
sg39
I1
sg40
I0
sg41
I0
sg42
I1
sg43
F1.0
sa(dp173
g4
F0.6917708302144092
sg5
F134.57630102873554
sg6
I2
sg7
F2.0
sg8
g9
(g13
S'7\x00\x00\x00'
p174
tp175
Rp176
sg19
S'l'
p177
sg21
g64
sg23
I100
sg24
g49
sg25
I0
sg26
g9
(g13
S'-\x00\x00\x00'
p178
tp179
Rp180
sg30
F140.9232267251664
sg31
g9
(g13
S'K\x00\x00\x00'
p181
tp182
Rp183
sg35
g9
(g13
S'P\x00\x00\x00'
p184
tp185
Rp186
sg39
I1
sg40
I0
sg41
I0
sg42
I1
sg43
F1.0
sa(dp187
g4
F0.6085098376288443
sg5
F141.18268526002066
sg6
I1
sg7
F2.0
sg8
g9
(g13
S'7\x00\x00\x00'
p188
tp189
Rp190
sg19
S'f'
p191
sg21
g64
sg23
I-70
sg24
g64
sg25
I2
sg26
g9
(g13
S'-\x00\x00\x00'
p192
tp193
Rp194
sg30
F147.52278056449995
sg31
g9
(g13
S'K\x00\x00\x00'
p195
tp196
Rp197
sg35
g9
(g13
S'\xb0\xff\xff\xff'
p198
tp199
Rp200
sg39
I1
sg40
I0
sg41
I0
sg42
I1
sg43
F1.0
sa(dp201
g4
F1.9250584071351113
sg5
F147.78043393044754
sg6
I2
sg7
F-4.0
sg8
g9
(g13
S'7\x00\x00\x00'
p202
tp203
Rp204
sg19
S'j'
p205
sg21
g107
sg23
I-55
sg24
g107
sg25
I3
sg26
g9
(g13
S'\x87\x00\x00\x00'
p206
tp207
Rp208
sg30
F154.12244615781492
sg31
g9
(g13
S'K\x00\x00\x00'
p209
tp210
Rp211
sg35
g9
(g13
S'\xb0\xff\xff\xff'
p212
tp213
Rp214
sg39
I1
sg40
I0
sg41
I0
sg42
I-1
sg43
F-1.0
sa(dp215
g5
F154.38465606429236
sg6
I1
sg7
F2.0
sg8
g9
(g13
S'7\x00\x00\x00'
p216
tp217
Rp218
sg21
g22
sg23
I100
sg24
g49
sg25
I0
sg26
g9
(g13
S'-\x00\x00\x00'
p219
tp220
Rp221
sg30
F160.73036330022023
sg31
g9
(g13
S'K\x00\x00\x00'
p222
tp223
Rp224
sg35
g9
(g13
S'P\x00\x00\x00'
p225
tp226
Rp227
sg40
I0
sg41
I0
sa(dp228
g4
F1.408398368734197
sg5
F160.98893350495564
sg6
I2
sg7
F-4.0
sg8
g9
(g13
S'7\x00\x00\x00'
p229
tp230
Rp231
sg19
S'l'
p232
sg21
g107
sg23
I-55
sg24
g107
sg25
I3
sg26
g9
(g13
S'\x87\x00\x00\x00'
p233
tp234
Rp235
sg30
F167.33004514347704
sg31
g9
(g13
S'K\x00\x00\x00'
p236
tp237
Rp238
sg35
g9
(g13
S'\xb0\xff\xff\xff'
p239
tp240
Rp241
sg39
I0
sg40
I0
sg41
I0
sg42
I1
sg43
F-1.0
sa(dp242
g4
F1.708338643073148
sg7
F5.0
sg5
F167.59223480879973
sg21
g49
sg25
I3
sg26
g9
(g13
S'\x87\x00\x00\x00'
p243
tp244
Rp245
sg30
F173.9379967813711
sg31
g9
(g13
S'K\x00\x00\x00'
p246
tp247
Rp248
sg35
g9
(g13
S'\xb0\xff\xff\xff'
p249
tp250
Rp251
sg40
I0
sg41
I0
sg42
I1
sg43
F1.0
sg6
I2
sg8
g9
(g13
S'7\x00\x00\x00'
p252
tp253
Rp254
sg19
S'l'
p255
sg23
I-55
sg24
g107
sg39
I1
sa(dp256
g4
F1.3917427491769558
sg5
F174.19956182176065
sg6
I1
sg7
F2.0
sg8
g9
(g13
S'7\x00\x00\x00'
p257
tp258
Rp259
sg19
S'f'
p260
sg21
g64
sg23
I-55
sg24
g64
sg25
I2
sg26
g9
(g13
S'-\x00\x00\x00'
p261
tp262
Rp263
sg30
F181.04596937313727
sg31
g9
(g13
S'K\x00\x00\x00'
p264
tp265
Rp266
sg35
g9
(g13
S'\xb0\xff\xff\xff'
p267
tp268
Rp269
sg39
I0
sg40
I0
sg41
I0
sg42
I1
sg43
F-1.0
sa(dp270
g4
F1.1167686564294854
sg5
F181.30787366668483
sg6
I1
sg7
F5.0
sg8
g9
(g13
S'7\x00\x00\x00'
p271
tp272
Rp273
sg19
S's'
p274
sg21
g22
sg23
I100
sg24
g22
sg25
I1
sg26
g9
(g13
S'\x87\x00\x00\x00'
p275
tp276
Rp277
sg30
F188.1539536534574
sg31
g9
(g13
S'K\x00\x00\x00'
p278
tp279
Rp280
sg35
g9
(g13
S'P\x00\x00\x00'
p281
tp282
Rp283
sg39
I0
sg40
I0
sg41
I0
sg42
I-1
sg43
F1.0
sa(dp284
g4
F0.7334710302038729
sg5
F188.4200988965722
sg6
I2
sg7
F2.0
sg8
g9
(g13
S'7\x00\x00\x00'
p285
tp286
Rp287
sg19
S'l'
p288
sg21
g64
sg23
I-70
sg24
g64
sg25
I2
sg26
g9
(g13
S'-\x00\x00\x00'
p289
tp290
Rp291
sg30
F195.26186096037145
sg31
g9
(g13
S'K\x00\x00\x00'
p292
tp293
Rp294
sg35
g9
(g13
S'\xb0\xff\xff\xff'
p295
tp296
Rp297
sg39
I1
sg40
I0
sg41
I0
sg42
I1
sg43
F1.0
sa(dp298
g4
F1.6584173982701031
sg5
F195.52753467010461
sg6
I1
sg7
F-2.0
sg8
g9
(g13
S'7\x00\x00\x00'
p299
tp300
Rp301
sg19
S'f'
p302
sg21
g49
sg23
I110
sg24
g49
sg25
I0
sg26
g9
(g13
S'-\x00\x00\x00'
p303
tp304
Rp305
sg30
F202.36981131537596
sg31
g9
(g13
S'K\x00\x00\x00'
p306
tp307
Rp308
sg35
g9
(g13
S'P\x00\x00\x00'
p309
tp310
Rp311
sg39
I0
sg40
I0
sg41
I0
sg42
I1
sg43
F-1.0
sa(dp312
g4
F0.7584637248573927
sg5
F202.63378932949036
sg6
I2
sg7
F2.0
sg8
g9
(g13
S'7\x00\x00\x00'
p313
tp314
Rp315
sg19
S'l'
p316
sg21
g64
sg23
I-70
sg24
g64
sg25
I2
sg26
g9
(g13
S'-\x00\x00\x00'
p317
tp318
Rp319
sg30
F209.4777673721137
sg31
g9
(g13
S'K\x00\x00\x00'
p320
tp321
Rp322
sg35
g9
(g13
S'\xb0\xff\xff\xff'
p323
tp324
Rp325
sg39
I1
sg40
I0
sg41
I0
sg42
I1
sg43
F1.0
sa(dp326
g4
F0.8667946705891154
sg5
F209.7410013099734
sg6
I2
sg7
F-5.0
sg8
g9
(g13
S'7\x00\x00\x00'
p327
tp328
Rp329
sg19
S'j'
p330
sg21
g107
sg23
I110
sg24
g22
sg25
I1
sg26
g9
(g13
S'\x87\x00\x00\x00'
p331
tp332
Rp333
sg30
F216.5857000517426
sg31
g9
(g13
S'K\x00\x00\x00'
p334
tp335
Rp336
sg35
g9
(g13
S'P\x00\x00\x00'
p337
tp338
Rp339
sg39
I1
sg40
I0
sg41
I0
sg42
I-1
sg43
F-1.0
sa(dp340
g4
F0.9000685633482135
sg5
F216.85220649969142
sg6
I2
sg7
F-5.0
sg8
g9
(g13
S'7\x00\x00\x00'
p341
tp342
Rp343
sg19
S'l'
p344
sg21
g22
sg23
I110
sg24
g22
sg25
I1
sg26
g9
(g13
S'\x87\x00\x00\x00'
p345
tp346
Rp347
sg30
F223.69368290662987
sg31
g9
(g13
S'K\x00\x00\x00'
p348
tp349
Rp350
sg35
g9
(g13
S'P\x00\x00\x00'
p351
tp352
Rp353
sg39
I0
sg40
I0
sg41
I0
sg42
I1
sg43
F-1.0
sa(dp354
g4
F1.6667627408805856
sg5
F223.95928705521146
sg6
I1
sg7
F5.85
sg8
g9
(g13
S'7\x00\x00\x00'
p355
tp356
Rp357
sg19
S's'
p358
sg21
g107
sg23
I110
sg24
g22
sg25
I1
sg26
g9
(g13
S'\x87\x00\x00\x00'
p359
tp360
Rp361
sg30
F230.30164908394545
sg31
g9
(g13
S'K\x00\x00\x00'
p362
tp363
Rp364
sg35
g9
(g13
S'P\x00\x00\x00'
p365
tp366
Rp367
sg39
I0
sg40
I0
sg41
I0
sg42
I-1
sg43
F1.0
sa(dp368
g4
F1.1167569678746077
sg5
F230.5647644257424
sg6
I1
sg7
F-5.85
sg8
g9
(g13
S'7\x00\x00\x00'
p369
tp370
Rp371
sg19
S'f'
p372
sg21
g64
sg23
I-70
sg24
g107
sg25
I3
sg26
g9
(g13
S'\x87\x00\x00\x00'
p373
tp374
Rp375
sg30
F237.40961312311083
sg31
g9
(g13
S'K\x00\x00\x00'
p376
tp377
Rp378
sg35
g9
(g13
S'\xb0\xff\xff\xff'
p379
tp380
Rp381
sg39
I0
sg40
I0
sg41
I0
sg42
I1
sg43
F-1.0
sa(dp382
g4
F1.5334439469679637
sg5
F237.67503139517066
sg6
I1
sg7
F5.85
sg8
g9
(g13
S'7\x00\x00\x00'
p383
tp384
Rp385
sg19
S's'
p386
sg21
g22
sg23
I110
sg24
g22
sg25
I1
sg26
g9
(g13
S'\x87\x00\x00\x00'
p387
tp388
Rp389
sg30
F244.01755991453138
sg31
g9
(g13
S'K\x00\x00\x00'
p390
tp391
Rp392
sg35
g9
(g13
S'P\x00\x00\x00'
p393
tp394
Rp395
sg39
I0
sg40
I0
sg41
I0
sg42
I-1
sg43
F1.0
sa(dp396
g4
F2.066665811407802
sg5
F244.2841156824761
sg6
I1
sg7
F-1.0
sg8
g9
(g13
S'7\x00\x00\x00'
p397
tp398
Rp399
sg19
S'f'
p400
sg21
g64
sg23
I-85
sg24
g64
sg25
I2
sg26
g9
(g13
S'-\x00\x00\x00'
p401
tp402
Rp403
sg30
F251.12549658537318
sg31
g9
(g13
S'K\x00\x00\x00'
p404
tp405
Rp406
sg35
g9
(g13
S'\xb0\xff\xff\xff'
p407
tp408
Rp409
sg39
I1
sg40
I0
sg41
I0
sg42
I1
sg43
F1.0
sa(dp410
g4
F1.4417783137414517
sg5
F251.39042735919975
sg6
I1
sg7
F1.0
sg8
g9
(g13
S'7\x00\x00\x00'
p411
tp412
Rp413
sg19
S's'
p414
sg21
g49
sg23
I110
sg24
g49
sg25
I0
sg26
g9
(g13
S'-\x00\x00\x00'
p415
tp416
Rp417
sg30
F258.2334358219978
sg31
g9
(g13
S'K\x00\x00\x00'
p418
tp419
Rp420
sg35
g9
(g13
S'P\x00\x00\x00'
p421
tp422
Rp423
sg39
I0
sg40
I0
sg41
I0
sg42
I-1
sg43
F1.0
sa(dp424
g4
F2.1750360991009074
sg5
F258.500048892367
sg6
I2
sg7
F-1.0
sg8
g9
(g13
S'7\x00\x00\x00'
p425
tp426
Rp427
sg19
S'l'
p428
sg21
g49
sg23
I110
sg24
g49
sg25
I0
sg26
g9
(g13
S'-\x00\x00\x00'
p429
tp430
Rp431
sg30
F265.3413952997762
sg31
g9
(g13
S'K\x00\x00\x00'
p432
tp433
Rp434
sg35
g9
(g13
S'P\x00\x00\x00'
p435
tp436
Rp437
sg39
I0
sg40
I0
sg41
I0
sg42
I1
sg43
F-1.0
sa(dp438
g4
F1.4667752846944495
sg5
F265.6082010887458
sg6
I1
sg7
F2.0
sg8
g9
(g13
S'7\x00\x00\x00'
p439
tp440
Rp441
sg19
S'f'
p442
sg21
g49
sg23
I110
sg24
g49
sg25
I0
sg26
g9
(g13
S'-\x00\x00\x00'
p443
tp444
Rp445
sg30
F271.94936147709086
sg31
g9
(g13
S'K\x00\x00\x00'
p446
tp447
Rp448
sg35
g9
(g13
S'P\x00\x00\x00'
p449
tp450
Rp451
sg39
I0
sg40
I0
sg41
I0
sg42
I1
sg43
F-1.0
sa(dp452
g4
F1.8417375463450298
sg5
F272.21795048329295
sg6
I1
sg7
F-5.85
sg8
g9
(g13
S'7\x00\x00\x00'
p453
tp454
Rp455
sg19
S'f'
p456
sg21
g64
sg23
I110
sg24
g22
sg25
I1
sg26
g9
(g13
S'\x87\x00\x00\x00'
p457
tp458
Rp459
sg30
F278.55737412353665
sg31
g9
(g13
S'K\x00\x00\x00'
p460
tp461
Rp462
sg35
g9
(g13
S'P\x00\x00\x00'
p463
tp464
Rp465
sg39
I0
sg40
I0
sg41
I0
sg42
I1
sg43
F-1.0
sa(dp466
g4
F0.783495476387543
sg5
F278.82669266657285
sg6
I2
sg7
F5.85
sg8
g9
(g13
S'7\x00\x00\x00'
p467
tp468
Rp469
sg19
S'l'
p470
sg21
g107
sg23
I-85
sg24
g107
sg25
I3
sg26
g9
(g13
S'\x87\x00\x00\x00'
p471
tp472
Rp473
sg30
F285.1653351692912
sg31
g9
(g13
S'K\x00\x00\x00'
p474
tp475
Rp476
sg35
g9
(g13
S'\xb0\xff\xff\xff'
p477
tp478
Rp479
sg39
I1
sg40
I0
sg41
I0
sg42
I1
sg43
F1.0
sa(dp480
g4
F0.7000919404563319
sg5
F285.43420755166153
sg6
I2
sg7
F-5.85
sg8
g9
(g13
S'7\x00\x00\x00'
p481
tp482
Rp483
sg19
S'j'
p484
sg21
g107
sg23
I-85
sg24
g107
sg25
I3
sg26
g9
(g13
S'\x87\x00\x00\x00'
p485
tp486
Rp487
sg30
F292.27330776105737
sg31
g9
(g13
S'K\x00\x00\x00'
p488
tp489
Rp490
sg35
g9
(g13
S'\xb0\xff\xff\xff'
p491
tp492
Rp493
sg39
I1
sg40
I0
sg41
I0
sg42
I-1
sg43
F-1.0
sa(dp494
g4
F0.6417939935072354
sg5
F292.5432686044005
sg6
I2
sg7
F5.85
sg8
g9
(g13
S'7\x00\x00\x00'
p495
tp496
Rp497
sg19
S'l'
p498
sg21
g22
sg23
I110
sg24
g22
sg25
I1
sg26
g9
(g13
S'\x87\x00\x00\x00'
p499
tp500
Rp501
sg30
F298.88959704422086
sg31
g9
(g13
S'K\x00\x00\x00'
p502
tp503
Rp504
sg35
g9
(g13
S'P\x00\x00\x00'
p505
tp506
Rp507
sg39
I1
sg40
I0
sg41
I0
sg42
I1
sg43
F1.0
sa(dp508
g4
F1.4500566609785892
sg5
F299.1859338228278
sg6
I1
sg7
F5.1274999999999995
sg8
g9
(g13
S'7\x00\x00\x00'
p509
tp510
Rp511
sg19
S'f'
p512
sg21
g107
sg23
I-85
sg24
g107
sg25
I3
sg26
g9
(g13
S'\x87\x00\x00\x00'
p513
tp514
Rp515
sg30
F306.03088572157503
sg31
g9
(g13
S'K\x00\x00\x00'
p516
tp517
Rp518
sg35
g9
(g13
S'\xb0\xff\xff\xff'
p519
tp520
Rp521
sg39
I1
sg40
I0
sg41
I0
sg42
I1
sg43
F1.0
sa(dp522
g4
F0.6584920909826906
sg5
F306.30300780709877
sg6
I2
sg7
F2.0
sg8
g9
(g13
S'7\x00\x00\x00'
p523
tp524
Rp525
sg19
S'l'
p526
sg21
g49
sg23
I110
sg24
g49
sg25
I0
sg26
g9
(g13
S'-\x00\x00\x00'
p527
tp528
Rp529
sg30
F313.14719225248336
sg31
g9
(g13
S'K\x00\x00\x00'
p530
tp531
Rp532
sg35
g9
(g13
S'P\x00\x00\x00'
p533
tp534
Rp535
sg39
I1
sg40
I0
sg41
I0
sg42
I1
sg43
F1.0
sa(dp536
g4
F0.8000912277384487
sg5
F313.416725465795
sg6
I2
sg7
F-2.0
sg8
g9
(g13
S'7\x00\x00\x00'
p537
tp538
Rp539
sg19
S'l'
p540
sg21
g49
sg23
I110
sg24
g49
sg25
I0
sg26
g9
(g13
S'-\x00\x00\x00'
p541
tp542
Rp543
sg30
F320.2634634326423
sg31
g9
(g13
S'K\x00\x00\x00'
p544
tp545
Rp546
sg35
g9
(g13
S'P\x00\x00\x00'
p547
tp548
Rp549
sg39
I0
sg40
I0
sg41
I0
sg42
I1
sg43
F-1.0
sa(dp550
g4
F1.2583010829021077
sg5
F320.53033621698523
sg6
I1
sg7
F2.85
sg8
g9
(g13
S'7\x00\x00\x00'
p551
tp552
Rp553
sg19
S'f'
p554
sg21
g64
sg23
I-85
sg24
g64
sg25
I2
sg26
g9
(g13
S'-\x00\x00\x00'
p555
tp556
Rp557
sg30
F326.8714099389763
sg31
g9
(g13
S'K\x00\x00\x00'
p558
tp559
Rp560
sg35
g9
(g13
S'\xb0\xff\xff\xff'
p561
tp562
Rp563
sg39
I1
sg40
I0
sg41
I0
sg42
I1
sg43
F1.0
sa(dp564
g4
F1.9833928451789689
sg5
F327.139854121142
sg6
I1
sg7
F-2.85
sg8
g9
(g13
S'7\x00\x00\x00'
p565
tp566
Rp567
sg19
S'f'
p568
sg21
g107
sg23
F-72.25
sg24
g64
sg25
I2
sg26
g9
(g13
S'-\x00\x00\x00'
p569
tp570
Rp571
sg30
F333.4793561602237
sg31
g9
(g13
S'K\x00\x00\x00'
p572
tp573
Rp574
sg35
g9
(g13
S'\xb0\xff\xff\xff'
p575
tp576
Rp577
sg39
I0
sg40
I0
sg41
I0
sg42
I1
sg43
F-1.0
sa(dp578
g4
F0.8167821980478038
sg5
F333.7472783486628
sg6
I2
sg7
F-5.1274999999999995
sg8
g9
(g13
S'7\x00\x00\x00'
p579
tp580
Rp581
sg19
S'j'
p582
sg21
g64
sg23
F-85.0
sg24
g107
sg25
I3
sg26
g9
(g13
S'\x87\x00\x00\x00'
p583
tp584
Rp585
sg30
F340.08734828042907
sg31
g9
(g13
S'K\x00\x00\x00'
p586
tp587
Rp588
sg35
g9
(g13
S'\xb0\xff\xff\xff'
p589
tp590
Rp591
sg39
I1
sg40
I0
sg41
I0
sg42
I-1
sg43
F-1.0
sa(dp592
g4
F1.725052135228907
sg5
F340.3593885460723
sg6
I1
sg7
F-2.85
sg8
g9
(g13
S'7\x00\x00\x00'
p593
tp594
Rp595
sg19
S's'
p596
sg21
g64
sg23
I110
sg24
g49
sg25
I0
sg26
g9
(g13
S'-\x00\x00\x00'
p597
tp598
Rp599
sg30
F346.7036472565396
sg31
g9
(g13
S'K\x00\x00\x00'
p600
tp601
Rp602
sg35
g9
(g13
S'P\x00\x00\x00'
p603
tp604
Rp605
sg39
I0
sg40
I0
sg41
I0
sg42
I-1
sg43
F1.0
sa(dp606
g4
F1.716729029378257
sg5
F346.97442373289596
sg6
I1
sg7
F-2.85
sg8
g9
(g13
S'7\x00\x00\x00'
p607
tp608
Rp609
sg19
S'f'
p610
sg21
g49
sg23
I110
sg24
g49
sg25
I0
sg26
g9
(g13
S'-\x00\x00\x00'
p611
tp612
Rp613
sg30
F353.31999412721416
sg31
g9
(g13
S'K\x00\x00\x00'
p614
tp615
Rp616
sg35
g9
(g13
S'P\x00\x00\x00'
p617
tp618
Rp619
sg39
I0
sg40
I0
sg41
I0
sg42
I1
sg43
F-1.0
sa(dp620
g4
F2.1417071846117324
sg5
F353.5892616397323
sg6
I1
sg7
F-5.1274999999999995
sg8
g9
(g13
S'7\x00\x00\x00'
p621
tp622
Rp623
sg19
S's'
p624
sg21
g49
sg23
F-85.0
sg24
g107
sg25
I3
sg26
g9
(g13
S'\x87\x00\x00\x00'
p625
tp626
Rp627
sg30
F360.4279213901973
sg31
g9
(g13
S'K\x00\x00\x00'
p628
tp629
Rp630
sg35
g9
(g13
S'\xb0\xff\xff\xff'
p631
tp632
Rp633
sg39
I1
sg40
I0
sg41
I0
sg42
I-1
sg43
F-1.0
sa(dp634
g4
F1.7333926313658594
sg5
F360.6992560662875
sg6
I1
sg7
F-2.85
sg8
g9
(g13
S'7\x00\x00\x00'
p635
tp636
Rp637
sg19
S'f'
p638
sg21
g22
sg23
I110
sg24
g49
sg25
I0
sg26
g9
(g13
S'-\x00\x00\x00'
p639
tp640
Rp641
sg30
F367.0442799494249
sg31
g9
(g13
S'K\x00\x00\x00'
p642
tp643
Rp644
sg35
g9
(g13
S'P\x00\x00\x00'
p645
tp646
Rp647
sg39
I0
sg40
I0
sg41
I0
sg42
I1
sg43
F-1.0
sa(dp648
g4
F1.366721260767008
sg5
F367.3162230005091
sg6
I2
sg7
F-5.1274999999999995
sg8
g9
(g13
S'7\x00\x00\x00'
p649
tp650
Rp651
sg19
S'l'
p652
sg21
g49
sg23
I110
sg24
g22
sg25
I1
sg26
g9
(g13
S'\x87\x00\x00\x00'
p653
tp654
Rp655
sg30
F374.16050779640864
sg31
g9
(g13
S'K\x00\x00\x00'
p656
tp657
Rp658
sg35
g9
(g13
S'P\x00\x00\x00'
p659
tp660
Rp661
sg39
I0
sg40
I0
sg41
I0
sg42
I1
sg43
F-1.0
sa(dp662
g4
F1.7167392925002787
sg5
F374.45160553695314
sg6
I1
sg7
F-5.85
sg8
g9
(g13
S'7\x00\x00\x00'
p663
tp664
Rp665
sg19
S'f'
p666
sg21
g22
sg23
F-85.0
sg24
g107
sg25
I3
sg26
g9
(g13
S'\x87\x00\x00\x00'
p667
tp668
Rp669
sg30
F380.79352311554067
sg31
g9
(g13
S'K\x00\x00\x00'
p670
tp671
Rp672
sg35
g9
(g13
S'\xb0\xff\xff\xff'
p673
tp674
Rp675
sg39
I1
sg40
I0
sg41
I0
sg42
I1
sg43
F1.0
sa(dp676
g4
F0.9084398488466832
sg5
F381.0830631424251
sg6
I2
sg7
F-2.85
sg8
g9
(g13
S'7\x00\x00\x00'
p677
tp678
Rp679
sg19
S'j'
p680
sg21
g49
sg23
I110
sg24
g49
sg25
I0
sg26
g9
(g13
S'-\x00\x00\x00'
p681
tp682
Rp683
sg30
F387.4264680182623
sg31
g9
(g13
S'K\x00\x00\x00'
p684
tp685
Rp686
sg35
g9
(g13
S'P\x00\x00\x00'
p687
tp688
Rp689
sg39
I1
sg40
I0
sg41
I0
sg42
I-1
sg43
F-1.0
sa(dp690
g4
F1.5334305478936585
sg5
F387.71532668796317
sg6
I1
sg7
F-2.85
sg8
g9
(g13
S'7\x00\x00\x00'
p691
tp692
Rp693
sg19
S's'
p694
sg21
g49
sg23
I110
sg24
g49
sg25
I0
sg26
g9
(g13
S'-\x00\x00\x00'
p695
tp696
Rp697
sg30
F394.55938284433796
sg31
g9
(g13
S'K\x00\x00\x00'
p698
tp699
Rp700
sg35
g9
(g13
S'P\x00\x00\x00'
p701
tp702
Rp703
sg39
I0
sg40
I0
sg41
I0
sg42
I-1
sg43
F1.0
sa(dp704
g4
F1.116770652035484
sg5
F394.8534945213469
sg6
I2
sg7
F5.85
sg8
g9
(g13
S'7\x00\x00\x00'
p705
tp706
Rp707
sg19
S'l'
p708
sg21
g22
sg23
I110
sg24
g22
sg25
I1
sg26
g9
(g13
S'\x87\x00\x00\x00'
p709
tp710
Rp711
sg30
F401.6923290299492
sg31
g9
(g13
S'K\x00\x00\x00'
p712
tp713
Rp714
sg35
g9
(g13
S'P\x00\x00\x00'
p715
tp716
Rp717
sg39
I1
sg40
I0
sg41
I0
sg42
I1
sg43
F1.0
sa(dp718
g4
F0.8500982836358162
sg5
F401.97953448194676
sg6
I1
sg7
F5.85
sg8
g9
(g13
S'7\x00\x00\x00'
p719
tp720
Rp721
sg19
S'f'
p722
sg21
g107
sg23
F-85.0
sg24
g107
sg25
I3
sg26
g9
(g13
S'\x87\x00\x00\x00'
p723
tp724
Rp725
sg30
F408.8253082856172
sg31
g9
(g13
S'K\x00\x00\x00'
p726
tp727
Rp728
sg35
g9
(g13
S'\xb0\xff\xff\xff'
p729
tp730
Rp731
sg39
I1
sg40
I0
sg41
I0
sg42
I1
sg43
F1.0
sa(dp732
g4
F1.158421532027205
sg5
F409.12188482212696
sg6
I2
sg7
F-5.85
sg8
g9
(g13
S'7\x00\x00\x00'
p733
tp734
Rp735
sg19
S'j'
p736
sg21
g107
sg23
F-74.1625
sg24
g107
sg25
I3
sg26
g9
(g13
S'\x87\x00\x00\x00'
p737
tp738
Rp739
sg30
F415.96661663395207
sg31
g9
(g13
S'K\x00\x00\x00'
p740
tp741
Rp742
sg35
g9
(g13
S'\xb0\xff\xff\xff'
p743
tp744
Rp745
sg39
I1
sg40
I0
sg41
I0
sg42
I-1
sg43
F-1.0
sa(dp746
g4
F0.541799837787039
sg5
F416.25448576776034
sg6
I2
sg7
F5.85
sg8
g9
(g13
S'7\x00\x00\x00'
p747
tp748
Rp749
sg19
S'l'
p750
sg21
g64
sg23
F-74.1625
sg24
g107
sg25
I3
sg26
g9
(g13
S'\x87\x00\x00\x00'
p751
tp752
Rp753
sg30
F423.0995522713565
sg31
g9
(g13
S'K\x00\x00\x00'
p754
tp755
Rp756
sg35
g9
(g13
S'\xb0\xff\xff\xff'
p757
tp758
Rp759
sg39
I1
sg40
I0
sg41
I0
sg42
I1
sg43
F1.0
sa(dp760
g4
F0.8251121459761634
sg5
F423.3861385150685
sg6
I2
sg7
F-2.85
sg8
g9
(g13
S'7\x00\x00\x00'
p761
tp762
Rp763
sg19
S'l'
p764
sg21
g22
sg23
F-74.1625
sg24
g64
sg25
I2
sg26
g9
(g13
S'-\x00\x00\x00'
p765
tp766
Rp767
sg30
F430.23247222899226
sg31
g9
(g13
S'K\x00\x00\x00'
p768
tp769
Rp770
sg35
g9
(g13
S'\xb0\xff\xff\xff'
p771
tp772
Rp773
sg39
I0
sg40
I0
sg41
I0
sg42
I1
sg43
F-1.0
sa(dp774
g4
F1.0251226941836649
sg5
F430.52289659478265
sg6
I2
sg7
F-5.235875
sg8
g9
(g13
S'7\x00\x00\x00'
p775
tp776
Rp777
sg19
S'j'
p778
sg21
g107
sg23
I110
sg24
g22
sg25
I1
sg26
g9
(g13
S'\x87\x00\x00\x00'
p779
tp780
Rp781
sg30
F437.36540016905565
sg31
g9
(g13
S'K\x00\x00\x00'
p782
tp783
Rp784
sg35
g9
(g13
S'P\x00\x00\x00'
p785
tp786
Rp787
sg39
I1
sg40
I0
sg41
I0
sg42
I-1
sg43
F-1.0
sa(dp788
g4
F1.375052919216614
sg5
F437.6567978207968
sg6
I1
sg7
F3.5725
sg8
g9
(g13
S'7\x00\x00\x00'
p789
tp790
Rp791
sg19
S'f'
p792
sg21
g49
sg23
F-74.1625
sg24
g64
sg25
I2
sg26
g9
(g13
S'-\x00\x00\x00'
p793
tp794
Rp795
sg30
F443.99839638738194
sg31
g9
(g13
S'K\x00\x00\x00'
p796
tp797
Rp798
sg35
g9
(g13
S'\xb0\xff\xff\xff'
p799
tp800
Rp801
sg39
I1
sg40
I0
sg41
I0
sg42
I1
sg43
F1.0
sa(dp802
g4
F1.1084033577517403
sg5
F444.29120493314076
sg6
I2
sg7
F3.5725
sg8
g9
(g13
S'7\x00\x00\x00'
p803
tp804
Rp805
sg19
S'f'
p806
sg21
g64
sg23
F-74.1625
sg24
g64
sg25
I2
sg26
g9
(g13
S'-\x00\x00\x00'
p807
tp808
Rp809
sg30
F450.631343000623
sg31
g9
(g13
S'K\x00\x00\x00'
p810
tp811
Rp812
sg35
g9
(g13
S'\xb0\xff\xff\xff'
p813
tp814
Rp815
sg39
I0
sg40
I0
sg41
I0
sg42
I1
sg43
F1.0
sa(dp816
g4
F0.7584329354958754
sg5
F450.9232526680553
sg6
I2
sg7
F3.5725
sg8
g9
(g13
S'7\x00\x00\x00'
p817
tp818
Rp819
sg19
S'l'
p820
sg21
g107
sg23
I110
sg24
g49
sg25
I0
sg26
g9
(g13
S'-\x00\x00\x00'
p821
tp822
Rp823
sg30
F457.2643443505076
sg31
g9
(g13
S'K\x00\x00\x00'
p824
tp825
Rp826
sg35
g9
(g13
S'P\x00\x00\x00'
p827
tp828
Rp829
sg39
I1
sg40
I0
sg41
I0
sg42
I1
sg43
F1.0
sa(dp830
g4
F0.8084248817976913
sg5
F457.5540688284782
sg6
I2
sg7
F5.235875
sg8
g9
(g13
S'7\x00\x00\x00'
p831
tp832
Rp833
sg19
S'l'
p834
sg21
g64
sg23
I110
sg24
g22
sg25
I1
sg26
g9
(g13
S'\x87\x00\x00\x00'
p835
tp836
Rp837
sg30
F464.3972999439811
sg31
g9
(g13
S'K\x00\x00\x00'
p838
tp839
Rp840
sg35
g9
(g13
S'P\x00\x00\x00'
p841
tp842
Rp843
sg39
I1
sg40
I0
sg41
I0
sg42
I1
sg43
F1.0
sa(dp844
g4
F1.966703585392679
sg5
F464.69247727502807
sg6
I1
sg7
F-5.235875
sg8
g9
(g13
S'7\x00\x00\x00'
p845
tp846
Rp847
sg19
S'f'
p848
sg21
g107
sg23
F-74.1625
sg24
g107
sg25
I3
sg26
g9
(g13
S'\x87\x00\x00\x00'
p849
tp850
Rp851
sg30
F471.03864179000266
sg31
g9
(g13
S'K\x00\x00\x00'
p852
tp853
Rp854
sg35
g9
(g13
S'\xb0\xff\xff\xff'
p855
tp856
Rp857
sg39
I0
sg40
I0
sg41
I0
sg42
I1
sg43
F-1.0
sa(dp858
g4
F0.9667415019230248
sg5
F471.328302408554
sg6
I1
sg7
F-5.235875
sg8
g9
(g13
S'7\x00\x00\x00'
p859
tp860
Rp861
sg19
S'f'
p862
sg21
g107
sg23
F-85.0
sg24
g107
sg25
I3
sg26
g9
(g13
S'\x87\x00\x00\x00'
p863
tp864
Rp865
sg30
F478.1715266819756
sg31
g9
(g13
S'K\x00\x00\x00'
p866
tp867
Rp868
sg35
g9
(g13
S'\xb0\xff\xff\xff'
p869
tp870
Rp871
sg39
I1
sg40
I0
sg41
I0
sg42
I1
sg43
F1.0
sa(dp872
g4
F1.2000783988405601
sg5
F478.4619308066103
sg6
I2
sg7
F-5.235875
sg8
g9
(g13
S'7\x00\x00\x00'
p873
tp874
Rp875
sg19
S'j'
p876
sg21
g22
sg23
I110
sg24
g22
sg25
I1
sg26
g9
(g13
S'\x87\x00\x00\x00'
p877
tp878
Rp879
sg30
F485.30449510434846
sg31
g9
(g13
S'K\x00\x00\x00'
p880
tp881
Rp882
sg35
g9
(g13
S'P\x00\x00\x00'
p883
tp884
Rp885
sg39
I1
sg40
I0
sg41
I0
sg42
I-1
sg43
F-1.0
sa(dp886
g4
F0.6417557918921375
sg5
F485.594178814923
sg6
I2
sg7
F3.5725
sg8
g9
(g13
S'7\x00\x00\x00'
p887
tp888
Rp889
sg19
S'l'
p890
sg21
g22
sg23
F-85.0
sg24
g64
sg25
I2
sg26
g9
(g13
S'-\x00\x00\x00'
p891
tp892
Rp893
sg30
F491.937447134238
sg31
g9
(g13
S'K\x00\x00\x00'
p894
tp895
Rp896
sg35
g9
(g13
S'\xb0\xff\xff\xff'
p897
tp898
Rp899
sg39
I1
sg40
I0
sg41
I0
sg42
I1
sg43
F1.0
sa(dp900
g4
F1.2584176833570382
sg5
F492.2270165250502
sg6
I2
sg7
F3.5725
sg8
g9
(g13
S'7\x00\x00\x00'
p901
tp902
Rp903
sg19
S'j'
p904
sg21
g49
sg23
I110
sg24
g49
sg25
I0
sg26
g9
(g13
S'-\x00\x00\x00'
p905
tp906
Rp907
sg30
F498.5704630235432
sg31
g9
(g13
S'K\x00\x00\x00'
p908
tp909
Rp910
sg35
g9
(g13
S'P\x00\x00\x00'
p911
tp912
Rp913
sg39
I0
sg40
I0
sg41
I0
sg42
I-1
sg43
F1.0
sa(dp914
g4
F0.7250404466740292
sg5
F498.86500290075674
sg6
I2
sg7
F-4.186624999999999
sg8
g9
(g13
S'7\x00\x00\x00'
p915
tp916
Rp917
sg19
S'j'
p918
sg21
g49
sg23
F-85.0
sg24
g64
sg25
I2
sg26
g9
(g13
S'-\x00\x00\x00'
p919
tp920
Rp921
sg30
F505.2117159225181
sg31
g9
(g13
S'K\x00\x00\x00'
p922
tp923
Rp924
sg35
g9
(g13
S'\xb0\xff\xff\xff'
p925
tp926
Rp927
sg39
I1
sg40
I0
sg41
I0
sg42
I-1
sg43
F-1.0
sa(dp928
g4
F0.8667921048090648
sg5
F505.50345339759224
sg6
I2
sg7
F-4.186624999999999
sg8
g9
(g13
S'7\x00\x00\x00'
p929
tp930
Rp931
sg19
S'j'
p932
sg21
g64
sg23
F-85.0
sg24
g64
sg25
I2
sg26
g9
(g13
S'-\x00\x00\x00'
p933
tp934
Rp935
sg30
F511.84473665829864
sg31
g9
(g13
S'K\x00\x00\x00'
p936
tp937
Rp938
sg35
g9
(g13
S'\xb0\xff\xff\xff'
p939
tp940
Rp941
sg39
I1
sg40
I0
sg41
I0
sg42
I-1
sg43
F-1.0
sa(dp942
g4
F1.1333912059308204
sg5
F512.1409408715954
sg6
I1
sg7
F-4.186624999999999
sg8
g9
(g13
S'7\x00\x00\x00'
p943
tp944
Rp945
sg19
S'f'
p946
sg21
g107
sg23
F-85.0
sg24
g64
sg25
I2
sg26
g9
(g13
S'-\x00\x00\x00'
p947
tp948
Rp949
sg30
F518.4860710920675
sg31
g9
(g13
S'K\x00\x00\x00'
p950
tp951
Rp952
sg35
g9
(g13
S'\xb0\xff\xff\xff'
p953
tp954
Rp955
sg39
I1
sg40
I0
sg41
I0
sg42
I1
sg43
F1.0
sa(dp956
g4
F0.7834444458694634
sg5
F518.7817920834277
sg6
I2
sg7
F4.6217500000000005
sg8
g9
(g13
S'7\x00\x00\x00'
p957
tp958
Rp959
sg19
S'f'
p960
sg21
g22
sg23
F-85.0
sg24
g107
sg25
I3
sg26
g9
(g13
S'\x87\x00\x00\x00'
p961
tp962
Rp963
sg30
F525.6273115897711
sg31
g9
(g13
S'K\x00\x00\x00'
p964
tp965
Rp966
sg35
g9
(g13
S'\xb0\xff\xff\xff'
p967
tp968
Rp969
sg39
I0
sg40
I0
sg41
I0
sg42
I1
sg43
F1.0
sa(dp970
g4
F0.9084415593661106
sg5
F525.9213026751113
sg6
I2
sg7
F-4.186624999999999
sg8
g9
(g13
S'7\x00\x00\x00'
p971
tp972
Rp973
sg19
S'f'
p974
sg21
g49
sg23
I110
sg24
g49
sg25
I0
sg26
g9
(g13
S'-\x00\x00\x00'
p975
tp976
Rp977
sg30
F532.760253499082
sg31
g9
(g13
S'K\x00\x00\x00'
p978
tp979
Rp980
sg35
g9
(g13
S'P\x00\x00\x00'
p981
tp982
Rp983
sg39
I0
sg40
I0
sg41
I0
sg42
I1
sg43
F-1.0
sa(dp984
g4
F1.5500676368155837
sg5
F533.0751223378247
sg6
I1
sg7
F-4.186624999999999
sg8
g9
(g13
S'7\x00\x00\x00'
p985
tp986
Rp987
sg19
S's'
p988
sg21
g49
sg23
F-85.0
sg24
g64
sg25
I2
sg26
g9
(g13
S'-\x00\x00\x00'
p989
tp990
Rp991
sg30
F539.9181955153017
sg31
g9
(g13
S'K\x00\x00\x00'
p992
tp993
Rp994
sg35
g9
(g13
S'\xb0\xff\xff\xff'
p995
tp996
Rp997
sg39
I1
sg40
I0
sg41
I0
sg42
I-1
sg43
F-1.0
sa(dp998
g4
F1.3584035715666687
sg5
F540.2126230683589
sg6
I1
sg7
F-4.186624999999999
sg8
g9
(g13
S'7\x00\x00\x00'
p999
tp1000
Rp1001
sg19
S's'
p1002
sg21
g64
sg23
F-75.788125
sg24
g64
sg25
I2
sg26
g9
(g13
S'-\x00\x00\x00'
p1003
tp1004
Rp1005
sg30
F546.5595079973937
sg31
g9
(g13
S'K\x00\x00\x00'
p1006
tp1007
Rp1008
sg35
g9
(g13
S'\xb0\xff\xff\xff'
p1009
tp1010
Rp1011
sg39
I1
sg40
I0
sg41
I0
sg42
I-1
sg43
F-1.0
sa(dp1012
g4
F0.42514949233191146
sg5
F546.8537969983227
sg6
I2
sg7
F4.186624999999999
sg8
g9
(g13
S'7\x00\x00\x00'
p1013
tp1014
Rp1015
sg19
S'l'
p1016
sg21
g49
sg23
I110
sg24
g49
sg25
I0
sg26
g9
(g13
S'-\x00\x00\x00'
p1017
tp1018
Rp1019
sg30
F553.1925330094746
sg31
g9
(g13
S'K\x00\x00\x00'
p1020
tp1021
Rp1022
sg35
g9
(g13
S'P\x00\x00\x00'
p1023
tp1024
Rp1025
sg39
I1
sg40
I0
sg41
I0
sg42
I1
sg43
F1.0
sa(dp1026
g4
F1.000098069820524
sg5
F553.487050935013
sg6
I2
sg7
F-3.6646187499999994
sg8
g9
(g13
S'7\x00\x00\x00'
p1027
tp1028
Rp1029
sg19
S'j'
p1030
sg21
g64
sg23
F-75.788125
sg24
g64
sg25
I2
sg26
g9
(g13
S'-\x00\x00\x00'
p1031
tp1032
Rp1033
sg30
F560.333758682671
sg31
g9
(g13
S'K\x00\x00\x00'
p1034
tp1035
Rp1036
sg35
g9
(g13
S'\xb0\xff\xff\xff'
p1037
tp1038
Rp1039
sg39
I1
sg40
I0
sg41
I0
sg42
I-1
sg43
F-1.0
sa(dp1040
g4
F0.4501176695303002
sg5
F560.6301122813911
sg6
I2
sg7
F3.6646187499999994
sg8
g9
(g13
S'7\x00\x00\x00'
p1041
tp1042
Rp1043
sg19
S'l'
p1044
sg21
g64
sg23
I110
sg24
g49
sg25
I0
sg26
g9
(g13
S'-\x00\x00\x00'
p1045
tp1046
Rp1047
sg30
F566.9750919760918
sg31
g9
(g13
S'K\x00\x00\x00'
p1048
tp1049
Rp1050
sg35
g9
(g13
S'P\x00\x00\x00'
p1051
tp1052
Rp1053
sg39
I1
sg40
I0
sg41
I0
sg42
I1
sg43
F1.0
sa(dp1054
g4
F2.5833195779014204
sg5
F567.2723544311739
sg6
I1
sg7
F-4.6217500000000005
sg8
g9
(g13
S'7\x00\x00\x00'
p1055
tp1056
Rp1057
sg19
S'f'
p1058
sg21
g22
sg23
I110
sg24
g22
sg25
I1
sg26
g9
(g13
S'\x87\x00\x00\x00'
p1059
tp1060
Rp1061
sg30
F573.6163819363373
sg31
g9
(g13
S'K\x00\x00\x00'
p1062
tp1063
Rp1064
sg35
g9
(g13
S'P\x00\x00\x00'
p1065
tp1066
Rp1067
sg39
I0
sg40
I0
sg41
I0
sg42
I1
sg43
F-1.0
sa(dp1068
g4
F0.7168253886793536
sg5
F573.9123378391287
sg6
I1
sg7
F-4.6217500000000005
sg8
g9
(g13
S'7\x00\x00\x00'
p1069
tp1070
Rp1071
sg19
S'f'
p1072
sg21
g22
sg23
I110
sg24
g22
sg25
I1
sg26
g9
(g13
S'\x87\x00\x00\x00'
p1073
tp1074
Rp1075
sg30
F580.2576761728815
sg31
g9
(g13
S'K\x00\x00\x00'
p1076
tp1077
Rp1078
sg35
g9
(g13
S'P\x00\x00\x00'
p1079
tp1080
Rp1081
sg39
I0
sg40
I0
sg41
I0
sg42
I1
sg43
F-1.0
sa(dp1082
g4
F0.9917347667505965
sg5
F580.5531351695772
sg6
I2
sg7
F3.6646187499999994
sg8
g9
(g13
S'7\x00\x00\x00'
p1083
tp1084
Rp1085
sg19
S'f'
p1086
sg21
g49
sg23
I110
sg24
g49
sg25
I0
sg26
g9
(g13
S'-\x00\x00\x00'
p1087
tp1088
Rp1089
sg30
F586.8990108917369
sg31
g9
(g13
S'K\x00\x00\x00'
p1090
tp1091
Rp1092
sg35
g9
(g13
S'P\x00\x00\x00'
p1093
tp1094
Rp1095
sg39
I0
sg40
I0
sg41
I0
sg42
I1
sg43
F1.0
sa(dp1096
g4
F1.3834031083006266
sg5
F587.1961940927195
sg6
I1
sg7
F-4.6217500000000005
sg8
g9
(g13
S'7\x00\x00\x00'
p1097
tp1098
Rp1099
sg19
S'f'
p1100
sg21
g107
sg23
F-75.788125
sg24
g107
sg25
I3
sg26
g9
(g13
S'\x87\x00\x00\x00'
p1101
tp1102
Rp1103
sg30
F594.0402958629638
sg31
g9
(g13
S'K\x00\x00\x00'
p1104
tp1105
Rp1106
sg35
g9
(g13
S'\xb0\xff\xff\xff'
p1107
tp1108
Rp1109
sg39
I1
sg40
I0
sg41
I0
sg42
I1
sg43
F1.0
sa(dp1110
g4
F0.9084789057233138
sg5
F594.3352268791132
sg6
I1
sg7
F4.6217500000000005
sg8
g9
(g13
S'7\x00\x00\x00'
p1111
tp1112
Rp1113
sg19
S's'
p1114
sg21
g64
sg23
I110
sg24
g22
sg25
I1
sg26
g9
(g13
S'\x87\x00\x00\x00'
p1115
tp1116
Rp1117
sg30
F600.6815664373134
sg31
g9
(g13
S'K\x00\x00\x00'
p1118
tp1119
Rp1120
sg35
g9
(g13
S'P\x00\x00\x00'
p1121
tp1122
Rp1123
sg39
I0
sg40
I0
sg41
I0
sg42
I-1
sg43
F1.0
sa(dp1124
g4
F1.4833562115400127
sg5
F600.985259307723
sg6
I2
sg7
F4.6217500000000005
sg8
g9
(g13
S'7\x00\x00\x00'
p1125
tp1126
Rp1127
sg19
S'l'
p1128
sg21
g22
sg23
I110
sg24
g22
sg25
I1
sg26
g9
(g13
S'\x87\x00\x00\x00'
p1129
tp1130
Rp1131
sg30
F607.8312053037534
sg31
g9
(g13
S'K\x00\x00\x00'
p1132
tp1133
Rp1134
sg35
g9
(g13
S'P\x00\x00\x00'
p1135
tp1136
Rp1137
sg39
I1
sg40
I0
sg41
I0
sg42
I1
sg43
F1.0
sa(dp1138
g4
F1.0917283522994694
sg5
F608.1276786388826
sg6
I1
sg7
F3.6646187499999994
sg8
g9
(g13
S'7\x00\x00\x00'
p1139
tp1140
Rp1141
sg19
S'f'
p1142
sg21
g107
sg23
I110
sg24
g49
sg25
I0
sg26
g9
(g13
S'-\x00\x00\x00'
p1143
tp1144
Rp1145
sg30
F614.4725328954391
sg31
g9
(g13
S'K\x00\x00\x00'
p1146
tp1147
Rp1148
sg35
g9
(g13
S'P\x00\x00\x00'
p1149
tp1150
Rp1151
sg39
I0
sg40
I0
sg41
I0
sg42
I1
sg43
F-1.0
sa(dp1152
g4
F1.1250846351122163
sg5
F614.7693873914704
sg6
I2
sg7
F-4.6217500000000005
sg8
g9
(g13
S'7\x00\x00\x00'
p1153
tp1154
Rp1155
sg19
S'l'
p1156
sg21
g22
sg23
I110
sg24
g22
sg25
I1
sg26
g9
(g13
S'\x87\x00\x00\x00'
p1157
tp1158
Rp1159
sg30
F621.61379448956
sg31
g9
(g13
S'K\x00\x00\x00'
p1160
tp1161
Rp1162
sg35
g9
(g13
S'P\x00\x00\x00'
p1163
tp1164
Rp1165
sg39
I0
sg40
I0
sg41
I0
sg42
I1
sg43
F-1.0
sa(dp1166
g4
F1.1584315100626554
sg5
F621.911681854659
sg6
I2
sg7
F-5.235875
sg8
g9
(g13
S'7\x00\x00\x00'
p1167
tp1168
Rp1169
sg19
S'l'
p1170
sg21
g49
sg23
I110
sg24
g22
sg25
I1
sg26
g9
(g13
S'\x87\x00\x00\x00'
p1171
tp1172
Rp1173
sg30
F628.7550757546596
sg31
g9
(g13
S'K\x00\x00\x00'
p1174
tp1175
Rp1176
sg35
g9
(g13
S'P\x00\x00\x00'
p1177
tp1178
Rp1179
sg39
I0
sg40
I0
sg41
I0
sg42
I1
sg43
F-1.0
sa(dp1180
g4
F1.3167786344638444
sg5
F629.0536878101211
sg6
I1
sg7
F-3.6646187499999994
sg8
g9
(g13
S'7\x00\x00\x00'
p1181
tp1182
Rp1183
sg19
S'f'
p1184
sg21
g22
sg23
F-75.788125
sg24
g64
sg25
I2
sg26
g9
(g13
S'-\x00\x00\x00'
p1185
tp1186
Rp1187
sg30
F635.8963307917857
sg31
g9
(g13
S'K\x00\x00\x00'
p1188
tp1189
Rp1190
sg35
g9
(g13
S'\xb0\xff\xff\xff'
p1191
tp1192
Rp1193
sg39
I1
sg40
I0
sg41
I0
sg42
I1
sg43
F1.0
sa(dp1194
g4
F1.2667211182233586
sg5
F636.2040664765136
sg6
I1
sg7
F-3.6646187499999994
sg8
g9
(g13
S'7\x00\x00\x00'
p1195
tp1196
Rp1197
sg19
S'f'
p1198
sg21
g49
sg23
I110
sg24
g49
sg25
I0
sg26
g9
(g13
S'-\x00\x00\x00'
p1199
tp1200
Rp1201
sg30
F642.5460724319746
sg31
g9
(g13
S'K\x00\x00\x00'
p1202
tp1203
Rp1204
sg35
g9
(g13
S'P\x00\x00\x00'
p1205
tp1206
Rp1207
sg39
I0
sg40
I0
sg41
I0
sg42
I1
sg43
F-1.0
sa(dp1208
g4
F1.883375312347198
sg5
F642.8459973116333
sg6
I1
sg7
F5.75788125
sg8
g9
(g13
S'7\x00\x00\x00'
p1209
tp1210
Rp1211
sg19
S'f'
p1212
sg21
g107
sg23
F-66.57624999999999
sg24
g107
sg25
I3
sg26
g9
(g13
S'\x87\x00\x00\x00'
p1213
tp1214
Rp1215
sg30
F649.6872770087557
sg31
g9
(g13
S'K\x00\x00\x00'
p1216
tp1217
Rp1218
sg35
g9
(g13
S'\xb0\xff\xff\xff'
p1219
tp1220
Rp1221
sg39
I0
sg40
I0
sg41
I0
sg42
I1
sg43
F-1.0
sa(dp1222
g4
F1.8000191008068214
sg7
F5.75788125
sg5
F649.98542494309
sg21
g107
sg25
I3
sg26
g9
(g13
S'\x87\x00\x00\x00'
p1223
tp1224
Rp1225
sg30
F656.8285494361699
sg31
g9
(g13
S'K\x00\x00\x00'
p1226
tp1227
Rp1228
sg35
g9
(g13
S'\xb0\xff\xff\xff'
p1229
tp1230
Rp1231
sg40
I0
sg41
I0
sg42
I1
sg43
F1.0
sg6
I2
sg8
g9
(g13
S'7\x00\x00\x00'
p1232
tp1233
Rp1234
sg19
S'f'
p1235
sg23
F-75.788125
sg24
g107
sg39
I0
sa(dp1236
g4
F1.3750857041850395
sg5
F657.131138736011
sg6
I2
sg7
F-6.279887499999999
sg8
g9
(g13
S'7\x00\x00\x00'
p1237
tp1238
Rp1239
sg19
S'l'
p1240
sg21
g49
sg23
F-75.788125
sg24
g107
sg25
I3
sg26
g9
(g13
S'\x87\x00\x00\x00'
p1241
tp1242
Rp1243
sg30
F663.4698952734052
sg31
g9
(g13
S'K\x00\x00\x00'
p1244
tp1245
Rp1246
sg35
g9
(g13
S'\xb0\xff\xff\xff'
p1247
tp1248
Rp1249
sg39
I0
sg40
I0
sg41
I0
sg42
I1
sg43
F-1.0
sa(dp1250
g4
F1.7167258934259735
sg5
F663.7678567610437
sg6
I1
sg7
F-3.6646187499999994
sg8
g9
(g13
S'7\x00\x00\x00'
p1251
tp1252
Rp1253
sg19
S'f'
p1254
sg21
g49
sg23
I110
sg24
g49
sg25
I0
sg26
g9
(g13
S'-\x00\x00\x00'
p1255
tp1256
Rp1257
sg30
F670.6111702665985
sg31
g9
(g13
S'K\x00\x00\x00'
p1258
tp1259
Rp1260
sg35
g9
(g13
S'P\x00\x00\x00'
p1261
tp1262
Rp1263
sg39
I0
sg40
I0
sg41
I0
sg42
I1
sg43
F-1.0
sa(dp1264
g4
F1.016748272730183
sg5
F670.9173319877245
sg6
I2
sg7
F-6.801893749999999
sg8
g9
(g13
S'7\x00\x00\x00'
p1265
tp1266
Rp1267
sg19
S'j'
p1268
sg21
g22
sg23
I110
sg24
g22
sg25
I1
sg26
g9
(g13
S'\x87\x00\x00\x00'
p1269
tp1270
Rp1271
sg30
F677.2607978721135
sg31
g9
(g13
S'K\x00\x00\x00'
p1272
tp1273
Rp1274
sg35
g9
(g13
S'P\x00\x00\x00'
p1275
tp1276
Rp1277
sg39
I1
sg40
I0
sg41
I0
sg42
I-1
sg43
F-1.0
sa(dp1278
g4
F1.4084129081547871
sg5
F677.5602058896056
sg6
I2
sg7
F3.6646187499999994
sg8
g9
(g13
S'7\x00\x00\x00'
p1279
tp1280
Rp1281
sg19
S'l'
p1282
sg21
g64
sg23
F-75.788125
sg24
g64
sg25
I2
sg26
g9
(g13
S'-\x00\x00\x00'
p1283
tp1284
Rp1285
sg30
F683.902135156748
sg31
g9
(g13
S'K\x00\x00\x00'
p1286
tp1287
Rp1288
sg35
g9
(g13
S'\xb0\xff\xff\xff'
p1289
tp1290
Rp1291
sg39
I1
sg40
I0
sg41
I0
sg42
I1
sg43
F1.0
sa(dp1292
g4
F0.9750825682331197
sg5
F684.2009590316175
sg6
I1
sg7
F6.801893749999999
sg8
g9
(g13
S'7\x00\x00\x00'
p1293
tp1294
Rp1295
sg19
S'l'
p1296
sg21
g107
sg23
F-75.788125
sg24
g107
sg25
I3
sg26
g9
(g13
S'\x87\x00\x00\x00'
p1297
tp1298
Rp1299
sg30
F690.5434350950272
sg31
g9
(g13
S'K\x00\x00\x00'
p1300
tp1301
Rp1302
sg35
g9
(g13
S'\xb0\xff\xff\xff'
p1303
tp1304
Rp1305
sg39
I0
sg40
I0
sg41
I0
sg42
I1
sg43
F1.0
sa(dp1306
g4
F0.9750107263862446
sg5
F690.8429853707767
sg6
I1
sg7
F-6.801893749999999
sg8
g9
(g13
S'7\x00\x00\x00'
p1307
tp1308
Rp1309
sg19
S's'
p1310
sg21
g22
sg23
I110
sg24
g22
sg25
I1
sg26
g9
(g13
S'\x87\x00\x00\x00'
p1311
tp1312
Rp1313
sg30
F697.1847512832464
sg31
g9
(g13
S'K\x00\x00\x00'
p1314
tp1315
Rp1316
sg35
g9
(g13
S'P\x00\x00\x00'
p1317
tp1318
Rp1319
sg39
I0
sg40
I0
sg41
I0
sg42
I-1
sg43
F1.0
sa(dp1320
g4
F2.166704155566549
sg5
F697.485250612579
sg6
I1
sg7
F3.1426124999999994
sg8
g9
(g13
S'7\x00\x00\x00'
p1321
tp1322
Rp1323
sg19
S'f'
p1324
sg21
g64
sg23
F-75.788125
sg24
g64
sg25
I2
sg26
g9
(g13
S'-\x00\x00\x00'
p1325
tp1326
Rp1327
sg30
F703.8260298400237
sg31
g9
(g13
S'K\x00\x00\x00'
p1328
tp1329
Rp1330
sg35
g9
(g13
S'\xb0\xff\xff\xff'
p1331
tp1332
Rp1333
sg39
I0
sg40
I0
sg41
I0
sg42
I1
sg43
F-1.0
sa(dp1334
g4
F0.8001405477371009
sg5
F704.1370266313734
sg6
I1
sg7
F-6.801893749999999
sg8
g9
(g13
S'7\x00\x00\x00'
p1335
tp1336
Rp1337
sg19
S's'
p1338
sg21
g22
sg23
I110
sg24
g22
sg25
I1
sg26
g9
(g13
S'\x87\x00\x00\x00'
p1339
tp1340
Rp1341
sg30
F710.9756675661156
sg31
g9
(g13
S'K\x00\x00\x00'
p1342
tp1343
Rp1344
sg35
g9
(g13
S'P\x00\x00\x00'
p1345
tp1346
Rp1347
sg39
I0
sg40
I0
sg41
I0
sg42
I-1
sg43
F1.0
sa(dp1348
g4
F0.8001106136343878
sg5
F711.2760691107142
sg6
I1
sg7
F-6.801893749999999
sg8
g9
(g13
S'7\x00\x00\x00'
p1349
tp1350
Rp1351
sg19
S's'
p1352
sg21
g107
sg23
F-85.0
sg24
g107
sg25
I3
sg26
g9
(g13
S'\x87\x00\x00\x00'
p1353
tp1354
Rp1355
sg30
F718.1169448400015
sg31
g9
(g13
S'K\x00\x00\x00'
p1356
tp1357
Rp1358
sg35
g9
(g13
S'\xb0\xff\xff\xff'
p1359
tp1360
Rp1361
sg39
I1
sg40
I0
sg41
I0
sg42
I-1
sg43
F-1.0
sa(dp1362
g4
F1.1083985112782102
sg5
F718.4174407482951
sg6
I2
sg7
F-6.801893749999999
sg8
g9
(g13
S'7\x00\x00\x00'
p1363
tp1364
Rp1365
sg19
S'j'
p1366
sg21
g107
sg23
F-85.0
sg24
g107
sg25
I3
sg26
g9
(g13
S'\x87\x00\x00\x00'
p1367
tp1368
Rp1369
sg30
F725.2582204033697
sg31
g9
(g13
S'K\x00\x00\x00'
p1370
tp1371
Rp1372
sg35
g9
(g13
S'\xb0\xff\xff\xff'
p1373
tp1374
Rp1375
sg39
I1
sg40
I0
sg41
I0
sg42
I-1
sg43
F-1.0
sa(dp1376
g4
F0.8167670884522522
sg5
F725.5613071794796
sg6
I2
sg7
F6.801893749999999
sg8
g9
(g13
S'7\x00\x00\x00'
p1377
tp1378
Rp1379
sg19
S'l'
p1380
sg21
g107
sg23
F-85.0
sg24
g107
sg25
I3
sg26
g9
(g13
S'\x87\x00\x00\x00'
p1381
tp1382
Rp1383
sg30
F731.9078907718867
sg31
g9
(g13
S'K\x00\x00\x00'
p1384
tp1385
Rp1386
sg35
g9
(g13
S'\xb0\xff\xff\xff'
p1387
tp1388
Rp1389
sg39
I1
sg40
I0
sg41
I0
sg42
I1
sg43
F1.0
sa(dp1390
g4
F2.250019029535906
sg5
F732.2058320183714
sg6
I1
sg7
F-3.1426124999999994
sg8
g9
(g13
S'7\x00\x00\x00'
p1391
tp1392
Rp1393
sg19
S'l'
p1394
sg21
g64
sg23
F-85.0
sg24
g64
sg25
I2
sg26
g9
(g13
S'-\x00\x00\x00'
p1395
tp1396
Rp1397
sg30
F738.5491698988371
sg31
g9
(g13
S'K\x00\x00\x00'
p1398
tp1399
Rp1400
sg35
g9
(g13
S'\xb0\xff\xff\xff'
p1401
tp1402
Rp1403
sg39
I0
sg40
I0
sg41
I0
sg42
I1
sg43
F1.0
sa(dp1404
g4
F0.9667531904760835
sg5
F738.8517021813404
sg6
I2
sg7
F-3.1426124999999994
sg8
g9
(g13
S'7\x00\x00\x00'
p1405
tp1406
Rp1407
sg19
S'j'
p1408
sg21
g64
sg23
F-85.0
sg24
g64
sg25
I2
sg26
g9
(g13
S'-\x00\x00\x00'
p1409
tp1410
Rp1411
sg30
F745.6904534446312
sg31
g9
(g13
S'K\x00\x00\x00'
p1412
tp1413
Rp1414
sg35
g9
(g13
S'\xb0\xff\xff\xff'
p1415
tp1416
Rp1417
sg39
I1
sg40
I0
sg41
I0
sg42
I-1
sg43
F-1.0
sa(dp1418
g4
F1.1584146899476764
sg5
F745.9933620415632
sg6
I1
sg7
F-3.1426124999999994
sg8
g9
(g13
S'7\x00\x00\x00'
p1419
tp1420
Rp1421
sg19
S's'
p1422
sg21
g107
sg23
I110
sg24
g49
sg25
I0
sg26
g9
(g13
S'-\x00\x00\x00'
p1423
tp1424
Rp1425
sg30
F752.3401172561553
sg31
g9
(g13
S'K\x00\x00\x00'
p1426
tp1427
Rp1428
sg35
g9
(g13
S'P\x00\x00\x00'
p1429
tp1430
Rp1431
sg39
I0
sg40
I0
sg41
I0
sg42
I-1
sg43
F1.0
sasS'eventArray'
p1432
(lp1433
(lp1434
S'trial 0 started at 65.5567976783'
p1435
aS'trial 0 phase 6 started at 69.251770032'
p1436
aS'trial 0 event s at 71.2767747003'
p1437
aS'staircase 0 updated from 70.000000 to 70.000000 after response 1 at 71.276788'
p1438
aa(lp1439
S'trial 1 started at 72.6677591189'
p1440
aS'trial 1 phase 6 started at 76.3597326457'
p1441
aS'trial 1 event s at 77.2931871409'
p1442
aS'staircase 0 updated from 70.000000 to 70.000000 after response 1 at 77.293201'
p1443
aa(lp1444
S'trial 2 started at 79.764446269'
p1445
aS'trial 2 phase 6 started at 83.4593447853'
p1446
aS'trial 2 event f at 84.9010640861'
p1447
aS'staircase 1 updated from 70.000000 to 70.000000 after response 1 at 84.901078'
p1448
aa(lp1449
S'trial 3 started at 86.8680031531'
p1450
aS'trial 3 phase 6 started at 90.0589901374'
p1451
aS'trial 3 event s at 92.2007218395'
p1452
aS'staircase 0 updated from 70.000000 to 85.000000 after response 0 at 92.200739'
p1453
aa(lp1454
S'trial 4 started at 93.466927521'
p1455
aS'trial 4 phase 6 started at 97.158608834'
p1456
aS'trial 4 event l at 97.942027337'
p1457
aS'staircase 3 updated from 3.000000 to 4.000000 after response 0 at 97.942043'
p1458
aa(lp1459
S'trial 5 started at 100.565129337'
p1460
aS'trial 5 phase 6 started at 103.758260458'
p1461
aS'trial 5 event f at 104.69170583'
p1462
aS'staircase 1 updated from 70.000000 to 70.000000 after response 1 at 104.691719'
p1463
aa(lp1464
S'trial 6 started at 107.176551905'
p1465
aS'trial 6 phase 6 started at 110.366236613'
p1466
aS'trial 6 event s at 111.557974516'
p1467
aS'staircase 0 updated from 85.000000 to 100.000000 after response 0 at 111.557989'
p1468
aa(lp1469
S'trial 7 started at 113.773489789'
p1470
aS'trial 7 phase 6 started at 117.465852459'
p1471
aS'trial 7 event l at 118.157638399'
p1472
aS'staircase 2 updated from 3.000000 to 3.000000 after response 1 at 118.157652'
p1473
aa(lp1474
S'trial 8 started at 120.87540942'
p1475
aS'trial 8 phase 6 started at 124.065502373'
p1476
aS'trial 8 event l at 124.790614946'
p1477
aS'staircase 2 updated from 3.000000 to 3.000000 after response 1 at 124.790628'
p1478
aa(lp1479
S'trial 9 started at 127.471515421'
p1480
aS'trial 9 phase 6 started at 131.165121639'
p1481
aS'trial 9 event l at 131.781884452'
p1482
aS'staircase 2 updated from 3.000000 to 2.000000 after response 1 at 131.781900'
p1483
aa(lp1484
S'trial 10 started at 134.576301029'
p1485
aS'trial 10 phase 6 started at 137.764757869'
p1486
aS'trial 10 event l at 138.456525848'
p1487
aS'staircase 2 updated from 2.000000 to 2.000000 after response 1 at 138.456539'
p1488
aa(lp1489
S'trial 11 started at 141.18268526'
p1490
aS'trial 11 phase 6 started at 144.372749989'
p1491
aS'trial 11 event f at 144.981256976'
p1492
aS'staircase 1 updated from 70.000000 to 55.000000 after response 1 at 144.981284'
p1493
aa(lp1494
S'trial 12 started at 147.78043393'
p1495
aS'trial 12 phase 6 started at 150.972367688'
p1496
aS'trial 12 event j at 152.897424099'
p1497
aS'staircase 3 updated from 4.000000 to 4.000000 after response 1 at 152.897438'
p1498
aa(lp1499
S'trial 13 started at 154.384656064'
p1500
aS'trial 13 phase 6 started at 157.580343273'
p1501
aa(lp1502
S'trial 14 started at 160.988933505'
p1503
aS'trial 14 phase 6 started at 164.179972375'
p1504
aS'trial 14 event l at 165.588368748'
p1505
aS'staircase 3 updated from 4.000000 to 5.000000 after response 0 at 165.588386'
p1506
aa(lp1507
S'trial 15 started at 167.592234809'
p1508
aS'trial 15 phase 6 started at 170.787967631'
p1509
aS'trial 15 event f at 171.646330008'
p1510
aS'trial 15 event l at 172.496305134'
p1511
aS'staircase 3 updated from 5.000000 to 5.000000 after response 1 at 172.496319'
p1512
aa(lp1513
S'trial 16 started at 174.199561822'
p1514
aS'trial 16 phase 6 started at 177.895919697'
p1515
aS'trial 16 event f at 179.287660165'
p1516
aS'staircase 1 updated from 55.000000 to 70.000000 after response 0 at 179.287677'
p1517
aa(lp1518
S'trial 17 started at 181.307873667'
p1519
aS'trial 17 phase 6 started at 185.003873188'
p1520
aS'trial 17 event s at 186.120639563'
p1521
aS'staircase 0 updated from 100.000000 to 110.000000 after response 0 at 186.120656'
p1522
aa(lp1523
S'trial 18 started at 188.420098897'
p1524
aS'trial 18 phase 6 started at 192.11181328'
p1525
aS'trial 18 event l at 192.845282314'
p1526
aS'staircase 2 updated from 2.000000 to 2.000000 after response 1 at 192.845295'
p1527
aa(lp1528
S'trial 19 started at 195.52753467'
p1529
aS'trial 19 phase 6 started at 199.21978131'
p1530
aS'trial 19 event f at 200.878196428'
p1531
aS'staircase 0 updated from 110.000000 to 110.000000 after response 0 at 200.878212'
p1532
aa(lp1533
S'trial 20 started at 202.633789329'
p1534
aS'trial 20 phase 6 started at 206.327720547'
p1535
aS'trial 20 event l at 207.086171728'
p1536
aS'staircase 2 updated from 2.000000 to 1.000000 after response 1 at 207.086199'
p1537
aa(lp1538
S'trial 21 started at 209.74100131'
p1539
aS'trial 21 phase 6 started at 213.435651801'
p1540
aS'trial 21 event j at 214.302444476'
p1541
aS'staircase 3 updated from 5.000000 to 5.000000 after response 1 at 214.302459'
p1542
aa(lp1543
S'trial 22 started at 216.8522065'
p1544
aS'trial 22 phase 6 started at 220.543603866'
p1545
aS'trial 22 event l at 221.443670434'
p1546
aS'staircase 3 updated from 5.000000 to 5.850000 after response 0 at 221.443687'
p1547
aa(lp1548
S'trial 23 started at 223.959287055'
p1549
aS'trial 23 phase 6 started at 227.151577171'
p1550
aS'trial 23 event s at 228.818337916'
p1551
aS'staircase 0 updated from 110.000000 to 110.000000 after response 0 at 228.818354'
p1552
aa(lp1553
S'trial 24 started at 230.564764426'
p1554
aS'trial 24 phase 6 started at 234.259522109'
p1555
aS'trial 24 event f at 235.376275941'
p1556
aS'staircase 1 updated from 70.000000 to 85.000000 after response 0 at 235.376293'
p1557
aa(lp1558
S'trial 25 started at 237.675031395'
p1559
aS'trial 25 phase 6 started at 240.86750083'
p1560
aS'trial 25 event s at 242.400943067'
p1561
aS'staircase 0 updated from 110.000000 to 110.000000 after response 0 at 242.400959'
p1562
aa(lp1563
S'trial 26 started at 244.284115682'
p1564
aS'trial 26 phase 6 started at 247.975551251'
p1565
aS'trial 26 event f at 250.042214781'
p1566
aS'staircase 1 updated from 85.000000 to 85.000000 after response 1 at 250.042230'
p1567
aa(lp1568
S'trial 27 started at 251.390427359'
p1569
aS'trial 27 phase 6 started at 255.083392418'
p1570
aS'trial 27 event s at 256.525168451'
p1571
aS'staircase 0 updated from 110.000000 to 110.000000 after response 0 at 256.525185'
p1572
aa(lp1573
S'trial 28 started at 258.500048892'
p1574
aS'trial 28 phase 6 started at 262.191398079'
p1575
aS'trial 28 event l at 264.366432753'
p1576
aS'staircase 2 updated from 1.000000 to 2.000000 after response 0 at 264.366450'
p1577
aa(lp1578
S'trial 29 started at 265.608201089'
p1579
aS'trial 29 phase 6 started at 268.799334608'
p1580
aS'trial 29 event f at 270.266108182'
p1581
aS'staircase 0 updated from 110.000000 to 110.000000 after response 0 at 270.266133'
p1582
aa(lp1583
S'trial 30 started at 272.217950483'
p1584
aS'trial 30 phase 6 started at 275.407319886'
p1585
aS'trial 30 event f at 277.249046029'
p1586
aS'staircase 0 updated from 110.000000 to 110.000000 after response 0 at 277.249081'
p1587
aa(lp1588
S'trial 31 started at 278.826692667'
p1589
aS'trial 31 phase 6 started at 282.015270954'
p1590
aS'trial 31 event l at 282.798764149'
p1591
aS'staircase 3 updated from 5.850000 to 5.850000 after response 1 at 282.798778'
p1592
aa(lp1593
S'trial 32 started at 285.434207552'
p1594
aS'trial 32 phase 6 started at 289.123234137'
p1595
aS'trial 32 event j at 289.823323797'
p1596
aS'staircase 3 updated from 5.850000 to 5.850000 after response 1 at 289.823337'
p1597
aa(lp1598
S'trial 33 started at 292.543268604'
p1599
aS'trial 33 phase 6 started at 295.739561622'
p1600
aS'trial 33 event l at 296.38135362'
p1601
aS'staircase 3 updated from 5.850000 to 5.127500 after response 1 at 296.381370'
p1602
aa(lp1603
S'trial 34 started at 299.185933823'
p1604
aS'trial 34 phase 6 started at 302.880842032'
p1605
aS'trial 34 event f at 304.330896412'
p1606
aS'staircase 1 updated from 85.000000 to 85.000000 after response 1 at 304.330910'
p1607
aa(lp1608
S'trial 35 started at 306.303007807'
p1609
aS'trial 35 phase 6 started at 309.997112357'
p1610
aS'trial 35 event l at 310.655602167'
p1611
aS'staircase 2 updated from 2.000000 to 2.000000 after response 1 at 310.655626'
p1612
aa(lp1613
S'trial 36 started at 313.416725466'
p1614
aS'trial 36 phase 6 started at 317.113413471'
p1615
aS'trial 36 event l at 317.913502133'
p1616
aS'staircase 2 updated from 2.000000 to 2.850000 after response 0 at 317.913520'
p1617
aa(lp1618
S'trial 37 started at 320.530336217'
p1619
aS'trial 37 phase 6 started at 323.721467455'
p1620
aS'trial 37 event f at 324.979766257'
p1621
aS'staircase 1 updated from 85.000000 to 72.250000 after response 1 at 324.979782'
p1622
aa(lp1623
S'trial 38 started at 327.139854121'
p1624
aS'trial 38 phase 6 started at 330.329346681'
p1625
aS'trial 38 event f at 332.312737531'
p1626
aS'staircase 1 updated from 72.250000 to 85.000000 after response 0 at 332.312757'
p1627
aa(lp1628
S'trial 39 started at 333.747278349'
p1629
aS'trial 39 phase 6 started at 336.93731913'
p1630
aS'trial 39 event j at 337.754099333'
p1631
aS'staircase 3 updated from 5.127500 to 5.127500 after response 1 at 337.754112'
p1632
aa(lp1633
S'trial 40 started at 340.359388546'
p1634
aS'trial 40 phase 6 started at 343.55361212'
p1635
aS'trial 40 event s at 345.278661119'
p1636
aS'staircase 0 updated from 110.000000 to 110.000000 after response 0 at 345.278678'
p1637
aa(lp1638
S'trial 41 started at 346.974423733'
p1639
aS'trial 41 phase 6 started at 350.169932762'
p1640
aS'trial 41 event f at 351.886659226'
p1641
aS'staircase 0 updated from 110.000000 to 110.000000 after response 0 at 351.886675'
p1642
aa(lp1643
S'trial 42 started at 353.58926164'
p1644
aS'trial 42 phase 6 started at 357.277873424'
p1645
aS'trial 42 event s at 359.419578613'
p1646
aS'staircase 1 updated from 85.000000 to 85.000000 after response 1 at 359.419593'
p1647
aa(lp1648
S'trial 43 started at 360.699256066'
p1649
aS'trial 43 phase 6 started at 363.894162708'
p1650
aS'trial 43 event f at 365.627552773'
p1651
aS'staircase 0 updated from 110.000000 to 110.000000 after response 0 at 365.627568'
p1652
aa(lp1653
S'trial 44 started at 367.316223001'
p1654
aS'trial 44 phase 6 started at 371.010469809'
p1655
aS'trial 44 event l at 372.377188789'
p1656
aS'staircase 3 updated from 5.127500 to 5.850000 after response 0 at 372.377207'
p1657
aa(lp1658
S'trial 45 started at 374.451605537'
p1659
aS'trial 45 phase 6 started at 377.643424974'
p1660
aS'trial 45 event f at 379.360161416'
p1661
aS'staircase 1 updated from 85.000000 to 85.000000 after response 1 at 379.360176'
p1662
aa(lp1663
S'trial 46 started at 381.083063142'
p1664
aS'trial 46 phase 6 started at 384.276416061'
p1665
aS'trial 46 event j at 385.184853914'
p1666
aS'staircase 2 updated from 2.850000 to 2.850000 after response 1 at 385.184870'
p1667
aa(lp1668
S'trial 47 started at 387.715326688'
p1669
aS'trial 47 phase 6 started at 391.409343431'
p1670
aS'trial 47 event s at 392.94276172'
p1671
aS'staircase 0 updated from 110.000000 to 110.000000 after response 0 at 392.942797'
p1672
aa(lp1673
S'trial 48 started at 394.853494521'
p1674
aS'trial 48 phase 6 started at 398.542312424'
p1675
aS'trial 48 event l at 399.659080795'
p1676
aS'staircase 3 updated from 5.850000 to 5.850000 after response 1 at 399.659095'
p1677
aa(lp1678
S'trial 49 started at 401.979534482'
p1679
aS'trial 49 phase 6 started at 405.675255188'
p1680
aS'trial 49 event f at 406.525351191'
p1681
aS'staircase 1 updated from 85.000000 to 74.162500 after response 1 at 406.525366'
p1682
aa(lp1683
S'trial 50 started at 409.121884822'
p1684
aS'trial 50 phase 6 started at 412.816530467'
p1685
aS'trial 50 event j at 413.974949433'
p1686
aS'staircase 3 updated from 5.850000 to 5.850000 after response 1 at 413.974973'
p1687
aa(lp1688
S'trial 51 started at 416.254485768'
p1689
aS'trial 51 phase 6 started at 419.949489766'
p1690
aS'trial 51 event l at 420.491287038'
p1691
aS'staircase 3 updated from 5.850000 to 5.235875 after response 1 at 420.491304'
p1692
aa(lp1693
S'trial 52 started at 423.386138515'
p1694
aS'trial 52 phase 6 started at 427.082428539'
p1695
aS'trial 52 event l at 427.907538975'
p1696
aS'staircase 2 updated from 2.850000 to 3.572500 after response 0 at 427.907556'
p1697
aa(lp1698
S'trial 53 started at 430.522896595'
p1699
aS'trial 53 phase 6 started at 434.21539126'
p1700
aS'trial 53 event j at 435.240511959'
p1701
aS'staircase 3 updated from 5.235875 to 5.235875 after response 1 at 435.240526'
p1702
aa(lp1703
S'trial 54 started at 437.656797821'
p1704
aS'trial 54 phase 6 started at 440.848379781'
p1705
aS'trial 54 event f at 442.223430705'
p1706
aS'staircase 1 updated from 74.162500 to 74.162500 after response 1 at 442.223444'
p1707
aa(lp1708
S'trial 55 started at 444.291204933'
p1709
aS'trial 55 phase 6 started at 447.481328675'
p1710
aS'trial 55 event f at 448.589729752'
p1711
aa(lp1712
S'trial 56 started at 450.923252668'
p1713
aS'trial 56 phase 6 started at 454.114310924'
p1714
aS'trial 56 event l at 454.872741294'
p1715
aS'staircase 2 updated from 3.572500 to 3.572500 after response 1 at 454.872757'
p1716
aa(lp1717
S'trial 57 started at 457.554068828'
p1718
aS'trial 57 phase 6 started at 461.247249127'
p1719
aS'trial 57 event l at 462.055671728'
p1720
aS'staircase 3 updated from 5.235875 to 5.235875 after response 1 at 462.055686'
p1721
aa(lp1722
S'trial 58 started at 464.692477275'
p1723
aS'trial 58 phase 6 started at 467.888538517'
p1724
aS'trial 58 event f at 469.855239537'
p1725
aS'staircase 1 updated from 74.162500 to 85.000000 after response 0 at 469.855258'
p1726
aa(lp1727
S'trial 59 started at 471.328302409'
p1728
aS'trial 59 phase 6 started at 475.021516348'
p1729
aS'trial 59 event f at 475.988255854'
p1730
aS'staircase 1 updated from 85.000000 to 85.000000 after response 1 at 475.988272'
p1731
aa(lp1732
S'trial 60 started at 478.461930807'
p1733
aS'trial 60 phase 6 started at 482.154454836'
p1734
aS'trial 60 event j at 483.354530669'
p1735
aS'staircase 3 updated from 5.235875 to 4.621750 after response 1 at 483.354547'
p1736
aa(lp1737
S'trial 61 started at 485.594178815'
p1738
aS'trial 61 phase 6 started at 488.78743794'
p1739
aS'trial 61 event l at 489.429190881'
p1740
aS'staircase 2 updated from 3.572500 to 3.572500 after response 1 at 489.429205'
p1741
aa(lp1742
S'trial 62 started at 492.227016525'
p1743
aS'trial 62 phase 6 started at 495.420378282'
p1744
aS'trial 62 event j at 496.678793969'
p1745
aS'staircase 2 updated from 3.572500 to 4.186625 after response 0 at 496.678811'
p1746
aa(lp1747
S'trial 63 started at 498.865002901'
p1748
aS'trial 63 phase 6 started at 502.053360531'
p1749
aS'trial 63 event j at 502.778398697'
p1750
aS'staircase 2 updated from 4.186625 to 4.186625 after response 1 at 502.778414'
p1751
aa(lp1752
S'trial 64 started at 505.503453398'
p1753
aS'trial 64 phase 6 started at 508.694679855'
p1754
aS'trial 64 event j at 509.561470249'
p1755
aS'staircase 2 updated from 4.186625 to 4.186625 after response 1 at 509.561483'
p1756
aa(lp1757
S'trial 65 started at 512.140940872'
p1758
aS'trial 65 phase 6 started at 515.335998894'
p1759
aS'trial 65 event f at 516.469388959'
p1760
aS'staircase 1 updated from 85.000000 to 85.000000 after response 1 at 516.469412'
p1761
aa(lp1762
S'trial 66 started at 518.781792083'
p1763
aS'trial 66 phase 6 started at 522.477260203'
p1764
aS'trial 66 event f at 523.260703508'
p1765
aa(lp1766
S'trial 67 started at 525.921302675'
p1767
aS'trial 67 phase 6 started at 529.610194985'
p1768
aS'trial 67 event f at 530.518624001'
p1769
aa(lp1770
S'trial 68 started at 533.075122338'
p1771
aS'trial 68 phase 6 started at 536.768148975'
p1772
aS'trial 68 event s at 538.318214331'
p1773
aS'staircase 1 updated from 85.000000 to 75.788125 after response 1 at 538.318231'
p1774
aa(lp1775
S'trial 69 started at 540.212623068'
p1776
aS'trial 69 phase 6 started at 543.401119535'
p1777
aS'trial 69 event s at 544.759520826'
p1778
aS'staircase 1 updated from 75.788125 to 75.788125 after response 1 at 544.759535'
p1779
aa(lp1780
S'trial 70 started at 546.853796998'
p1781
aS'trial 70 phase 6 started at 550.042398662'
p1782
aS'trial 70 event l at 550.467546444'
p1783
aS'staircase 2 updated from 4.186625 to 3.664619 after response 1 at 550.467563'
p1784
aa(lp1785
S'trial 71 started at 553.487050935'
p1786
aS'trial 71 phase 6 started at 557.183700739'
p1787
aS'trial 71 event j at 558.183796528'
p1788
aS'staircase 2 updated from 3.664619 to 3.664619 after response 1 at 558.183810'
p1789
aa(lp1790
S'trial 72 started at 560.630112281'
p1791
aS'trial 72 phase 6 started at 563.825006949'
p1792
aS'trial 72 event l at 564.275122623'
p1793
aS'staircase 2 updated from 3.664619 to 3.664619 after response 1 at 564.275136'
p1794
aa(lp1795
S'trial 73 started at 567.272354431'
p1796
aS'trial 73 phase 6 started at 570.466332545'
p1797
aS'trial 73 event f at 573.049650412'
p1798
aS'staircase 0 updated from 110.000000 to 110.000000 after response 0 at 573.049666'
p1799
aa(lp1800
S'trial 74 started at 573.912337839'
p1801
aS'trial 74 phase 6 started at 577.107644457'
p1802
aS'trial 74 event f at 577.824467565'
p1803
aS'staircase 0 updated from 110.000000 to 110.000000 after response 0 at 577.824484'
p1804
aa(lp1805
S'trial 75 started at 580.55313517'
p1806
aS'trial 75 phase 6 started at 583.748971479'
p1807
aS'trial 75 event f at 584.740704535'
p1808
aa(lp1809
S'trial 76 started at 587.196194093'
p1810
aS'trial 76 phase 6 started at 590.890245046'
p1811
aS'trial 76 event f at 592.273645589'
p1812
aS'staircase 1 updated from 75.788125 to 75.788125 after response 1 at 592.273660'
p1813
aa(lp1814
S'trial 77 started at 594.335226879'
p1815
aS'trial 77 phase 6 started at 597.531525884'
p1816
aS'trial 77 event s at 598.440002224'
p1817
aS'staircase 0 updated from 110.000000 to 110.000000 after response 0 at 598.440018'
p1818
aa(lp1819
S'trial 78 started at 600.985259308'
p1820
aS'trial 78 phase 6 started at 604.681175298'
p1821
aS'trial 78 event l at 606.164529229'
p1822
aS'staircase 3 updated from 4.621750 to 4.621750 after response 1 at 606.164544'
p1823
aa(lp1824
S'trial 79 started at 608.127678639'
p1825
aS'trial 79 phase 6 started at 611.322459557'
p1826
aS'trial 79 event f at 612.414185914'
p1827
aS'staircase 0 updated from 110.000000 to 110.000000 after response 0 at 612.414203'
p1828
aa(lp1829
S'trial 80 started at 614.769387391'
p1830
aS'trial 80 phase 6 started at 618.463742818'
p1831
aS'trial 80 event l at 619.588815194'
p1832
aS'staircase 3 updated from 4.621750 to 5.235875 after response 0 at 619.588858'
p1833
aa(lp1834
S'trial 81 started at 621.911681855'
p1835
aS'trial 81 phase 6 started at 625.605020947'
p1836
aS'trial 81 event l at 626.763450746'
p1837
aS'staircase 3 updated from 5.235875 to 5.757881 after response 0 at 626.763467'
p1838
aa(lp1839
S'trial 82 started at 629.05368781'
p1840
aS'trial 82 phase 6 started at 632.746289383'
p1841
aS'trial 82 event f at 634.063066022'
p1842
aS'staircase 1 updated from 75.788125 to 66.576250 after response 1 at 634.063083'
p1843
aa(lp1844
S'trial 83 started at 636.204066477'
p1845
aS'trial 83 phase 6 started at 639.395958326'
p1846
aS'trial 83 event f at 640.662677449'
p1847
aS'staircase 0 updated from 110.000000 to 110.000000 after response 0 at 640.662693'
p1848
aa(lp1849
S'trial 84 started at 642.845997312'
p1850
aS'trial 84 phase 6 started at 646.537242157'
p1851
aS'trial 84 event f at 648.420614903'
p1852
aS'staircase 1 updated from 66.576250 to 75.788125 after response 0 at 648.420632'
p1853
aa(lp1854
S'trial 85 started at 649.985424943'
p1855
aS'trial 85 phase 6 started at 653.678506032'
p1856
aS'trial 85 event j at 655.361980554'
p1857
aS'staircase 3 updated from 5.757881 to 6.279887 after response 0 at 655.361997'
p1858
aS'trial 85 event f at 655.478524277'
p1859
aa(lp1860
S'trial 86 started at 657.131138736'
p1861
aS'trial 86 phase 6 started at 660.319814238'
p1862
aS'trial 86 event l at 661.694897661'
p1863
aS'staircase 3 updated from 6.279887 to 6.801894 after response 0 at 661.694914'
p1864
aa(lp1865
S'trial 87 started at 663.767856761'
p1866
aS'trial 87 phase 6 started at 667.461096073'
p1867
aS'trial 87 event f at 669.177820541'
p1868
aS'staircase 0 updated from 110.000000 to 110.000000 after response 0 at 669.177835'
p1869
aa(lp1870
S'trial 88 started at 670.917331988'
p1871
aS'trial 88 phase 6 started at 674.110769862'
p1872
aS'trial 88 event j at 675.12751671'
p1873
aS'staircase 3 updated from 6.801894 to 6.801894 after response 1 at 675.127532'
p1874
aa(lp1875
S'trial 89 started at 677.56020589'
p1876
aS'trial 89 phase 6 started at 680.752043573'
p1877
aS'trial 89 event l at 682.1604542'
p1878
aS'staircase 2 updated from 3.664619 to 3.142612 after response 1 at 682.160470'
p1879
aa(lp1880
S'trial 90 started at 684.200959032'
p1881
aS'trial 90 phase 6 started at 687.393370594'
p1882
aS'trial 90 event l at 688.368451452'
p1883
aa(lp1884
S'trial 91 started at 690.842985371'
p1885
aS'trial 91 phase 6 started at 694.034663975'
p1886
aS'trial 91 event s at 695.009672421'
p1887
aS'staircase 0 updated from 110.000000 to 110.000000 after response 0 at 695.009688'
p1888
aa(lp1889
S'trial 92 started at 697.485250613'
p1890
aS'trial 92 phase 6 started at 700.675990712'
p1891
aS'trial 92 event f at 702.842692587'
p1892
aS'staircase 1 updated from 75.788125 to 85.000000 after response 0 at 702.842708'
p1893
aa(lp1894
S'trial 93 started at 704.137026631'
p1895
aS'trial 93 phase 6 started at 707.825607912'
p1896
aS'trial 93 event s at 708.625745894'
p1897
aS'staircase 0 updated from 110.000000 to 110.000000 after response 0 at 708.625761'
p1898
aa(lp1899
S'trial 94 started at 711.276069111'
p1900
aS'trial 94 phase 6 started at 714.966886896'
p1901
aS'trial 94 event s at 715.766994944'
p1902
aS'staircase 1 updated from 85.000000 to 85.000000 after response 1 at 715.767011'
p1903
aa(lp1904
S'trial 95 started at 718.417440748'
p1905
aS'trial 95 phase 6 started at 722.108186122'
p1906
aS'trial 95 event j at 723.216581497'
p1907
aS'staircase 3 updated from 6.801894 to 6.801894 after response 1 at 723.216596'
p1908
aa(lp1909
S'trial 96 started at 725.561307179'
p1910
aS'trial 96 phase 6 started at 728.757807455'
p1911
aS'trial 96 event l at 729.574571978'
p1912
aS'staircase 3 updated from 6.801894 to 6.279887 after response 1 at 729.574588'
p1913
aa(lp1914
S'trial 97 started at 732.205832018'
p1915
aS'trial 97 phase 6 started at 735.3991111'
p1916
aS'trial 97 event l at 737.649128134'
p1917
aa(lp1918
S'trial 98 started at 738.851702181'
p1919
aS'trial 98 phase 6 started at 742.540388944'
p1920
aS'trial 98 event j at 743.507139283'
p1921
aS'staircase 2 updated from 3.142612 to 3.142612 after response 1 at 743.507153'
p1922
aa(lp1923
S'trial 99 started at 745.993362042'
p1924
aS'trial 99 phase 6 started at 749.181709123'
p1925
aS'trial 99 event s at 750.340131796'
p1926
aS'staircase 0 updated from 110.000000 to 110.000000 after response 0 at 750.340147'
p1927
aasS'trialResponses'
p1928
(lp1929
s.