(lp1
ccopy_reg
_reconstructor
p2
(cStaircase
ThreeUpOneDownStaircase
p3
c__builtin__
object
p4
NtRp5
(dp6
S'nr_reversals'
p7
I10
sS'nr_correct'
p8
I0
sS'max_nr_trials'
p9
I10000
sS'past_answers'
p10
(lp11
I1
aI1
aI0
aI0
aI0
aI0
aI0
aI0
aI0
aI0
aI0
aI0
aI0
aI0
aI0
aI0
aI0
aI0
aI0
aI0
aI0
aI0
aI0
aI0
asS'present_increment_value'
p12
I15
sS'initial_value'
p13
I70
sS'nr_trials'
p14
I24
sS'initial_stepsize'
p15
I15
sS'min_test_val'
p16
F0.001
sS'max_test_val'
p17
I110
sS'increment_value'
p18
I15
sS'stepsize_multiplication_on_reversal'
p19
F0.84999999999999998
sS'test_values'
p20
(lp21
I70
aI85
aI100
aI110
aI110
aI110
aI110
aI110
aI110
aI110
aI110
aI110
aI110
aI110
aI110
aI110
aI110
aI110
aI110
aI110
aI110
aI110
aI110
asS'present_nr_reversals'
p22
I1
sbag2
(g3
g4
NtRp23
(dp24
g7
I10
sg8
I1
sg9
I10000
sg10
(lp25
I1
aI1
aI1
aI0
aI0
aI1
aI1
aI1
aI0
aI1
aI1
aI1
aI1
aI0
aI1
aI1
aI1
aI1
aI1
aI1
aI0
aI0
aI1
asg12
F7.8300937500000005
sg13
I70
sg14
I23
sg15
I15
sg16
F0.001
sg17
I110
sg18
I15
sg19
F0.84999999999999998
sg20
(lp26
I70
aI55
aI70
aI85
aF72.25
aF85
aF74.162499999999994
aF85
aF75.788124999999994
aF66.576249999999987
aF75.788124999999994
aF85
asg22
I8
sbag2
(g3
g4
NtRp27
(dp28
g7
I10
sg8
I1
sg9
I10000
sg10
(lp29
I1
aI1
aI1
aI1
aI1
aI1
aI0
aI1
aI0
aI1
aI0
aI1
aI1
aI0
aI1
aI1
aI1
aI1
aI1
aI1
aI1
asg12
F0.52200624999999989
sg13
I3
sg14
I21
sg15
I1
sg16
F0.001
sg17
I15
sg18
I1
sg19
F0.84999999999999998
sg20
(lp30
I3
aI2
aI1
aI2
aF2.8500000000000001
aF3.5724999999999998
aF4.1866249999999994
aF3.6646187499999994
aF3.1426124999999994
asg22
I8
sbag2
(g3
g4
NtRp31
(dp32
g7
I10
sg8
I0
sg9
I10000
sg10
(lp33
I0
aI1
aI0
aI1
aI1
aI0
aI1
aI1
aI1
aI1
aI0
aI1
aI1
aI1
aI1
aI1
aI1
aI1
aI0
aI0
aI0
aI0
aI1
aI1
aI1
asg12
F0.52200624999999989
sg13
I3
sg14
I25
sg15
I1
sg16
F0.001
sg17
I15
sg18
I1
sg19
F0.84999999999999998
sg20
(lp34
I3
aI4
aI5
aF5.8499999999999996
aF5.1274999999999995
aF5.8499999999999996
aF5.2358750000000001
aF4.6217500000000005
aF5.2358750000000001
aF5.7578812499999996
aF6.2798874999999992
aF6.8018937499999987
aF6.2798874999999992
asg22
I9
sba.