(dp0
S'parameterArray'
p1
(lp2
(dp3
S'reaction_time'
p4
F1.400043903349797
sS'trial_start'
p5
F154.32401327933803
sS'task'
p6
I1
sS'trial_orientation'
p7
F3.0
sS'base_color_lum'
p8
cnumpy.core.multiarray
scalar
p9
(cnumpy
dtype
p10
(S'i4'
p11
I0
I1
tp12
Rp13
(I3
S'<'
p14
NNNI-1
I-1
I0
tp15
bS'7\x00\x00\x00'
p16
tp17
Rp18
sS'button'
p19
S'f'
p20
sS'trial_cue'
p21
S'green45'
p22
sS'trial_color'
p23
I-70
sS'trial_stimulus_label'
p24
S'green135'
p25
sS'trial_stimulus'
p26
I3
sS'base_ori'
p27
g9
(g13
S'\x87\x00\x00\x00'
p28
tp29
Rp30
sS'trial_end'
p31
F160.66857247117332
sS'base_color_b'
p32
g9
(g13
S'K\x00\x00\x00'
p33
tp34
Rp35
sS'base_color_a'
p36
g9
(g13
S'\xb0\xff\xff\xff'
p37
tp38
Rp39
sS'correct_answer'
p40
I1
sS'trial_position_y'
p41
I0
sS'trial_position_x'
p42
I0
sS'response'
p43
I1
sS'trial_direction'
p44
F1.0
sa(dp45
g4
F1.7250110827444587
sg5
F160.91791014352566
sg6
I1
sg7
F-3.0
sg8
g9
(g13
S'7\x00\x00\x00'
p46
tp47
Rp48
sg19
S'f'
p49
sg21
g22
sg23
I-70
sg24
g22
sg26
I2
sg27
g9
(g13
S'-\x00\x00\x00'
p50
tp51
Rp52
sg31
F167.75985181193937
sg32
g9
(g13
S'K\x00\x00\x00'
p53
tp54
Rp55
sg36
g9
(g13
S'\xb0\xff\xff\xff'
p56
tp57
Rp58
sg40
I1
sg41
I0
sg42
I0
sg43
I1
sg44
F1.0
sa(dp59
g4
F1.1417220091207128
sg5
F168.00852067092274
sg6
I1
sg7
F3.0
sg8
g9
(g13
S'7\x00\x00\x00'
p60
tp61
Rp62
sg19
S'f'
p63
sg21
g25
sg23
I-70
sg24
g25
sg26
I3
sg27
g9
(g13
S'\x87\x00\x00\x00'
p64
tp65
Rp66
sg31
F174.35115552761636
sg32
g9
(g13
S'K\x00\x00\x00'
p67
tp68
Rp69
sg36
g9
(g13
S'\xb0\xff\xff\xff'
p70
tp71
Rp72
sg40
I1
sg41
I0
sg42
I0
sg43
I1
sg44
F1.0
sa(dp73
g4
F2.81662340476214
sg5
F174.6049063418959
sg6
I1
sg7
F3.0
sg8
g9
(g13
S'7\x00\x00\x00'
p74
tp75
Rp76
sg19
S'f'
p77
sg21
S'red135'
p78
sg23
I70
sg24
g78
sg26
I1
sg27
g9
(g13
S'\x87\x00\x00\x00'
p79
tp80
Rp81
sg31
F181.45076795226487
sg32
g9
(g13
S'K\x00\x00\x00'
p82
tp83
Rp84
sg36
g9
(g13
S'P\x00\x00\x00'
p85
tp86
Rp87
sg40
I1
sg41
I0
sg42
I0
sg43
I1
sg44
F1.0
sa(dp88
g4
F1.3083648710471607
sg5
F181.69979259943466
sg6
I1
sg7
F3.0
sg8
g9
(g13
S'7\x00\x00\x00'
p89
tp90
Rp91
sg19
S'f'
p92
sg21
g25
sg23
I-55
sg24
g25
sg26
I3
sg27
g9
(g13
S'\x87\x00\x00\x00'
p93
tp94
Rp95
sg31
F188.0420867775356
sg32
g9
(g13
S'K\x00\x00\x00'
p96
tp97
Rp98
sg36
g9
(g13
S'\xb0\xff\xff\xff'
p99
tp100
Rp101
sg40
I1
sg41
I0
sg42
I0
sg43
I1
sg44
F1.0
sa(dp102
g4
F1.7417254301599314
sg5
F188.29354321415303
sg6
I1
sg7
F-3.0
sg8
g9
(g13
S'7\x00\x00\x00'
p103
tp104
Rp105
sg19
S's'
p106
sg21
g22
sg23
I-55
sg24
g22
sg26
I2
sg27
g9
(g13
S'-\x00\x00\x00'
p107
tp108
Rp109
sg31
F194.6333904932144
sg32
g9
(g13
S'K\x00\x00\x00'
p110
tp111
Rp112
sg36
g9
(g13
S'\xb0\xff\xff\xff'
p113
tp114
Rp115
sg40
I1
sg41
I0
sg42
I0
sg43
I-1
sg44
F-1.0
sa(dp116
g4
F2.333349298187386
sg5
F194.8803864635138
sg6
I1
sg7
F-3.0
sg8
g9
(g13
S'7\x00\x00\x00'
p117
tp118
Rp119
sg19
S's'
p120
sg21
g78
sg23
I70
sg24
g78
sg26
I1
sg27
g9
(g13
S'\x87\x00\x00\x00'
p121
tp122
Rp123
sg31
F201.7246638471588
sg32
g9
(g13
S'K\x00\x00\x00'
p124
tp125
Rp126
sg36
g9
(g13
S'P\x00\x00\x00'
p127
tp128
Rp129
sg40
I1
sg41
I0
sg42
I0
sg43
I-1
sg44
F-1.0
sa(dp130
g4
F2.066652697418249
sg5
F201.97151584868152
sg6
I1
sg7
F3.0
sg8
g9
(g13
S'7\x00\x00\x00'
p131
tp132
Rp133
sg19
S'f'
p134
sg21
g22
sg23
I70
sg24
S'red45'
p135
sg26
I0
sg27
g9
(g13
S'-\x00\x00\x00'
p136
tp137
Rp138
sg31
F208.31598267243135
sg32
g9
(g13
S'K\x00\x00\x00'
p139
tp140
Rp141
sg36
g9
(g13
S'P\x00\x00\x00'
p142
tp143
Rp144
sg40
I0
sg41
I0
sg42
I0
sg43
I1
sg44
F-1.0
sa(dp145
g4
F1.7583508305287978
sg5
F208.57183172473015
sg6
I1
sg7
F-3.0
sg8
g9
(g13
S'7\x00\x00\x00'
p146
tp147
Rp148
sg19
S'f'
p149
sg21
g78
sg23
I85
sg24
g78
sg26
I1
sg27
g9
(g13
S'\x87\x00\x00\x00'
p150
tp151
Rp152
sg31
F214.91561291499602
sg32
g9
(g13
S'K\x00\x00\x00'
p153
tp154
Rp155
sg36
g9
(g13
S'P\x00\x00\x00'
p156
tp157
Rp158
sg40
I1
sg41
I0
sg42
I0
sg43
I1
sg44
F1.0
sa(dp159
g4
F1.5333624121758476
sg5
F215.16826586044044
sg6
I1
sg7
F3.0
sg8
g9
(g13
S'7\x00\x00\x00'
p160
tp161
Rp162
sg19
S'f'
p163
sg21
g135
sg23
I-55
sg24
g25
sg26
I3
sg27
g9
(g13
S'\x87\x00\x00\x00'
p164
tp165
Rp166
sg31
F221.50693459113427
sg32
g9
(g13
S'K\x00\x00\x00'
p167
tp168
Rp169
sg36
g9
(g13
S'\xb0\xff\xff\xff'
p170
tp171
Rp172
sg40
I1
sg41
I0
sg42
I0
sg43
I1
sg44
F1.0
sa(dp173
g4
F1.2667065788027685
sg5
F221.75832944902686
sg6
I1
sg7
F-3.0
sg8
g9
(g13
S'7\x00\x00\x00'
p174
tp175
Rp176
sg19
S'f'
p177
sg21
g78
sg23
I85
sg24
g78
sg26
I1
sg27
g9
(g13
S'\x87\x00\x00\x00'
p178
tp179
Rp180
sg31
F228.09823859189964
sg32
g9
(g13
S'K\x00\x00\x00'
p181
tp182
Rp183
sg36
g9
(g13
S'P\x00\x00\x00'
p184
tp185
Rp186
sg40
I1
sg41
I0
sg42
I0
sg43
I1
sg44
F1.0
sa(dp187
g4
F1.4667313813442888
sg5
F228.3477262198503
sg6
I1
sg7
F-3.0
sg8
g9
(g13
S'7\x00\x00\x00'
p188
tp189
Rp190
sg19
S'f'
p191
sg21
g135
sg23
I85
sg24
g135
sg26
I0
sg27
g9
(g13
S'-\x00\x00\x00'
p192
tp193
Rp194
sg31
F235.1895270554396
sg32
g9
(g13
S'K\x00\x00\x00'
p195
tp196
Rp197
sg36
g9
(g13
S'P\x00\x00\x00'
p198
tp199
Rp200
sg40
I1
sg41
I0
sg42
I0
sg43
I1
sg44
F1.0
sa(dp201
g4
F2.1417000574438134
sg5
F235.43815856806577
sg6
I1
sg7
F3.0
sg8
g9
(g13
S'7\x00\x00\x00'
p202
tp203
Rp204
sg19
S'f'
p205
sg21
g25
sg23
I-40
sg24
g22
sg26
I2
sg27
g9
(g13
S'-\x00\x00\x00'
p206
tp207
Rp208
sg31
F242.28079926903774
sg32
g9
(g13
S'K\x00\x00\x00'
p209
tp210
Rp211
sg36
g9
(g13
S'\xb0\xff\xff\xff'
p212
tp213
Rp214
sg40
I1
sg41
I0
sg42
I0
sg43
I1
sg44
F1.0
sa(dp215
g4
F1.7583274534208613
sg5
F242.53089983336577
sg6
I1
sg7
F-3.0
sg8
g9
(g13
S'7\x00\x00\x00'
p216
tp217
Rp218
sg19
S'f'
p219
sg21
g135
sg23
F72.25
sg24
g135
sg26
I0
sg27
g9
(g13
S'-\x00\x00\x00'
p220
tp221
Rp222
sg31
F248.87213833546411
sg32
g9
(g13
S'K\x00\x00\x00'
p223
tp224
Rp225
sg36
g9
(g13
S'P\x00\x00\x00'
p226
tp227
Rp228
sg40
I1
sg41
I0
sg42
I0
sg43
I1
sg44
F1.0
sa(dp229
g4
F1.2167146325027716
sg5
F249.1261309032543
sg6
I1
sg7
F3.0
sg8
g9
(g13
S'7\x00\x00\x00'
p230
tp231
Rp232
sg19
S's'
p233
sg21
g78
sg23
F72.25
sg24
g78
sg26
I1
sg27
g9
(g13
S'\x87\x00\x00\x00'
p234
tp235
Rp236
sg31
F255.97173251456297
sg32
g9
(g13
S'K\x00\x00\x00'
p237
tp238
Rp239
sg36
g9
(g13
S'P\x00\x00\x00'
p240
tp241
Rp242
sg40
I1
sg41
I0
sg42
I0
sg43
I-1
sg44
F-1.0
sa(dp243
g4
F0.8750926888096728
sg5
F256.2236881379704
sg6
I1
sg7
F3.0
sg8
g9
(g13
S'7\x00\x00\x00'
p244
tp245
Rp246
sg19
S's'
p247
sg21
g22
sg23
I-40
sg24
g22
sg26
I2
sg27
g9
(g13
S'-\x00\x00\x00'
p248
tp249
Rp250
sg31
F262.5630348048071
sg32
g9
(g13
S'K\x00\x00\x00'
p251
tp252
Rp253
sg36
g9
(g13
S'\xb0\xff\xff\xff'
p254
tp255
Rp256
sg40
I1
sg41
I0
sg42
I0
sg43
I-1
sg44
F-1.0
sa(dp257
g4
F1.3167250381666236
sg5
F262.8155192640188
sg6
I1
sg7
F-3.0
sg8
g9
(g13
S'7\x00\x00\x00'
p258
tp259
Rp260
sg19
S's'
p261
sg21
g22
sg23
F72.25
sg24
g135
sg26
I0
sg27
g9
(g13
S'-\x00\x00\x00'
p262
tp263
Rp264
sg31
F269.65433581216166
sg32
g9
(g13
S'K\x00\x00\x00'
p265
tp266
Rp267
sg36
g9
(g13
S'P\x00\x00\x00'
p268
tp269
Rp270
sg40
I1
sg41
I0
sg42
I0
sg43
I-1
sg44
F-1.0
sa(dp271
g4
F1.0917223654796544
sg5
F269.90610498887327
sg6
I1
sg7
F3.0
sg8
g9
(g13
S'7\x00\x00\x00'
p272
tp273
Rp274
sg19
S's'
p275
sg21
g22
sg23
I-40
sg24
g22
sg26
I2
sg27
g9
(g13
S'-\x00\x00\x00'
p276
tp277
Rp278
sg31
F276.74560118367845
sg32
g9
(g13
S'K\x00\x00\x00'
p279
tp280
Rp281
sg36
g9
(g13
S'\xb0\xff\xff\xff'
p282
tp283
Rp284
sg40
I1
sg41
I0
sg42
I0
sg43
I-1
sg44
F-1.0
sa(dp285
g4
F1.3500539526557986
sg5
F277.0099036264437
sg6
I1
sg7
F3.0
sg8
g9
(g13
S'7\x00\x00\x00'
p286
tp287
Rp288
sg19
S'f'
p289
sg21
g78
sg23
F59.5
sg24
g78
sg26
I1
sg27
g9
(g13
S'\x87\x00\x00\x00'
p290
tp291
Rp292
sg31
F283.3535927337107
sg32
g9
(g13
S'K\x00\x00\x00'
p293
tp294
Rp295
sg36
g9
(g13
S'P\x00\x00\x00'
p296
tp297
Rp298
sg40
I1
sg41
I0
sg42
I0
sg43
I1
sg44
F1.0
sa(dp299
g4
F1.6250186375436897
sg5
F283.609349417924
sg6
I1
sg7
F3.0
sg8
g9
(g13
S'7\x00\x00\x00'
p300
tp301
Rp302
sg19
S'f'
p303
sg21
g22
sg23
I-25
sg24
g22
sg26
I2
sg27
g9
(g13
S'-\x00\x00\x00'
p304
tp305
Rp306
sg31
F289.95323352448395
sg32
g9
(g13
S'K\x00\x00\x00'
p307
tp308
Rp309
sg36
g9
(g13
S'\xb0\xff\xff\xff'
p310
tp311
Rp312
sg40
I1
sg41
I0
sg42
I0
sg43
I1
sg44
F1.0
sa(dp313
g5
F290.2093226197758
sg6
I1
sg7
F-3.0
sg8
g9
(g13
S'7\x00\x00\x00'
p314
tp315
Rp316
sg21
g135
sg23
F59.5
sg24
g135
sg26
I0
sg27
g9
(g13
S'-\x00\x00\x00'
p317
tp318
Rp319
sg31
F297.0528545017314
sg32
g9
(g13
S'K\x00\x00\x00'
p320
tp321
Rp322
sg36
g9
(g13
S'P\x00\x00\x00'
p323
tp324
Rp325
sg41
I0
sg42
I0
sa(dp326
g5
F297.3080013855215
sg6
I1
sg7
F3.0
sg8
g9
(g13
S'7\x00\x00\x00'
p327
tp328
Rp329
sg21
g25
sg23
F59.5
sg24
g78
sg26
I1
sg27
g9
(g13
S'\x87\x00\x00\x00'
p330
tp331
Rp332
sg31
F303.6524918714658
sg32
g9
(g13
S'K\x00\x00\x00'
p333
tp334
Rp335
sg36
g9
(g13
S'P\x00\x00\x00'
p336
tp337
Rp338
sg41
I0
sg42
I0
sa(dp339
g5
F303.90508979517836
sg6
I1
sg7
F3.0
sg8
g9
(g13
S'7\x00\x00\x00'
p340
tp341
Rp342
sg21
g78
sg23
F59.5
sg24
g78
sg26
I1
sg27
g9
(g13
S'\x87\x00\x00\x00'
p343
tp344
Rp345
sg31
F310.24382637650524
sg32
g9
(g13
S'K\x00\x00\x00'
p346
tp347
Rp348
sg36
g9
(g13
S'P\x00\x00\x00'
p349
tp350
Rp351
sg41
I0
sg42
I0
sa(dp352
g5
F310.5006666752179
sg6
I1
sg7
F3.0
sg8
g9
(g13
S'7\x00\x00\x00'
p353
tp354
Rp355
sg21
g25
sg23
I-25
sg24
g25
sg26
I3
sg27
g9
(g13
S'\x87\x00\x00\x00'
p356
tp357
Rp358
sg31
F317.34342084069067
sg32
g9
(g13
S'K\x00\x00\x00'
p359
tp360
Rp361
sg36
g9
(g13
S'\xb0\xff\xff\xff'
p362
tp363
Rp364
sg41
I0
sg42
I0
sa(dp365
g5
F317.60985829766105
sg6
I1
sg7
F3.0
sg8
g9
(g13
S'7\x00\x00\x00'
p366
tp367
Rp368
sg21
g135
sg23
F59.5
sg24
g135
sg26
I0
sg27
g9
(g13
S'-\x00\x00\x00'
p369
tp370
Rp371
sg31
F323.9514009872546
sg32
g9
(g13
S'K\x00\x00\x00'
p372
tp373
Rp374
sg36
g9
(g13
S'P\x00\x00\x00'
p375
tp376
Rp377
sg41
I0
sg42
I0
sa(dp378
g5
F324.20982266182546
sg6
I1
sg7
F3.0
sg8
g9
(g13
S'7\x00\x00\x00'
p379
tp380
Rp381
sg21
g78
sg23
F59.5
sg24
g78
sg26
I1
sg27
g9
(g13
S'\x87\x00\x00\x00'
p382
tp383
Rp384
sg31
F331.0510236750233
sg32
g9
(g13
S'K\x00\x00\x00'
p385
tp386
Rp387
sg36
g9
(g13
S'P\x00\x00\x00'
p388
tp389
Rp390
sg41
I0
sg42
I0
sa(dp391
g5
F331.3122229491928
sg6
I1
sg7
F3.0
sg8
g9
(g13
S'7\x00\x00\x00'
p392
tp393
Rp394
sg21
g78
sg23
F59.5
sg24
g135
sg26
I0
sg27
g9
(g13
S'-\x00\x00\x00'
p395
tp396
Rp397
sg31
F337.65067130787793
sg32
g9
(g13
S'K\x00\x00\x00'
p398
tp399
Rp400
sg36
g9
(g13
S'P\x00\x00\x00'
p401
tp402
Rp403
sg41
I0
sg42
I0
sa(dp404
g5
F337.90807465279977
sg6
I1
sg7
F3.0
sg8
g9
(g13
S'7\x00\x00\x00'
p405
tp406
Rp407
sg21
g78
sg23
I-25
sg24
g25
sg26
I3
sg27
g9
(g13
S'\x87\x00\x00\x00'
p408
tp409
Rp410
sg31
F344.25028957680297
sg32
g9
(g13
S'K\x00\x00\x00'
p411
tp412
Rp413
sg36
g9
(g13
S'\xb0\xff\xff\xff'
p414
tp415
Rp416
sg41
I0
sg42
I0
sa(dp417
g5
F344.51009278146194
sg6
I1
sg7
F-3.0
sg8
g9
(g13
S'7\x00\x00\x00'
p418
tp419
Rp420
sg21
g25
sg23
I-25
sg24
g25
sg26
I3
sg27
g9
(g13
S'\x87\x00\x00\x00'
p421
tp422
Rp423
sg31
F351.34994362410725
sg32
g9
(g13
S'K\x00\x00\x00'
p424
tp425
Rp426
sg36
g9
(g13
S'\xb0\xff\xff\xff'
p427
tp428
Rp429
sg41
I0
sg42
I0
sa(dp430
g5
F351.6098639993943
sg6
I1
sg7
F3.0
sg8
g9
(g13
S'7\x00\x00\x00'
p431
tp432
Rp433
sg21
g25
sg23
F59.5
sg24
g78
sg26
I1
sg27
g9
(g13
S'\x87\x00\x00\x00'
p434
tp435
Rp436
sg31
F357.9495741517603
sg32
g9
(g13
S'K\x00\x00\x00'
p437
tp438
Rp439
sg36
g9
(g13
S'P\x00\x00\x00'
p440
tp441
Rp442
sg41
I0
sg42
I0
sa(dp443
g5
F358.21420045300147
sg6
I1
sg7
F-3.0
sg8
g9
(g13
S'7\x00\x00\x00'
p444
tp445
Rp446
sg21
g22
sg23
I-25
sg24
g22
sg26
I2
sg27
g9
(g13
S'-\x00\x00\x00'
p447
tp448
Rp449
sg31
F364.5575597149691
sg32
g9
(g13
S'K\x00\x00\x00'
p450
tp451
Rp452
sg36
g9
(g13
S'\xb0\xff\xff\xff'
p453
tp454
Rp455
sg41
I0
sg42
I0
sa(dp456
g4
F1.133372675296414
sg5
F364.82461124866495
sg6
I1
sg7
F-3.0
sg8
g9
(g13
S'7\x00\x00\x00'
p457
tp458
Rp459
sg19
S'f'
p460
sg21
g78
sg23
F59.5
sg24
g78
sg26
I1
sg27
g9
(g13
S'\x87\x00\x00\x00'
p461
tp462
Rp463
sg31
F371.66550151737283
sg32
g9
(g13
S'K\x00\x00\x00'
p464
tp465
Rp466
sg36
g9
(g13
S'P\x00\x00\x00'
p467
tp468
Rp469
sg40
I1
sg41
I0
sg42
I0
sg43
I1
sg44
F1.0
sa(dp470
g4
F2.7999295835888915
sg5
F371.9279201073059
sg6
I1
sg7
F3.0
sg8
g9
(g13
S'7\x00\x00\x00'
p471
tp472
Rp473
sg19
S'f'
p474
sg21
g135
sg23
F59.5
sg24
g135
sg26
I0
sg27
g9
(g13
S'-\x00\x00\x00'
p475
tp476
Rp477
sg31
F378.77346013989154
sg32
g9
(g13
S'K\x00\x00\x00'
p478
tp479
Rp480
sg36
g9
(g13
S'P\x00\x00\x00'
p481
tp482
Rp483
sg40
I1
sg41
I0
sg42
I0
sg43
I1
sg44
F1.0
sa(dp484
g5
F379.03642267522446
sg6
I1
sg7
F3.0
sg8
g9
(g13
S'7\x00\x00\x00'
p485
tp486
Rp487
sg21
g22
sg23
F46.75
sg24
g78
sg26
I1
sg27
g9
(g13
S'\x87\x00\x00\x00'
p488
tp489
Rp490
sg31
F385.8814142010233
sg32
g9
(g13
S'K\x00\x00\x00'
p491
tp492
Rp493
sg36
g9
(g13
S'P\x00\x00\x00'
p494
tp495
Rp496
sg41
I0
sg42
I0
sa(dp497
g4
F1.158423812719775
sg5
F386.1436637345487
sg6
I1
sg7
F3.0
sg8
g9
(g13
S'7\x00\x00\x00'
p498
tp499
Rp500
sg19
S'f'
p501
sg21
g135
sg23
F46.75
sg24
g135
sg26
I0
sg27
g9
(g13
S'-\x00\x00\x00'
p502
tp503
Rp504
sg31
F392.9893312008844
sg32
g9
(g13
S'K\x00\x00\x00'
p505
tp506
Rp507
sg36
g9
(g13
S'P\x00\x00\x00'
p508
tp509
Rp510
sg40
I1
sg41
I0
sg42
I0
sg43
I1
sg44
F1.0
sa(dp511
g4
F1.266698881461707
sg5
F393.2559559598085
sg6
I1
sg7
F3.0
sg8
g9
(g13
S'7\x00\x00\x00'
p512
tp513
Rp514
sg19
S'f'
p515
sg21
g22
sg23
F46.75
sg24
g78
sg26
I1
sg27
g9
(g13
S'\x87\x00\x00\x00'
p516
tp517
Rp518
sg31
F399.597347838544
sg32
g9
(g13
S'K\x00\x00\x00'
p519
tp520
Rp521
sg36
g9
(g13
S'P\x00\x00\x00'
p522
tp523
Rp524
sg40
I1
sg41
I0
sg42
I0
sg43
I1
sg44
F1.0
sa(dp525
g4
F1.0333947695144161
sg5
F399.8888886038021
sg6
I1
sg7
F3.0
sg8
g9
(g13
S'7\x00\x00\x00'
p526
tp527
Rp528
sg19
S'f'
p529
sg21
g135
sg23
F46.75
sg24
g135
sg26
I0
sg27
g9
(g13
S'-\x00\x00\x00'
p530
tp531
Rp532
sg31
F406.23032067976055
sg32
g9
(g13
S'K\x00\x00\x00'
p533
tp534
Rp535
sg36
g9
(g13
S'P\x00\x00\x00'
p536
tp537
Rp538
sg40
I1
sg41
I0
sg42
I0
sg43
I1
sg44
F1.0
sa(dp539
g4
F2.116646354241311
sg5
F406.4961868230075
sg6
I1
sg7
F-3.0
sg8
g9
(g13
S'7\x00\x00\x00'
p540
tp541
Rp542
sg19
S'f'
p543
sg21
g78
sg23
I-25
sg24
g22
sg26
I2
sg27
g9
(g13
S'-\x00\x00\x00'
p544
tp545
Rp546
sg31
F413.3382744558039
sg32
g9
(g13
S'K\x00\x00\x00'
p547
tp548
Rp549
sg36
g9
(g13
S'\xb0\xff\xff\xff'
p550
tp551
Rp552
sg40
I1
sg41
I0
sg42
I0
sg43
I1
sg44
F1.0
sa(dp553
g5
F413.60126920593393
sg6
I1
sg7
F3.0
sg8
g9
(g13
S'7\x00\x00\x00'
p554
tp555
Rp556
sg21
g25
sg23
I-25
sg24
g25
sg26
I3
sg27
g9
(g13
S'\x87\x00\x00\x00'
p557
tp558
Rp559
sg31
F420.4462313678032
sg32
g9
(g13
S'K\x00\x00\x00'
p560
tp561
Rp562
sg36
g9
(g13
S'\xb0\xff\xff\xff'
p563
tp564
Rp565
sg41
I0
sg42
I0
sa(dp566
g4
F2.124931258473225
sg5
F420.7108736338996
sg6
I1
sg7
F-3.0
sg8
g9
(g13
S'7\x00\x00\x00'
p567
tp568
Rp569
sg19
S'f'
p570
sg21
g78
sg23
F34.0
sg24
g78
sg26
I1
sg27
g9
(g13
S'\x87\x00\x00\x00'
p571
tp572
Rp573
sg31
F427.55418115263274
sg32
g9
(g13
S'K\x00\x00\x00'
p574
tp575
Rp576
sg36
g9
(g13
S'P\x00\x00\x00'
p577
tp578
Rp579
sg40
I1
sg41
I0
sg42
I0
sg43
I1
sg44
F1.0
sa(dp580
g4
F1.1832542930478667
sg5
F427.81948710053985
sg6
I1
sg7
F-3.0
sg8
g9
(g13
S'7\x00\x00\x00'
p581
tp582
Rp583
sg19
S'f'
p584
sg21
g135
sg23
I-25
sg24
g22
sg26
I2
sg27
g9
(g13
S'-\x00\x00\x00'
p585
tp586
Rp587
sg31
F434.1621538869422
sg32
g9
(g13
S'K\x00\x00\x00'
p588
tp589
Rp590
sg36
g9
(g13
S'\xb0\xff\xff\xff'
p591
tp592
Rp593
sg40
I1
sg41
I0
sg42
I0
sg43
I1
sg44
F1.0
sa(dp594
g4
F1.208379838099063
sg5
F434.428110687757
sg6
I1
sg7
F-3.0
sg8
g9
(g13
S'7\x00\x00\x00'
p595
tp596
Rp597
sg19
S'f'
p598
sg21
g22
sg23
I-10
sg24
g22
sg26
I2
sg27
g9
(g13
S'-\x00\x00\x00'
p599
tp600
Rp601
sg31
F440.7701049546631
sg32
g9
(g13
S'K\x00\x00\x00'
p602
tp603
Rp604
sg36
g9
(g13
S'\xb0\xff\xff\xff'
p605
tp606
Rp607
sg40
I0
sg41
I0
sg42
I0
sg43
I1
sg44
F-1.0
sa(dp608
g5
F441.0366096920916
sg6
I1
sg7
F-3.0
sg8
g9
(g13
S'7\x00\x00\x00'
p609
tp610
Rp611
sg21
g25
sg23
I-25
sg24
g25
sg26
I3
sg27
g9
(g13
S'\x87\x00\x00\x00'
p612
tp613
Rp614
sg31
F447.87809294110957
sg32
g9
(g13
S'K\x00\x00\x00'
p615
tp616
Rp617
sg36
g9
(g13
S'\xb0\xff\xff\xff'
p618
tp619
Rp620
sg41
I0
sg42
I0
sa(dp621
g5
F448.14285579887655
sg6
I1
sg7
F3.0
sg8
g9
(g13
S'7\x00\x00\x00'
p622
tp623
Rp624
sg21
g22
sg23
I-25
sg24
g22
sg26
I2
sg27
g9
(g13
S'-\x00\x00\x00'
p625
tp626
Rp627
sg31
F454.48603745183755
sg32
g9
(g13
S'K\x00\x00\x00'
p628
tp629
Rp630
sg36
g9
(g13
S'\xb0\xff\xff\xff'
p631
tp632
Rp633
sg41
I0
sg42
I0
sa(dp634
g5
F454.7540420303303
sg6
I1
sg7
F-3.0
sg8
g9
(g13
S'7\x00\x00\x00'
p635
tp636
Rp637
sg21
g78
sg23
F34.0
sg24
g78
sg26
I1
sg27
g9
(g13
S'\x87\x00\x00\x00'
p638
tp639
Rp640
sg31
F461.59402600845715
sg32
g9
(g13
S'K\x00\x00\x00'
p641
tp642
Rp643
sg36
g9
(g13
S'P\x00\x00\x00'
p644
tp645
Rp646
sg41
I0
sg42
I0
sa(dp647
g5
F461.88021027994
sg6
I1
sg7
F3.0
sg8
g9
(g13
S'7\x00\x00\x00'
p648
tp649
Rp650
sg21
g78
sg23
I-25
sg24
g25
sg26
I3
sg27
g9
(g13
S'\x87\x00\x00\x00'
p651
tp652
Rp653
sg31
F463.26893082513925
sg32
g9
(g13
S'K\x00\x00\x00'
p654
tp655
Rp656
sg36
g9
(g13
S'\xb0\xff\xff\xff'
p657
tp658
Rp659
sg41
I0
sg42
I0
sasS'eventArray'
p660
(lp661
(lp662
S'trial 0 started at 154.324013279'
p663
aS'trial 0 phase 6 started at 157.518717509'
p664
aS'trial 0 event f at 158.918757706'
p665
aS'staircase 1 updated from 70.000000 to 70.000000 after response 1 at 158.918773'
p666
aa(lp667
S'trial 1 started at 160.917910144'
p668
aS'trial 1 phase 6 started at 164.610011959'
p669
aS'trial 1 event f at 166.335019621'
p670
aS'staircase 1 updated from 70.000000 to 70.000000 after response 1 at 166.335034'
p671
aa(lp672
S'trial 2 started at 168.008520671'
p673
aS'trial 2 phase 6 started at 171.201309973'
p674
aS'trial 2 event f at 172.343029132'
p675
aS'staircase 1 updated from 70.000000 to 55.000000 after response 1 at 172.343045'
p676
aa(lp677
S'trial 3 started at 174.604906342'
p678
aS'trial 3 phase 6 started at 178.30092924'
p679
aS'trial 3 event f at 181.117549224'
p680
aS'staircase 0 updated from 70.000000 to 70.000000 after response 1 at 181.117563'
p681
aa(lp682
S'trial 4 started at 181.699792599'
p683
aS'trial 4 phase 6 started at 184.892240653'
p684
aS'trial 4 event f at 186.200603814'
p685
aS'staircase 1 updated from 55.000000 to 55.000000 after response 1 at 186.200618'
p686
aa(lp687
S'trial 5 started at 188.293543214'
p688
aS'trial 5 phase 6 started at 191.48351586'
p689
aS'trial 5 event s at 193.225238439'
p690
aS'staircase 1 updated from 55.000000 to 55.000000 after response 1 at 193.225252'
p691
aa(lp692
S'trial 6 started at 194.880386464'
p693
aS'trial 6 phase 6 started at 198.574786078'
p694
aS'trial 6 event s at 200.90813224'
p695
aS'staircase 0 updated from 70.000000 to 70.000000 after response 1 at 200.908146'
p696
aa(lp697
S'trial 7 started at 201.971515849'
p698
aS'trial 7 phase 6 started at 205.166141965'
p699
aS'trial 7 event f at 207.232791526'
p700
aS'staircase 0 updated from 70.000000 to 85.000000 after response 0 at 207.232810'
p701
aa(lp702
S'trial 8 started at 208.571831725'
p703
aS'trial 8 phase 6 started at 211.765772777'
p704
aS'trial 8 event f at 213.524120472'
p705
aS'staircase 0 updated from 85.000000 to 85.000000 after response 1 at 213.524136'
p706
aa(lp707
S'trial 9 started at 215.16826586'
p708
aS'trial 9 phase 6 started at 218.357074497'
p709
aS'trial 9 event f at 219.890434344'
p710
aS'staircase 1 updated from 55.000000 to 40.000000 after response 1 at 219.890450'
p711
aa(lp712
S'trial 10 started at 221.758329449'
p713
aS'trial 10 phase 6 started at 224.948395888'
p714
aS'trial 10 event f at 226.215099902'
p715
aS'staircase 0 updated from 85.000000 to 85.000000 after response 1 at 226.215114'
p716
aa(lp717
S'trial 11 started at 228.34772622'
p718
aS'trial 11 phase 6 started at 232.03964558'
p719
aS'trial 11 event f at 233.506374111'
p720
aS'staircase 0 updated from 85.000000 to 72.250000 after response 1 at 233.506390'
p721
aa(lp722
S'trial 12 started at 235.438158568'
p723
aS'trial 12 phase 6 started at 239.13093946'
p724
aS'trial 12 event f at 241.272636382'
p725
aS'staircase 1 updated from 40.000000 to 40.000000 after response 1 at 241.272650'
p726
aa(lp727
S'trial 13 started at 242.530899833'
p728
aS'trial 13 phase 6 started at 245.72227254'
p729
aS'trial 13 event f at 247.480596857'
p730
aS'staircase 0 updated from 72.250000 to 72.250000 after response 1 at 247.480611'
p731
aa(lp732
S'trial 14 started at 249.126130903'
p733
aS'trial 14 phase 6 started at 252.821884965'
p734
aS'trial 14 event s at 254.038596461'
p735
aS'staircase 0 updated from 72.250000 to 72.250000 after response 1 at 254.038611'
p736
aa(lp737
S'trial 15 started at 256.223688138'
p738
aS'trial 15 phase 6 started at 259.413162737'
p739
aS'trial 15 event s at 260.288252575'
p740
aS'staircase 1 updated from 40.000000 to 40.000000 after response 1 at 260.288266'
p741
aa(lp742
S'trial 16 started at 262.815519264'
p743
aS'trial 16 phase 6 started at 266.50448142'
p744
aS'trial 16 event s at 267.821203322'
p745
aS'staircase 0 updated from 72.250000 to 59.500000 after response 1 at 267.821220'
p746
aa(lp747
S'trial 17 started at 269.906104989'
p748
aS'trial 17 phase 6 started at 273.595755059'
p749
aS'trial 17 event s at 274.687474859'
p750
aS'staircase 1 updated from 40.000000 to 25.000000 after response 1 at 274.687491'
p751
aa(lp752
S'trial 18 started at 277.009903626'
p753
aS'trial 18 phase 6 started at 280.203744899'
p754
aS'trial 18 event f at 281.553795145'
p755
aS'staircase 0 updated from 59.500000 to 59.500000 after response 1 at 281.553811'
p756
aa(lp757
S'trial 19 started at 283.609349418'
p758
aS'trial 19 phase 6 started at 286.803399944'
p759
aS'trial 19 event f at 288.428415445'
p760
aS'staircase 1 updated from 25.000000 to 25.000000 after response 1 at 288.428429'
p761
aa(lp762
S'trial 20 started at 290.20932262'
p763
aS'trial 20 phase 6 started at 293.903003246'
p764
aa(lp765
S'trial 21 started at 297.308001386'
p766
aS'trial 21 phase 6 started at 300.502614958'
p767
aa(lp768
S'trial 22 started at 303.905089795'
p769
aS'trial 22 phase 6 started at 307.093949178'
p770
aa(lp771
S'trial 23 started at 310.500666675'
p772
aS'trial 23 phase 6 started at 314.193573576'
p773
aa(lp774
S'trial 24 started at 317.609858298'
p775
aS'trial 24 phase 6 started at 320.801526924'
p776
aa(lp777
S'trial 25 started at 324.209822662'
p778
aS'trial 25 phase 6 started at 327.901174985'
p779
aa(lp780
S'trial 26 started at 331.312222949'
p781
aS'trial 26 phase 6 started at 334.500828604'
p782
aa(lp783
S'trial 27 started at 337.908074653'
p784
aS'trial 27 phase 6 started at 341.100479658'
p785
aa(lp786
S'trial 28 started at 344.510092781'
p787
aS'trial 28 phase 6 started at 348.200052741'
p788
aa(lp789
S'trial 29 started at 351.609863999'
p790
aS'trial 29 phase 6 started at 354.799698948'
p791
aa(lp792
S'trial 30 started at 358.214200453'
p793
aS'trial 30 phase 6 started at 361.407696485'
p794
aa(lp795
S'trial 31 started at 364.824611249'
p796
aS'trial 31 phase 6 started at 368.51566366'
p797
aS'trial 31 event f at 369.6490332'
p798
aS'staircase 0 updated from 59.500000 to 59.500000 after response 1 at 369.649047'
p799
aa(lp800
S'trial 32 started at 371.927920107'
p801
aS'trial 32 phase 6 started at 375.623605178'
p802
aS'trial 32 event f at 378.423531625'
p803
aS'staircase 0 updated from 59.500000 to 46.750000 after response 1 at 378.423549'
p804
aa(lp805
S'trial 33 started at 379.036422675'
p806
aS'trial 33 phase 6 started at 382.73156152'
p807
aa(lp808
S'trial 34 started at 386.143663735'
p809
aS'trial 34 phase 6 started at 389.839484506'
p810
aS'trial 34 event f at 390.997905183'
p811
aS'staircase 0 updated from 46.750000 to 46.750000 after response 1 at 390.997919'
p812
aa(lp813
S'trial 35 started at 393.25595596'
p814
aS'trial 35 phase 6 started at 396.447501429'
p815
aS'trial 35 event f at 397.714197745'
p816
aS'staircase 0 updated from 46.750000 to 46.750000 after response 1 at 397.714211'
p817
aa(lp818
S'trial 36 started at 399.888888604'
p819
aS'trial 36 phase 6 started at 403.080484248'
p820
aS'trial 36 event f at 404.113875882'
p821
aS'staircase 0 updated from 46.750000 to 34.000000 after response 1 at 404.113894'
p822
aa(lp823
S'trial 37 started at 406.496186823'
p824
aS'trial 37 phase 6 started at 410.188436884'
p825
aS'trial 37 event f at 412.305079532'
p826
aS'staircase 1 updated from 25.000000 to 25.000000 after response 1 at 412.305094'
p827
aa(lp828
S'trial 38 started at 413.601269206'
p829
aS'trial 38 phase 6 started at 417.296375835'
p830
aa(lp831
S'trial 39 started at 420.710873634'
p832
aS'trial 39 phase 6 started at 424.404329041'
p833
aS'trial 39 event f at 426.529257449'
p834
aS'staircase 0 updated from 34.000000 to 34.000000 after response 1 at 426.529272'
p835
aa(lp836
S'trial 40 started at 427.819487101'
p837
aS'trial 40 phase 6 started at 431.012323157'
p838
aS'trial 40 event f at 432.195574884'
p839
aS'staircase 1 updated from 25.000000 to 10.000000 after response 1 at 432.195591'
p840
aa(lp841
S'trial 41 started at 434.428110688'
p842
aS'trial 41 phase 6 started at 437.620289334'
p843
aS'trial 41 event f at 438.828666607'
p844
aS'staircase 1 updated from 10.000000 to 25.000000 after response 0 at 438.828684'
p845
aa(lp846
S'trial 42 started at 441.036609692'
p847
aS'trial 42 phase 6 started at 444.728247102'
p848
aa(lp849
S'trial 43 started at 448.142855799'
p850
aS'trial 43 phase 6 started at 451.336226678'
p851
aa(lp852
S'trial 44 started at 454.75404203'
p853
aS'trial 44 phase 6 started at 458.444178459'
p854
aa(lp855
S'trial 45 started at 461.88021028'
p856
a(lp857
I-99
aF1.3804461891759274
aaasS'trialResponses'
p858
(lp859
s.(dp0
S'parameterArray'
p1
(lp2
(dp3
S'reaction_time'
p4
F2.374994191359292
sS'trial_start'
p5
F56.841170223835434
sS'task'
p6
I2
sS'trial_orientation'
p7
F-3.0
sS'base_color_lum'
p8
cnumpy.core.multiarray
scalar
p9
(cnumpy
dtype
p10
(S'i4'
p11
I0
I1
tp12
Rp13
(I3
S'<'
p14
NNNI-1
I-1
I0
tp15
bS'7\x00\x00\x00'
p16
tp17
Rp18
sS'button'
p19
S'l'
p20
sS'trial_cue'
p21
S'red45'
p22
sS'trial_color'
p23
F34.0
sS'trial_stimulus_label'
p24
g22
sS'trial_stimulus'
p25
I0
sS'base_ori'
p26
g9
(g13
S'-\x00\x00\x00'
p27
tp28
Rp29
sS'trial_end'
p30
F63.18130629571169
sS'base_color_b'
p31
g9
(g13
S'K\x00\x00\x00'
p32
tp33
Rp34
sS'base_color_a'
p35
g9
(g13
S'P\x00\x00\x00'
p36
tp37
Rp38
sS'correct_answer'
p39
I0
sS'trial_position_y'
p40
I0
sS'trial_position_x'
p41
I0
sS'response'
p42
I1
sS'trial_direction'
p43
F-1.0
sa(dp44
g4
F2.1583337253268837
sg5
F63.431788306028466
sg6
I2
sg7
F-3.0
sg8
g9
(g13
S'7\x00\x00\x00'
p45
tp46
Rp47
sg19
S'j'
p48
sg21
S'red135'
p49
sg23
F34.0
sg24
g49
sg25
I1
sg26
g9
(g13
S'\x87\x00\x00\x00'
p50
tp51
Rp52
sg30
F70.27258335578335
sg31
g9
(g13
S'K\x00\x00\x00'
p53
tp54
Rp55
sg35
g9
(g13
S'P\x00\x00\x00'
p56
tp57
Rp58
sg39
I1
sg40
I0
sg41
I0
sg42
I-1
sg43
F-1.0
sa(dp59
g4
F1.200041052483357
sg5
F70.52314062898586
sg6
I2
sg7
F3.0
sg8
g9
(g13
S'7\x00\x00\x00'
p60
tp61
Rp62
sg19
S'l'
p63
sg21
g49
sg23
F34.0
sg24
g49
sg25
I1
sg26
g9
(g13
S'\x87\x00\x00\x00'
p64
tp65
Rp66
sg30
F77.3638803719241
sg31
g9
(g13
S'K\x00\x00\x00'
p67
tp68
Rp69
sg35
g9
(g13
S'P\x00\x00\x00'
p70
tp71
Rp72
sg39
I1
sg40
I0
sg41
I0
sg42
I1
sg43
F1.0
sa(dp73
g4
F1.8666877630803356
sg5
F77.61404878688518
sg6
I2
sg7
F-4.0
sg8
g9
(g13
S'7\x00\x00\x00'
p74
tp75
Rp76
sg19
S'j'
p77
sg21
S'green135'
p78
sg23
F34.0
sg24
g22
sg25
I0
sg26
g9
(g13
S'-\x00\x00\x00'
p79
tp80
Rp81
sg30
F84.45516170829615
sg31
g9
(g13
S'K\x00\x00\x00'
p82
tp83
Rp84
sg35
g9
(g13
S'P\x00\x00\x00'
p85
tp86
Rp87
sg39
I1
sg40
I0
sg41
I0
sg42
I-1
sg43
F-1.0
sa(dp88
g4
F1.9083603096605657
sg5
F84.70545128509912
sg6
I2
sg7
F-4.0
sg8
g9
(g13
S'7\x00\x00\x00'
p89
tp90
Rp91
sg19
S'j'
p92
sg21
g22
sg23
F34.0
sg24
g22
sg25
I0
sg26
g9
(g13
S'-\x00\x00\x00'
p93
tp94
Rp95
sg30
F91.04646314328056
sg31
g9
(g13
S'K\x00\x00\x00'
p96
tp97
Rp98
sg35
g9
(g13
S'P\x00\x00\x00'
p99
tp100
Rp101
sg39
I1
sg40
I0
sg41
I0
sg42
I-1
sg43
F-1.0
sa(dp102
g4
F2.1666665241227747
sg5
F91.29604484983793
sg6
I2
sg7
F3.0
sg8
g9
(g13
S'7\x00\x00\x00'
p103
tp104
Rp105
sg19
S'j'
p106
sg21
S'green45'
p107
sg23
F34.0
sg24
g49
sg25
I1
sg26
g9
(g13
S'\x87\x00\x00\x00'
p108
tp109
Rp110
sg30
F98.137748755953
sg31
g9
(g13
S'K\x00\x00\x00'
p111
tp112
Rp113
sg35
g9
(g13
S'P\x00\x00\x00'
p114
tp115
Rp116
sg39
I0
sg40
I0
sg41
I0
sg42
I-1
sg43
F1.0
sa(dp117
g5
F98.38696441120192
sg6
I2
sg7
F4.0
sg8
g9
(g13
S'7\x00\x00\x00'
p118
tp119
Rp120
sg21
g107
sg23
I-25
sg24
g78
sg25
I3
sg26
g9
(g13
S'\x87\x00\x00\x00'
p121
tp122
Rp123
sg30
F104.72906244966362
sg31
g9
(g13
S'K\x00\x00\x00'
p124
tp125
Rp126
sg35
g9
(g13
S'\xb0\xff\xff\xff'
p127
tp128
Rp129
sg40
I0
sg41
I0
sa(dp130
g4
F1.0667111401908187
sg5
F104.97875220407514
sg6
I2
sg7
F-4.0
sg8
g9
(g13
S'7\x00\x00\x00'
p131
tp132
Rp133
sg19
S'j'
p134
sg21
g49
sg23
F34.0
sg24
g49
sg25
I1
sg26
g9
(g13
S'\x87\x00\x00\x00'
p135
tp136
Rp137
sg30
F111.82034236060281
sg31
g9
(g13
S'K\x00\x00\x00'
p138
tp139
Rp140
sg35
g9
(g13
S'P\x00\x00\x00'
p141
tp142
Rp143
sg39
I1
sg40
I0
sg41
I0
sg42
I-1
sg43
F-1.0
sa(dp144
g4
F0.8333879274341598
sg5
F112.07425909533413
sg6
I2
sg7
F4.0
sg8
g9
(g13
S'7\x00\x00\x00'
p145
tp146
Rp147
sg19
S'l'
p148
sg21
g78
sg23
F34.0
sg24
g49
sg25
I1
sg26
g9
(g13
S'\x87\x00\x00\x00'
p149
tp150
Rp151
sg30
F118.41999027854399
sg31
g9
(g13
S'K\x00\x00\x00'
p152
tp153
Rp154
sg35
g9
(g13
S'P\x00\x00\x00'
p155
tp156
Rp157
sg39
I1
sg40
I0
sg41
I0
sg42
I1
sg43
F1.0
sa(dp158
g4
F2.0749923382954876
sg5
F118.6764448549693
sg6
I2
sg7
F-4.0
sg8
g9
(g13
S'7\x00\x00\x00'
p159
tp160
Rp161
sg19
S'j'
p162
sg21
g49
sg23
I-25
sg24
g107
sg25
I2
sg26
g9
(g13
S'-\x00\x00\x00'
p163
tp164
Rp165
sg30
F125.0196316394904
sg31
g9
(g13
S'K\x00\x00\x00'
p166
tp167
Rp168
sg35
g9
(g13
S'\xb0\xff\xff\xff'
p169
tp170
Rp171
sg39
I1
sg40
I0
sg41
I0
sg42
I-1
sg43
F-1.0
sa(dp172
g4
F2.7082169110581162
sg5
F125.27288155645874
sg6
I2
sg7
F-4.0
sg8
g9
(g13
S'7\x00\x00\x00'
p173
tp174
Rp175
sg19
S'j'
p176
sg21
g78
sg23
I-25
sg24
g78
sg25
I3
sg26
g9
(g13
S'\x87\x00\x00\x00'
p177
tp178
Rp179
sg30
F131.61927841708348
sg31
g9
(g13
S'K\x00\x00\x00'
p180
tp181
Rp182
sg35
g9
(g13
S'\xb0\xff\xff\xff'
p183
tp184
Rp185
sg39
I1
sg40
I0
sg41
I0
sg42
I-1
sg43
F-1.0
sa(dp186
g4
F2.199986030751461
sg5
F131.87317234488
sg6
I2
sg7
F3.15
sg8
g9
(g13
S'7\x00\x00\x00'
p187
tp188
Rp189
sg19
S'l'
p190
sg21
g49
sg23
F34.0
sg24
g49
sg25
I1
sg26
g9
(g13
S'\x87\x00\x00\x00'
p191
tp192
Rp193
sg30
F138.71890281537344
sg31
g9
(g13
S'K\x00\x00\x00'
p194
tp195
Rp196
sg35
g9
(g13
S'P\x00\x00\x00'
p197
tp198
Rp199
sg39
I1
sg40
I0
sg41
I0
sg42
I1
sg43
F1.0
sa(dp200
g4
F2.2916513788914017
sg5
F138.9687174377541
sg6
I2
sg7
F3.0
sg8
g9
(g13
S'7\x00\x00\x00'
p201
tp202
Rp203
sg19
S'l'
p204
sg21
g22
sg23
F34.0
sg24
g22
sg25
I0
sg26
g9
(g13
S'-\x00\x00\x00'
p205
tp206
Rp207
sg30
F145.81019412977912
sg31
g9
(g13
S'K\x00\x00\x00'
p208
tp209
Rp210
sg35
g9
(g13
S'P\x00\x00\x00'
p211
tp212
Rp213
sg39
I1
sg40
I0
sg41
I0
sg42
I1
sg43
F1.0
sa(dp214
g4
F1.916639512159236
sg5
F146.06380154545514
sg6
I2
sg7
F3.0
sg8
g9
(g13
S'7\x00\x00\x00'
p215
tp216
Rp217
sg19
S'l'
p218
sg21
g22
sg23
F34.0
sg24
g22
sg25
I0
sg26
g9
(g13
S'-\x00\x00\x00'
p219
tp220
Rp221
sg30
F152.90981225616088
sg31
g9
(g13
S'K\x00\x00\x00'
p222
tp223
Rp224
sg35
g9
(g13
S'P\x00\x00\x00'
p225
tp226
Rp227
sg39
I1
sg40
I0
sg41
I0
sg42
I1
sg43
F1.0
sa(dp228
g4
F1.9583243174656673
sg5
F153.1648220132538
sg6
I2
sg7
F-3.15
sg8
g9
(g13
S'7\x00\x00\x00'
p229
tp230
Rp231
sg19
S'j'
p232
sg21
g78
sg23
I-25
sg24
g78
sg25
I3
sg26
g9
(g13
S'\x87\x00\x00\x00'
p233
tp234
Rp235
sg30
F159.50945732323453
sg31
g9
(g13
S'K\x00\x00\x00'
p236
tp237
Rp238
sg35
g9
(g13
S'\xb0\xff\xff\xff'
p239
tp240
Rp241
sg39
I1
sg40
I0
sg41
I0
sg42
I-1
sg43
F-1.0
sa(dp242
g4
F1.841700770162788
sg5
F159.7659734783847
sg6
I2
sg7
F-3.0
sg8
g9
(g13
S'7\x00\x00\x00'
p243
tp244
Rp245
sg19
S'l'
p246
sg21
g107
sg23
I-25
sg24
g107
sg25
I2
sg26
g9
(g13
S'-\x00\x00\x00'
p247
tp248
Rp249
sg30
F166.1091032455697
sg31
g9
(g13
S'K\x00\x00\x00'
p250
tp251
Rp252
sg35
g9
(g13
S'\xb0\xff\xff\xff'
p253
tp254
Rp255
sg39
I0
sg40
I0
sg41
I0
sg42
I1
sg43
F-1.0
sa(dp256
g4
F1.3501702680241578
sg5
F166.36514387612442
sg6
I2
sg7
F-3.15
sg8
g9
(g13
S'7\x00\x00\x00'
p257
tp258
Rp259
sg19
S'j'
p260
sg21
g49
sg23
F34.0
sg24
g49
sg25
I1
sg26
g9
(g13
S'\x87\x00\x00\x00'
p261
tp262
Rp263
sg30
F173.2087065474425
sg31
g9
(g13
S'K\x00\x00\x00'
p264
tp265
Rp266
sg35
g9
(g13
S'P\x00\x00\x00'
p267
tp268
Rp269
sg39
I1
sg40
I0
sg41
I0
sg42
I-1
sg43
F-1.0
sa(dp270
g4
F1.5917028370404296
sg5
F173.46105416504543
sg6
I2
sg7
F-2.3
sg8
g9
(g13
S'7\x00\x00\x00'
p271
tp272
Rp273
sg19
S'j'
p274
sg21
g107
sg23
I-25
sg24
g78
sg25
I3
sg26
g9
(g13
S'\x87\x00\x00\x00'
p275
tp276
Rp277
sg30
F179.80004247791658
sg31
g9
(g13
S'K\x00\x00\x00'
p278
tp279
Rp280
sg35
g9
(g13
S'\xb0\xff\xff\xff'
p281
tp282
Rp283
sg39
I1
sg40
I0
sg41
I0
sg42
I-1
sg43
F-1.0
sa(dp284
g4
F2.2916496683719743
sg5
F180.05835610463146
sg6
I2
sg7
F2.3
sg8
g9
(g13
S'7\x00\x00\x00'
p285
tp286
Rp287
sg19
S'j'
p288
sg21
g78
sg23
I-25
sg24
g78
sg25
I3
sg26
g9
(g13
S'\x87\x00\x00\x00'
p289
tp290
Rp291
sg30
F186.39969125111747
sg31
g9
(g13
S'K\x00\x00\x00'
p292
tp293
Rp294
sg35
g9
(g13
S'\xb0\xff\xff\xff'
p295
tp296
Rp297
sg39
I0
sg40
I0
sg41
I0
sg42
I-1
sg43
F1.0
sa(dp298
g4
F2.983281946459101
sg5
F186.65607256026306
sg6
I2
sg7
F-4.0
sg8
g9
(g13
S'7\x00\x00\x00'
p299
tp300
Rp301
sg19
S'j'
p302
sg21
g49
sg23
I-25
sg24
g107
sg25
I2
sg26
g9
(g13
S'-\x00\x00\x00'
p303
tp304
Rp305
sg30
F192.9993003972686
sg31
g9
(g13
S'K\x00\x00\x00'
p306
tp307
Rp308
sg35
g9
(g13
S'\xb0\xff\xff\xff'
p309
tp310
Rp311
sg39
I1
sg40
I0
sg41
I0
sg42
I-1
sg43
F-1.0
sa(dp312
g4
F1.6417004850754893
sg5
F193.25923616723776
sg6
I2
sg7
F3.15
sg8
g9
(g13
S'7\x00\x00\x00'
p313
tp314
Rp315
sg19
S'l'
p316
sg21
g78
sg23
I-25
sg24
g78
sg25
I3
sg26
g9
(g13
S'\x87\x00\x00\x00'
p317
tp318
Rp319
sg30
F200.09895387439792
sg31
g9
(g13
S'K\x00\x00\x00'
p320
tp321
Rp322
sg35
g9
(g13
S'\xb0\xff\xff\xff'
p323
tp324
Rp325
sg39
I1
sg40
I0
sg41
I0
sg42
I1
sg43
F1.0
sa(dp326
g4
F1.5333607016546011
sg5
F200.35488759744476
sg6
I2
sg7
F3.15
sg8
g9
(g13
S'7\x00\x00\x00'
p327
tp328
Rp329
sg19
S'l'
p330
sg21
g78
sg23
I-25
sg24
g78
sg25
I3
sg26
g9
(g13
S'\x87\x00\x00\x00'
p331
tp332
Rp333
sg30
F207.19861561904327
sg31
g9
(g13
S'K\x00\x00\x00'
p334
tp335
Rp336
sg35
g9
(g13
S'\xb0\xff\xff\xff'
p337
tp338
Rp339
sg39
I1
sg40
I0
sg41
I0
sg42
I1
sg43
F1.0
sa(dp340
g4
F1.8833425273787725
sg5
F207.45284937017095
sg6
I2
sg7
F-4.0
sg8
g9
(g13
S'7\x00\x00\x00'
p341
tp342
Rp343
sg19
S'l'
p344
sg21
g107
sg23
F34.0
sg24
g22
sg25
I0
sg26
g9
(g13
S'-\x00\x00\x00'
p345
tp346
Rp347
sg30
F214.29818927190172
sg31
g9
(g13
S'K\x00\x00\x00'
p348
tp349
Rp350
sg35
g9
(g13
S'P\x00\x00\x00'
p351
tp352
Rp353
sg39
I0
sg40
I0
sg41
I0
sg42
I1
sg43
F-1.0
sa(dp354
g4
F1.0250388786971598
sg5
F214.55733050527306
sg6
I2
sg7
F3.15
sg8
g9
(g13
S'7\x00\x00\x00'
p355
tp356
Rp357
sg19
S'l'
p358
sg21
g78
sg23
F34.0
sg24
g49
sg25
I1
sg26
g9
(g13
S'\x87\x00\x00\x00'
p359
tp360
Rp361
sg30
F220.89783490915033
sg31
g9
(g13
S'K\x00\x00\x00'
p362
tp363
Rp364
sg35
g9
(g13
S'P\x00\x00\x00'
p365
tp366
Rp367
sg39
I1
sg40
I0
sg41
I0
sg42
I1
sg43
F1.0
sa(dp368
g4
F3.0082868998397316
sg5
F221.15326260332586
sg6
I2
sg7
F-4.85
sg8
g9
(g13
S'7\x00\x00\x00'
p369
tp370
Rp371
sg19
S'j'
p372
sg21
g22
sg23
F34.0
sg24
g22
sg25
I0
sg26
g9
(g13
S'-\x00\x00\x00'
p373
tp374
Rp375
sg30
F227.49748111657027
sg31
g9
(g13
S'K\x00\x00\x00'
p376
tp377
Rp378
sg35
g9
(g13
S'P\x00\x00\x00'
p379
tp380
Rp381
sg39
I1
sg40
I0
sg41
I0
sg42
I-1
sg43
F-1.0
sa(dp382
g4
F0.9917122449023736
sg5
F227.75578162929924
sg6
I2
sg7
F-4.85
sg8
g9
(g13
S'7\x00\x00\x00'
p383
tp384
Rp385
sg19
S'j'
p386
sg21
g107
sg23
F34.0
sg24
g22
sg25
I0
sg26
g9
(g13
S'-\x00\x00\x00'
p387
tp388
Rp389
sg30
F234.5970983876923
sg31
g9
(g13
S'K\x00\x00\x00'
p390
tp391
Rp392
sg35
g9
(g13
S'P\x00\x00\x00'
p393
tp394
Rp395
sg39
I1
sg40
I0
sg41
I0
sg42
I-1
sg43
F-1.0
sa(dp396
g4
F1.6083621627240063
sg5
F234.86229286670277
sg6
I2
sg7
F-4.85
sg8
g9
(g13
S'7\x00\x00\x00'
p397
tp398
Rp399
sg19
S'j'
p400
sg21
g107
sg23
I-25
sg24
g107
sg25
I2
sg26
g9
(g13
S'-\x00\x00\x00'
p401
tp402
Rp403
sg30
F241.7050550146032
sg31
g9
(g13
S'K\x00\x00\x00'
p404
tp405
Rp406
sg35
g9
(g13
S'\xb0\xff\xff\xff'
p407
tp408
Rp409
sg39
I1
sg40
I0
sg41
I0
sg42
I-1
sg43
F-1.0
sa(dp410
g4
F1.2167100711158128
sg5
F241.961454854385
sg6
I2
sg7
F-2.4275
sg8
g9
(g13
S'7\x00\x00\x00'
p411
tp412
Rp413
sg19
S'j'
p414
sg21
g78
sg23
I-25
sg24
g78
sg25
I3
sg26
g9
(g13
S'\x87\x00\x00\x00'
p415
tp416
Rp417
sg30
F248.3046955202899
sg31
g9
(g13
S'K\x00\x00\x00'
p418
tp419
Rp420
sg35
g9
(g13
S'\xb0\xff\xff\xff'
p421
tp422
Rp423
sg39
I1
sg40
I0
sg41
I0
sg42
I-1
sg43
F-1.0
sa(dp424
g4
F1.758399010179346
sg5
F248.56316252364377
sg6
I2
sg7
F-4.1274999999999995
sg8
g9
(g13
S'7\x00\x00\x00'
p425
tp426
Rp427
sg19
S'l'
p428
sg21
g107
sg23
I-25
sg24
g107
sg25
I2
sg26
g9
(g13
S'-\x00\x00\x00'
p429
tp430
Rp431
sg30
F254.90436253903863
sg31
g9
(g13
S'K\x00\x00\x00'
p432
tp433
Rp434
sg35
g9
(g13
S'\xb0\xff\xff\xff'
p435
tp436
Rp437
sg39
I0
sg40
I0
sg41
I0
sg42
I1
sg43
F-1.0
sa(dp438
g4
F1.6416830947873677
sg5
F255.1617935373688
sg6
I2
sg7
F2.4275
sg8
g9
(g13
S'7\x00\x00\x00'
p439
tp440
Rp441
sg19
S'l'
p442
sg21
g22
sg23
I-25
sg24
g78
sg25
I3
sg26
g9
(g13
S'\x87\x00\x00\x00'
p443
tp444
Rp445
sg30
F262.0039795250741
sg31
g9
(g13
S'K\x00\x00\x00'
p446
tp447
Rp448
sg35
g9
(g13
S'\xb0\xff\xff\xff'
p449
tp450
Rp451
sg39
I1
sg40
I0
sg41
I0
sg42
I1
sg43
F1.0
sa(dp452
g4
F1.2167177684550552
sg5
F262.26285249187094
sg6
I2
sg7
F2.4275
sg8
g9
(g13
S'7\x00\x00\x00'
p453
tp454
Rp455
sg19
S'l'
p456
sg21
g49
sg23
F34.0
sg24
g49
sg25
I1
sg26
g9
(g13
S'\x87\x00\x00\x00'
p457
tp458
Rp459
sg30
F268.60362573249404
sg31
g9
(g13
S'K\x00\x00\x00'
p460
tp461
Rp462
sg35
g9
(g13
S'P\x00\x00\x00'
p463
tp464
Rp465
sg39
I1
sg40
I0
sg41
I0
sg42
I1
sg43
F1.0
sa(dp466
g4
F2.024993835000714
sg5
F268.86868336989573
sg6
I2
sg7
F-1.7050000000000003
sg8
g9
(g13
S'7\x00\x00\x00'
p467
tp468
Rp469
sg19
S'j'
p470
sg21
g107
sg23
F34.0
sg24
g49
sg25
I1
sg26
g9
(g13
S'\x87\x00\x00\x00'
p471
tp472
Rp473
sg30
F275.7115452981361
sg31
g9
(g13
S'K\x00\x00\x00'
p474
tp475
Rp476
sg35
g9
(g13
S'P\x00\x00\x00'
p477
tp478
Rp479
sg39
I1
sg40
I0
sg41
I0
sg42
I-1
sg43
F-1.0
sa(dp480
g4
F1.2083795530124917
sg5
F275.9709981312553
sg6
I2
sg7
F4.85
sg8
g9
(g13
S'7\x00\x00\x00'
p481
tp482
Rp483
sg19
S'l'
p484
sg21
g22
sg23
F34.0
sg24
g22
sg25
I0
sg26
g9
(g13
S'-\x00\x00\x00'
p485
tp486
Rp487
sg30
F282.81119906035383
sg31
g9
(g13
S'K\x00\x00\x00'
p488
tp489
Rp490
sg35
g9
(g13
S'P\x00\x00\x00'
p491
tp492
Rp493
sg39
I1
sg40
I0
sg41
I0
sg42
I1
sg43
F1.0
sa(dp494
g4
F0.741728566114034
sg5
F283.0712665403735
sg6
I2
sg7
F4.85
sg8
g9
(g13
S'7\x00\x00\x00'
p495
tp496
Rp497
sg19
S'l'
p498
sg21
g107
sg23
I-25
sg24
g107
sg25
I2
sg26
g9
(g13
S'-\x00\x00\x00'
p499
tp500
Rp501
sg30
F289.41084327216777
sg31
g9
(g13
S'K\x00\x00\x00'
p502
tp503
Rp504
sg35
g9
(g13
S'\xb0\xff\xff\xff'
p505
tp506
Rp507
sg39
I1
sg40
I0
sg41
I0
sg42
I1
sg43
F1.0
sa(dp508
g4
F1.6833487992862501
sg5
F289.6713993907688
sg6
I2
sg7
F-1.7050000000000003
sg8
g9
(g13
S'7\x00\x00\x00'
p509
tp510
Rp511
sg19
S'j'
p512
sg21
g49
sg23
F34.0
sg24
g49
sg25
I1
sg26
g9
(g13
S'\x87\x00\x00\x00'
p513
tp514
Rp515
sg30
F296.01048805415485
sg31
g9
(g13
S'K\x00\x00\x00'
p516
tp517
Rp518
sg35
g9
(g13
S'P\x00\x00\x00'
p519
tp520
Rp521
sg39
I1
sg40
I0
sg41
I0
sg42
I-1
sg43
F-1.0
sa(dp522
g4
F1.216690115046731
sg5
F296.2742037885164
sg6
I2
sg7
F-4.85
sg8
g9
(g13
S'7\x00\x00\x00'
p523
tp524
Rp525
sg19
S'j'
p526
sg21
g107
sg23
I-25
sg24
g107
sg25
I2
sg26
g9
(g13
S'-\x00\x00\x00'
p527
tp528
Rp529
sg30
F303.1184492424527
sg31
g9
(g13
S'K\x00\x00\x00'
p530
tp531
Rp532
sg35
g9
(g13
S'\xb0\xff\xff\xff'
p533
tp534
Rp535
sg39
I1
sg40
I0
sg41
I0
sg42
I-1
sg43
F-1.0
sa(dp536
g4
F1.125033889680708
sg5
F303.3812515590671
sg6
I2
sg7
F1.7050000000000003
sg8
g9
(g13
S'7\x00\x00\x00'
p537
tp538
Rp539
sg19
S'j'
p540
sg21
g107
sg23
F34.0
sg24
g49
sg25
I1
sg26
g9
(g13
S'\x87\x00\x00\x00'
p541
tp542
Rp543
sg30
F309.7264142794211
sg31
g9
(g13
S'K\x00\x00\x00'
p544
tp545
Rp546
sg35
g9
(g13
S'P\x00\x00\x00'
p547
tp548
Rp549
sg39
I0
sg40
I0
sg41
I0
sg42
I-1
sg43
F1.0
sa(dp550
g4
F1.4750313951717544
sg5
F309.98716881835753
sg6
I2
sg7
F-4.235875
sg8
g9
(g13
S'7\x00\x00\x00'
p551
tp552
Rp553
sg19
S'l'
p554
sg21
g49
sg23
I-25
sg24
g107
sg25
I2
sg26
g9
(g13
S'-\x00\x00\x00'
p555
tp556
Rp557
sg30
F316.8260523618719
sg31
g9
(g13
S'K\x00\x00\x00'
p558
tp559
Rp560
sg35
g9
(g13
S'\xb0\xff\xff\xff'
p561
tp562
Rp563
sg39
I0
sg40
I0
sg41
I0
sg42
I1
sg43
F-1.0
sa(dp564
g5
F317.0869294880831
sg6
I2
sg7
F4.85
sg8
g9
(g13
S'7\x00\x00\x00'
p565
tp566
Rp567
sg21
g22
sg23
I-25
sg24
g107
sg25
I2
sg26
g9
(g13
S'-\x00\x00\x00'
p568
tp569
Rp570
sg30
F321.8590996107141
sg31
g9
(g13
S'K\x00\x00\x00'
p571
tp572
Rp573
sg35
g9
(g13
S'\xb0\xff\xff\xff'
p574
tp575
Rp576
sg40
I0
sg41
I0
sasS'eventArray'
p577
(lp578
(lp579
S'trial 0 started at 56.8411702238'
p580
aS'trial 0 phase 6 started at 60.0314519037'
p581
aS'trial 0 event l at 62.4064429591'
p582
aS'staircase 2 updated from 3.000000 to 4.000000 after response 0 at 62.406458'
p583
aa(lp584
S'trial 1 started at 63.431788306'
p585
aS'trial 1 phase 6 started at 67.1227266831'
p586
aS'trial 1 event j at 69.2810561321'
p587
aS'staircase 3 updated from 3.000000 to 3.000000 after response 1 at 69.281072'
p588
aa(lp589
S'trial 2 started at 70.523140629'
p590
aS'trial 2 phase 6 started at 74.2140171423'
p591
aS'trial 2 event l at 75.4140542035'
p592
aS'staircase 3 updated from 3.000000 to 3.000000 after response 1 at 75.414068'
p593
aa(lp594
S'trial 3 started at 77.6140487869'
p595
aS'trial 3 phase 6 started at 81.3053067461'
p596
aS'trial 3 event j at 83.1719913733'
p597
aS'staircase 2 updated from 4.000000 to 4.000000 after response 1 at 83.172007'
p598
aa(lp599
S'trial 4 started at 84.7054512851'
p600
aS'trial 4 phase 6 started at 87.8966192995'
p601
aS'trial 4 event j at 89.8049761881'
p602
aS'staircase 2 updated from 4.000000 to 4.000000 after response 1 at 89.804991'
p603
aa(lp604
S'trial 5 started at 91.2960448498'
p605
aS'trial 5 phase 6 started at 94.9878946491'
p606
aS'trial 5 event j at 97.1545583223'
p607
aS'staircase 3 updated from 3.000000 to 4.000000 after response 0 at 97.154577'
p608
aa(lp609
S'trial 6 started at 98.3869644112'
p610
aS'trial 6 phase 6 started at 101.579214045'
p611
aa(lp612
S'trial 7 started at 104.978752204'
p613
aS'trial 7 phase 6 started at 108.670498517'
p614
aS'trial 7 event j at 109.737206236'
p615
aS'staircase 3 updated from 4.000000 to 4.000000 after response 1 at 109.737222'
p616
aa(lp617
S'trial 8 started at 112.074259095'
p618
aS'trial 8 phase 6 started at 115.270152992'
p619
aS'trial 8 event l at 116.103538068'
p620
aS'staircase 3 updated from 4.000000 to 4.000000 after response 1 at 116.103552'
p621
aa(lp622
S'trial 9 started at 118.676444855'
p623
aS'trial 9 phase 6 started at 121.869793497'
p624
aS'trial 9 event j at 123.944781559'
p625
aS'staircase 2 updated from 4.000000 to 3.000000 after response 1 at 123.944801'
p626
aa(lp627
S'trial 10 started at 125.272881556'
p628
aS'trial 10 phase 6 started at 128.469436854'
p629
aS'trial 10 event j at 131.177650914'
p630
aS'staircase 3 updated from 4.000000 to 3.150000 after response 1 at 131.177668'
p631
aa(lp632
S'trial 11 started at 131.873172345'
p633
aS'trial 11 phase 6 started at 135.569057546'
p634
aS'trial 11 event l at 137.769040726'
p635
aS'staircase 3 updated from 3.150000 to 3.150000 after response 1 at 137.769055'
p636
aa(lp637
S'trial 12 started at 138.968717438'
p638
aS'trial 12 phase 6 started at 142.660358554'
p639
aS'trial 12 event l at 144.952007367'
p640
aS'staircase 2 updated from 3.000000 to 3.000000 after response 1 at 144.952022'
p641
aa(lp642
S'trial 13 started at 146.063801545'
p643
aS'trial 13 phase 6 started at 149.759964136'
p644
aS'trial 13 event l at 151.676600797'
p645
aS'staircase 2 updated from 3.000000 to 3.000000 after response 1 at 151.676615'
p646
aa(lp647
S'trial 14 started at 153.164822013'
p648
aS'trial 14 phase 6 started at 156.359613194'
p649
aS'trial 14 event j at 158.317934661'
p650
aS'staircase 3 updated from 3.150000 to 3.150000 after response 1 at 158.317949'
p651
aa(lp652
S'trial 15 started at 159.765973478'
p653
aS'trial 15 phase 6 started at 162.959216639'
p654
aS'trial 15 event l at 164.800914273'
p655
aS'staircase 2 updated from 3.000000 to 4.000000 after response 0 at 164.800934'
p656
aa(lp657
S'trial 16 started at 166.365143876'
p658
aS'trial 16 phase 6 started at 170.058878383'
p659
aS'trial 16 event j at 171.409046086'
p660
aS'staircase 3 updated from 3.150000 to 2.300000 after response 1 at 171.409062'
p661
aa(lp662
S'trial 17 started at 173.461054165'
p663
aS'trial 17 phase 6 started at 176.650192932'
p664
aS'trial 17 event j at 178.241892348'
p665
aS'staircase 3 updated from 2.300000 to 2.300000 after response 1 at 178.241907'
p666
aa(lp667
S'trial 18 started at 180.058356105'
p668
aS'trial 18 phase 6 started at 183.249841991'
p669
aS'trial 18 event j at 185.541488808'
p670
aS'staircase 3 updated from 2.300000 to 3.150000 after response 0 at 185.541506'
p671
aa(lp672
S'trial 19 started at 186.65607256'
p673
aS'trial 19 phase 6 started at 189.849476224'
p674
aS'trial 19 event j at 192.83275475'
p675
aS'staircase 2 updated from 4.000000 to 4.000000 after response 1 at 192.832770'
p676
aa(lp677
S'trial 20 started at 193.259236167'
p678
aS'trial 20 phase 6 started at 196.949103474'
p679
aS'trial 20 event l at 198.590800538'
p680
aS'staircase 3 updated from 3.150000 to 3.150000 after response 1 at 198.590817'
p681
aa(lp682
S'trial 21 started at 200.354887597'
p683
aS'trial 21 phase 6 started at 204.048727872'
p684
aS'trial 21 event l at 205.582085153'
p685
aS'staircase 3 updated from 3.150000 to 3.150000 after response 1 at 205.582100'
p686
aa(lp687
S'trial 22 started at 207.45284937'
p688
aS'trial 22 phase 6 started at 211.14835056'
p689
aS'trial 22 event l at 213.031690236'
p690
aS'staircase 2 updated from 4.000000 to 4.850000 after response 0 at 213.031710'
p691
aa(lp692
S'trial 23 started at 214.557330505'
p693
aS'trial 23 phase 6 started at 217.747998478'
p694
aS'trial 23 event l at 218.773033935'
p695
aS'staircase 3 updated from 3.150000 to 2.427500 after response 1 at 218.773051'
p696
aa(lp697
S'trial 24 started at 221.153262603'
p698
aS'trial 24 phase 6 started at 224.347630431'
p699
aS'trial 24 event j at 227.355914765'
p700
aS'staircase 2 updated from 4.850000 to 4.850000 after response 1 at 227.355930'
p701
aa(lp702
S'trial 25 started at 227.755781629'
p703
aS'trial 25 phase 6 started at 231.447255399'
p704
aS'trial 25 event j at 232.438964793'
p705
aS'staircase 2 updated from 4.850000 to 4.850000 after response 1 at 232.438978'
p706
aa(lp707
S'trial 26 started at 234.862292867'
p708
aS'trial 26 phase 6 started at 238.555201478'
p709
aS'trial 26 event j at 240.163560505'
p710
aS'staircase 2 updated from 4.850000 to 4.127500 after response 1 at 240.163577'
p711
aa(lp712
S'trial 27 started at 241.961454854'
p713
aS'trial 27 phase 6 started at 245.154851391'
p714
aS'trial 27 event j at 246.371558612'
p715
aS'staircase 3 updated from 2.427500 to 2.427500 after response 1 at 246.371573'
p716
aa(lp717
S'trial 28 started at 248.563162524'
p718
aS'trial 28 phase 6 started at 251.754470231'
p719
aS'trial 28 event l at 253.51286525'
p720
aS'staircase 2 updated from 4.127500 to 4.850000 after response 0 at 253.512884'
p721
aa(lp722
S'trial 29 started at 255.161793537'
p723
aS'trial 29 phase 6 started at 258.854135966'
p724
aS'trial 29 event l at 260.49581678'
p725
aS'staircase 3 updated from 2.427500 to 2.427500 after response 1 at 260.495831'
p726
aa(lp727
S'trial 30 started at 262.262852492'
p728
aS'trial 30 phase 6 started at 265.453761362'
p729
aS'trial 30 event l at 266.670475995'
p730
aS'staircase 3 updated from 2.427500 to 1.705000 after response 1 at 266.670493'
p731
aa(lp732
S'trial 31 started at 268.86868337'
p733
aS'trial 31 phase 6 started at 272.561726827'
p734
aS'trial 31 event j at 274.586717526'
p735
aS'staircase 3 updated from 1.705000 to 1.705000 after response 1 at 274.586732'
p736
aa(lp737
S'trial 32 started at 275.970998131'
p738
aS'trial 32 phase 6 started at 279.66134923'
p739
aS'trial 32 event l at 280.869725932'
p740
aS'staircase 2 updated from 4.850000 to 4.850000 after response 1 at 280.869740'
p741
aa(lp742
S'trial 33 started at 283.07126654'
p743
aS'trial 33 phase 6 started at 286.260995722'
p744
aS'trial 33 event l at 287.002721152'
p745
aS'staircase 2 updated from 4.850000 to 4.850000 after response 1 at 287.002735'
p746
aa(lp747
S'trial 34 started at 289.671399391'
p748
aS'trial 34 phase 6 started at 292.860646491'
p749
aS'trial 34 event j at 294.543991299'
p750
aS'staircase 3 updated from 1.705000 to 1.705000 after response 1 at 294.544007'
p751
aa(lp752
S'trial 35 started at 296.274203789'
p753
aS'trial 35 phase 6 started at 299.968602548'
p754
aS'trial 35 event j at 301.185289812'
p755
aS'staircase 2 updated from 4.850000 to 4.235875 after response 1 at 301.185305'
p756
aa(lp757
S'trial 36 started at 303.381251559'
p758
aS'trial 36 phase 6 started at 306.576580129'
p759
aS'trial 36 event j at 307.701610882'
p760
aS'staircase 3 updated from 1.705000 to 2.427500 after response 0 at 307.701629'
p761
aa(lp762
S'trial 37 started at 309.987168818'
p763
aS'trial 37 phase 6 started at 313.676193979'
p764
aS'trial 37 event l at 315.151221953'
p765
aS'staircase 2 updated from 4.235875 to 4.850000 after response 0 at 315.151240'
p766
aa(lp767
S'trial 38 started at 317.086929488'
p768
aS'trial 38 phase 6 started at 320.775814671'
p769
a(lp770
I-99
aF4.763935393655629
aaasS'trialResponses'
p771
(lp772
s.