(dp0
S'parameterArray'
p1
(lp2
(dp3
S'reaction_time'
p4
F1.0917426066334883
sS'trial_start'
p5
F262.0055329624356
sS'task'
p6
I1
sS'trial_orientation'
p7
F2.4275
sS'base_color_lum'
p8
cnumpy.core.multiarray
scalar
p9
(cnumpy
dtype
p10
(S'i4'
p11
I0
I1
tp12
Rp13
(I3
S'<'
p14
NNNI-1
I-1
I0
tp15
bS'7\x00\x00\x00'
p16
tp17
Rp18
sS'button'
p19
S'f'
p20
sS'trial_cue'
p21
S'red135'
p22
sS'trial_color'
p23
F34.0
sS'trial_stimulus_label'
p24
g22
sS'trial_stimulus'
p25
I1
sS'base_ori'
p26
g9
(g13
S'\x87\x00\x00\x00'
p27
tp28
Rp29
sS'trial_end'
p30
F268.3490644167632
sS'base_color_b'
p31
g9
(g13
S'K\x00\x00\x00'
p32
tp33
Rp34
sS'base_color_a'
p35
g9
(g13
S'P\x00\x00\x00'
p36
tp37
Rp38
sS'correct_answer'
p39
I1
sS'trial_position_y'
p40
I0
sS'trial_position_x'
p41
I0
sS'response'
p42
I1
sS'trial_direction'
p43
F1.0
sa(dp44
g4
F2.0250038130343455
sg5
F268.6074980649737
sg6
I2
sg7
F2.4275
sg8
g9
(g13
S'7\x00\x00\x00'
p45
tp46
Rp47
sg19
S'j'
p48
sg21
g22
sg23
F34.0
sg24
g22
sg25
I1
sg26
g9
(g13
S'\x87\x00\x00\x00'
p49
tp50
Rp51
sg30
F274.94867527343376
sg31
g9
(g13
S'K\x00\x00\x00'
p52
tp53
Rp54
sg35
g9
(g13
S'P\x00\x00\x00'
p55
tp56
Rp57
sg39
I0
sg40
I0
sg41
I0
sg42
I-1
sg43
F1.0
sa(dp58
g4
F2.3750569104304304
sg5
F275.2040604896938
sg6
I1
sg7
F4.85
sg8
g9
(g13
S'7\x00\x00\x00'
p59
tp60
Rp61
sg19
S'f'
p62
sg21
S'green45'
p63
sg23
I-25
sg24
g63
sg25
I2
sg26
g9
(g13
S'-\x00\x00\x00'
p64
tp65
Rp66
sg30
F282.04832105322384
sg31
g9
(g13
S'K\x00\x00\x00'
p67
tp68
Rp69
sg35
g9
(g13
S'\xb0\xff\xff\xff'
p70
tp71
Rp72
sg39
I1
sg40
I0
sg41
I0
sg42
I1
sg43
F1.0
sa(dp73
g4
F1.2584022886767343
sg5
F282.3055373812804
sg6
I1
sg7
F3.1500000000000004
sg8
g9
(g13
S'7\x00\x00\x00'
p74
tp75
Rp76
sg19
S's'
p77
sg21
S'green135'
p78
sg23
I-25
sg24
g78
sg25
I3
sg26
g9
(g13
S'\x87\x00\x00\x00'
p79
tp80
Rp81
sg30
F289.1479206489712
sg31
g9
(g13
S'K\x00\x00\x00'
p82
tp83
Rp84
sg35
g9
(g13
S'\xb0\xff\xff\xff'
p85
tp86
Rp87
sg39
I1
sg40
I0
sg41
I0
sg42
I-1
sg43
F-1.0
sa(dp88
g4
F1.1834110907275317
sg5
F289.40395358218666
sg6
I1
sg7
F-3.1500000000000004
sg8
g9
(g13
S'7\x00\x00\x00'
p89
tp90
Rp91
sg19
S's'
p92
sg21
g78
sg23
I-25
sg24
g78
sg25
I3
sg26
g9
(g13
S'\x87\x00\x00\x00'
p93
tp94
Rp95
sg30
F295.74757113269334
sg31
g9
(g13
S'K\x00\x00\x00'
p96
tp97
Rp98
sg35
g9
(g13
S'\xb0\xff\xff\xff'
p99
tp100
Rp101
sg39
I1
sg40
I0
sg41
I0
sg42
I-1
sg43
F-1.0
sa(dp102
g4
F1.458397727288684
sg5
F296.0055879841657
sg6
I2
sg7
F4.85
sg8
g9
(g13
S'7\x00\x00\x00'
p103
tp104
Rp105
sg19
S'l'
p106
sg21
S'red45'
p107
sg23
F34.0
sg24
g107
sg25
I0
sg26
g9
(g13
S'-\x00\x00\x00'
p108
tp109
Rp110
sg30
F302.84715533375856
sg31
g9
(g13
S'K\x00\x00\x00'
p111
tp112
Rp113
sg35
g9
(g13
S'P\x00\x00\x00'
p114
tp115
Rp116
sg39
I1
sg40
I0
sg41
I0
sg42
I1
sg43
F1.0
sa(dp117
g4
F2.3500932946190005
sg5
F303.1038582206893
sg6
I1
sg7
F3.1500000000000004
sg8
g9
(g13
S'7\x00\x00\x00'
p118
tp119
Rp120
sg19
S'f'
p121
sg21
g78
sg23
F34.0
sg24
g22
sg25
I1
sg26
g9
(g13
S'\x87\x00\x00\x00'
p122
tp123
Rp124
sg30
F309.9467748855732
sg31
g9
(g13
S'K\x00\x00\x00'
p125
tp126
Rp127
sg35
g9
(g13
S'P\x00\x00\x00'
p128
tp129
Rp130
sg39
I1
sg40
I0
sg41
I0
sg42
I1
sg43
F1.0
sa(dp131
g4
F1.575116778634765
sg5
F310.20655528329735
sg6
I1
sg7
F4.85
sg8
g9
(g13
S'7\x00\x00\x00'
p132
tp133
Rp134
sg19
S's'
p135
sg21
g107
sg23
F21.25
sg24
g107
sg25
I0
sg26
g9
(g13
S'-\x00\x00\x00'
p136
tp137
Rp138
sg30
F316.5464678472108
sg31
g9
(g13
S'K\x00\x00\x00'
p139
tp140
Rp141
sg35
g9
(g13
S'P\x00\x00\x00'
p142
tp143
Rp144
sg39
I1
sg40
I0
sg41
I0
sg42
I-1
sg43
F-1.0
sa(dp145
g4
F1.3084464058410958
sg5
F316.8022997943099
sg6
I2
sg7
F-3.1500000000000004
sg8
g9
(g13
S'7\x00\x00\x00'
p146
tp147
Rp148
sg19
S'j'
p149
sg21
g63
sg23
F-12.25
sg24
g78
sg25
I3
sg26
g9
(g13
S'\x87\x00\x00\x00'
p150
tp151
Rp152
sg30
F323.6460586052708
sg31
g9
(g13
S'K\x00\x00\x00'
p153
tp154
Rp155
sg35
g9
(g13
S'\xb0\xff\xff\xff'
p156
tp157
Rp158
sg39
I1
sg40
I0
sg41
I0
sg42
I-1
sg43
F-1.0
sa(dp159
g4
F1.8084063511614659
sg5
F323.9027740360161
sg6
I1
sg7
F-4.85
sg8
g9
(g13
S'7\x00\x00\x00'
p160
tp161
Rp162
sg19
S's'
p163
sg21
g107
sg23
F21.25
sg24
g107
sg25
I0
sg26
g9
(g13
S'-\x00\x00\x00'
p164
tp165
Rp166
sg30
F330.74566133697044
sg31
g9
(g13
S'K\x00\x00\x00'
p167
tp168
Rp169
sg35
g9
(g13
S'P\x00\x00\x00'
p170
tp171
Rp172
sg39
I1
sg40
I0
sg41
I0
sg42
I-1
sg43
F-1.0
sa(dp173
g4
F1.04175265593949
sg5
F331.0040231433377
sg6
I1
sg7
F4.85
sg8
g9
(g13
S'7\x00\x00\x00'
p174
tp175
Rp176
sg19
S's'
p177
sg21
g78
sg23
F-12.25
sg24
g63
sg25
I2
sg26
g9
(g13
S'-\x00\x00\x00'
p178
tp179
Rp180
sg30
F337.8453262175699
sg31
g9
(g13
S'K\x00\x00\x00'
p181
tp182
Rp183
sg35
g9
(g13
S'\xb0\xff\xff\xff'
p184
tp185
Rp186
sg39
I1
sg40
I0
sg41
I0
sg42
I-1
sg43
F-1.0
sa(dp187
g4
F1.975050638522589
sg5
F338.1055553417409
sg6
I1
sg7
F-3.1500000000000004
sg8
g9
(g13
S'7\x00\x00\x00'
p188
tp189
Rp190
sg19
S's'
p191
sg21
g78
sg23
F-12.25
sg24
g78
sg25
I3
sg26
g9
(g13
S'\x87\x00\x00\x00'
p192
tp193
Rp194
sg30
F344.4449222497333
sg31
g9
(g13
S'K\x00\x00\x00'
p195
tp196
Rp197
sg35
g9
(g13
S'\xb0\xff\xff\xff'
p198
tp199
Rp200
sg39
I1
sg40
I0
sg41
I0
sg42
I-1
sg43
F-1.0
sa(dp201
g4
F2.3166591831413825
sg5
F344.70826737140123
sg6
I2
sg7
F-4.85
sg8
g9
(g13
S'7\x00\x00\x00'
p202
tp203
Rp204
sg19
S'f'
p205
sg21
g63
sg23
F-12.25
sg24
g63
sg25
I2
sg26
g9
(g13
S'-\x00\x00\x00'
p206
tp207
Rp208
sg30
F351.0529026813838
sg31
g9
(g13
S'K\x00\x00\x00'
p209
tp210
Rp211
sg35
g9
(g13
S'\xb0\xff\xff\xff'
p212
tp213
Rp214
sg39
I0
sg40
I0
sg41
I0
sg42
I1
sg43
F-1.0
sa(dp215
g4
F0.983499467600268
sg5
F351.3151767323652
sg6
I1
sg7
F-4.85
sg8
g9
(g13
S'7\x00\x00\x00'
p216
tp217
Rp218
sg19
S's'
p219
sg21
g107
sg23
F-12.25
sg24
g63
sg25
I2
sg26
g9
(g13
S'-\x00\x00\x00'
p220
tp221
Rp222
sg30
F357.6608640122249
sg31
g9
(g13
S'K\x00\x00\x00'
p223
tp224
Rp225
sg35
g9
(g13
S'\xb0\xff\xff\xff'
p226
tp227
Rp228
sg39
I0
sg40
I0
sg41
I0
sg42
I-1
sg43
F1.0
sa(dp229
g4
F2.1500793253708252
sg5
F357.9202156395713
sg6
I2
sg7
F4.85
sg8
g9
(g13
S'7\x00\x00\x00'
p230
tp231
Rp232
sg19
S's'
p233
sg21
g107
sg23
F21.25
sg24
g107
sg25
I0
sg26
g9
(g13
S'-\x00\x00\x00'
p234
tp235
Rp236
sg30
F364.2605076538657
sg31
g9
(g13
S'K\x00\x00\x00'
p237
tp238
Rp239
sg35
g9
(g13
S'P\x00\x00\x00'
p240
tp241
Rp242
sg39
I0
sg40
I0
sg41
I0
sg42
I-1
sg43
F1.0
sa(dp243
g4
F1.491750303974186
sg5
F364.5202082273172
sg6
I2
sg7
F-4.85
sg8
g9
(g13
S'7\x00\x00\x00'
p244
tp245
Rp246
sg19
S'j'
p247
sg21
g63
sg23
F-25.0
sg24
g63
sg25
I2
sg26
g9
(g13
S'-\x00\x00\x00'
p248
tp249
Rp250
sg30
F370.86014359816545
sg31
g9
(g13
S'K\x00\x00\x00'
p251
tp252
Rp253
sg35
g9
(g13
S'\xb0\xff\xff\xff'
p254
tp255
Rp256
sg39
I1
sg40
I0
sg41
I0
sg42
I-1
sg43
F-1.0
sa(dp257
g4
F1.7416610005675466
sg5
F371.1208317119035
sg6
I2
sg7
F3.1500000000000004
sg8
g9
(g13
S'7\x00\x00\x00'
p258
tp259
Rp260
sg19
S'j'
p261
sg21
g78
sg23
F-25.0
sg24
g78
sg25
I3
sg26
g9
(g13
S'\x87\x00\x00\x00'
p262
tp263
Rp264
sg30
F377.45979835818616
sg31
g9
(g13
S'K\x00\x00\x00'
p265
tp266
Rp267
sg35
g9
(g13
S'\xb0\xff\xff\xff'
p268
tp269
Rp270
sg39
I0
sg40
I0
sg41
I0
sg42
I-1
sg43
F1.0
sa(dp271
g4
F1.6168263864838082
sg5
F377.73513764697964
sg6
I2
sg7
F-4.85
sg8
g9
(g13
S'7\x00\x00\x00'
p272
tp273
Rp274
sg19
S'j'
p275
sg21
g63
sg23
F-25.0
sg24
g63
sg25
I2
sg26
g9
(g13
S'-\x00\x00\x00'
p276
tp277
Rp278
sg30
F384.076115294758
sg31
g9
(g13
S'K\x00\x00\x00'
p279
tp280
Rp281
sg35
g9
(g13
S'\xb0\xff\xff\xff'
p282
tp283
Rp284
sg39
I1
sg40
I0
sg41
I0
sg42
I-1
sg43
F-1.0
sa(dp285
g4
F1.5668144841129106
sg5
F384.3388087082585
sg6
I1
sg7
F-4.32799375
sg8
g9
(g13
S'7\x00\x00\x00'
p286
tp287
Rp288
sg19
S'f'
p289
sg21
g78
sg23
F21.25
sg24
g107
sg25
I0
sg26
g9
(g13
S'-\x00\x00\x00'
p290
tp291
Rp292
sg30
F390.68406721773863
sg31
g9
(g13
S'K\x00\x00\x00'
p293
tp294
Rp295
sg35
g9
(g13
S'P\x00\x00\x00'
p296
tp297
Rp298
sg39
I1
sg40
I0
sg41
I0
sg42
I1
sg43
F1.0
sa(dp299
g4
F1.1251074420451914
sg5
F390.9470947528371
sg6
I1
sg7
F-3.7641250000000004
sg8
g9
(g13
S'7\x00\x00\x00'
p300
tp301
Rp302
sg19
S's'
p303
sg21
g63
sg23
F8.5
sg24
g22
sg25
I1
sg26
g9
(g13
S'\x87\x00\x00\x00'
p304
tp305
Rp306
sg30
F397.29206703528325
sg31
g9
(g13
S'K\x00\x00\x00'
p307
tp308
Rp309
sg35
g9
(g13
S'P\x00\x00\x00'
p310
tp311
Rp312
sg39
I1
sg40
I0
sg41
I0
sg42
I-1
sg43
F-1.0
sa(dp313
g4
F1.658412551796573
sg5
F397.5559173305628
sg6
I1
sg7
F3.7641250000000004
sg8
g9
(g13
S'7\x00\x00\x00'
p314
tp315
Rp316
sg19
S'f'
p317
sg21
g78
sg23
F-25.0
sg24
g78
sg25
I3
sg26
g9
(g13
S'\x87\x00\x00\x00'
p318
tp319
Rp320
sg30
F403.90003321259974
sg31
g9
(g13
S'K\x00\x00\x00'
p321
tp322
Rp323
sg35
g9
(g13
S'\xb0\xff\xff\xff'
p324
tp325
Rp326
sg39
I1
sg40
I0
sg41
I0
sg42
I1
sg43
F1.0
sa(dp327
g4
F2.0416990596422693
sg5
F404.16537080512717
sg6
I1
sg7
F3.7641250000000004
sg8
g9
(g13
S'7\x00\x00\x00'
p328
tp329
Rp330
sg19
S'f'
p331
sg21
g22
sg23
F8.5
sg24
g22
sg25
I1
sg26
g9
(g13
S'\x87\x00\x00\x00'
p332
tp333
Rp334
sg30
F411.0079983921114
sg31
g9
(g13
S'K\x00\x00\x00'
p335
tp336
Rp337
sg35
g9
(g13
S'P\x00\x00\x00'
p338
tp339
Rp340
sg39
I1
sg40
I0
sg41
I0
sg42
I1
sg43
F1.0
sa(dp341
g4
F0.8751365921598335
sg5
F411.27389076333384
sg6
I1
sg7
F3.7641250000000004
sg8
g9
(g13
S'7\x00\x00\x00'
p342
tp343
Rp344
sg19
S's'
p345
sg21
g63
sg23
F-25.0
sg24
g78
sg25
I3
sg26
g9
(g13
S'\x87\x00\x00\x00'
p346
tp347
Rp348
sg30
F418.1159342076953
sg31
g9
(g13
S'K\x00\x00\x00'
p349
tp350
Rp351
sg35
g9
(g13
S'\xb0\xff\xff\xff'
p352
tp353
Rp354
sg39
I1
sg40
I0
sg41
I0
sg42
I-1
sg43
F-1.0
sa(dp355
g4
F2.225070523318209
sg5
F418.38032787819975
sg6
I1
sg7
F-3.7641250000000004
sg8
g9
(g13
S'7\x00\x00\x00'
p356
tp357
Rp358
sg19
S'f'
p359
sg21
g22
sg23
F8.5
sg24
g22
sg25
I1
sg26
g9
(g13
S'\x87\x00\x00\x00'
p360
tp361
Rp362
sg30
F424.72389952975027
sg31
g9
(g13
S'K\x00\x00\x00'
p363
tp364
Rp365
sg35
g9
(g13
S'P\x00\x00\x00'
p366
tp367
Rp368
sg39
I0
sg40
I0
sg41
I0
sg42
I1
sg43
F-1.0
sa(dp369
g4
F2.8082552552168636
sg5
F424.9877512504627
sg6
I2
sg7
F3.7641250000000004
sg8
g9
(g13
S'7\x00\x00\x00'
p370
tp371
Rp372
sg19
S'l'
p373
sg21
g78
sg23
F-25.0
sg24
g78
sg25
I3
sg26
g9
(g13
S'\x87\x00\x00\x00'
p374
tp375
Rp376
sg30
F431.33187682544667
sg31
g9
(g13
S'K\x00\x00\x00'
p377
tp378
Rp379
sg35
g9
(g13
S'\xb0\xff\xff\xff'
p380
tp381
Rp382
sg39
I1
sg40
I0
sg41
I0
sg42
I1
sg43
F1.0
sa(dp383
g4
F1.2500920117290661
sg5
F431.5985032948902
sg6
I2
sg7
F-4.32799375
sg8
g9
(g13
S'7\x00\x00\x00'
p384
tp385
Rp386
sg19
S'j'
p387
sg21
g22
sg23
F-25.0
sg24
g63
sg25
I2
sg26
g9
(g13
S'-\x00\x00\x00'
p388
tp389
Rp390
sg30
F438.43985625929236
sg31
g9
(g13
S'K\x00\x00\x00'
p391
tp392
Rp393
sg35
g9
(g13
S'\xb0\xff\xff\xff'
p394
tp395
Rp396
sg39
I1
sg40
I0
sg41
I0
sg42
I-1
sg43
F-1.0
sa(dp397
g4
F2.0083969433017046
sg5
F438.7113745312108
sg6
I2
sg7
F-4.32799375
sg8
g9
(g13
S'7\x00\x00\x00'
p398
tp399
Rp400
sg19
S'j'
p401
sg21
g63
sg23
F21.25
sg24
g107
sg25
I0
sg26
g9
(g13
S'-\x00\x00\x00'
p402
tp403
Rp404
sg30
F445.05613927054947
sg31
g9
(g13
S'K\x00\x00\x00'
p405
tp406
Rp407
sg35
g9
(g13
S'P\x00\x00\x00'
p408
tp409
Rp410
sg39
I1
sg40
I0
sg41
I0
sg42
I-1
sg43
F-1.0
sa(dp411
g4
F1.1417910000982374
sg5
F445.3197059045724
sg6
I2
sg7
F4.32799375
sg8
g9
(g13
S'7\x00\x00\x00'
p412
tp413
Rp414
sg19
S'l'
p415
sg21
g107
sg23
F21.25
sg24
g107
sg25
I0
sg26
g9
(g13
S'-\x00\x00\x00'
p416
tp417
Rp418
sg30
F451.66409261896297
sg31
g9
(g13
S'K\x00\x00\x00'
p419
tp420
Rp421
sg35
g9
(g13
S'P\x00\x00\x00'
p422
tp423
Rp424
sg39
I1
sg40
I0
sg41
I0
sg42
I1
sg43
F1.0
sa(dp425
g4
F2.6084260221432487
sg5
F451.92781319979986
sg6
I2
sg7
F3.7641250000000004
sg8
g9
(g13
S'7\x00\x00\x00'
p426
tp427
Rp428
sg19
S'l'
p429
sg21
g78
sg23
F-25.0
sg24
g78
sg25
I3
sg26
g9
(g13
S'\x87\x00\x00\x00'
p430
tp431
Rp432
sg30
F458.7720341362801
sg31
g9
(g13
S'K\x00\x00\x00'
p433
tp434
Rp435
sg35
g9
(g13
S'\xb0\xff\xff\xff'
p436
tp437
Rp438
sg39
I1
sg40
I0
sg41
I0
sg42
I1
sg43
F1.0
sa(dp439
g4
F1.3667158441203355
sg5
F459.0386608908102
sg6
I2
sg7
F-3.8059875
sg8
g9
(g13
S'7\x00\x00\x00'
p440
tp441
Rp442
sg19
S'j'
p443
sg21
g63
sg23
F-25.0
sg24
g63
sg25
I2
sg26
g9
(g13
S'-\x00\x00\x00'
p444
tp445
Rp446
sg30
F465.88001299995267
sg31
g9
(g13
S'K\x00\x00\x00'
p447
tp448
Rp449
sg35
g9
(g13
S'\xb0\xff\xff\xff'
p450
tp451
Rp452
sg39
I1
sg40
I0
sg41
I0
sg42
I-1
sg43
F-1.0
sa(dp453
g4
F1.4667068638900673
sg5
F466.1439667816994
sg6
I2
sg7
F3.7641250000000004
sg8
g9
(g13
S'7\x00\x00\x00'
p454
tp455
Rp456
sg19
S'l'
p457
sg21
g107
sg23
F21.25
sg24
g22
sg25
I1
sg26
g9
(g13
S'\x87\x00\x00\x00'
p458
tp459
Rp460
sg30
F472.4879629273273
sg31
g9
(g13
S'K\x00\x00\x00'
p461
tp462
Rp463
sg35
g9
(g13
S'P\x00\x00\x00'
p464
tp465
Rp466
sg39
I1
sg40
I0
sg41
I0
sg42
I1
sg43
F1.0
sa(dp467
g4
F0.8334694622262759
sg5
F472.7580255466182
sg6
I1
sg7
F-3.8059875
sg8
g9
(g13
S'7\x00\x00\x00'
p468
tp469
Rp470
sg19
S's'
p471
sg21
g22
sg23
F21.25
sg24
g107
sg25
I0
sg26
g9
(g13
S'-\x00\x00\x00'
p472
tp473
Rp474
sg30
F479.10434600401095
sg31
g9
(g13
S'K\x00\x00\x00'
p475
tp476
Rp477
sg35
g9
(g13
S'P\x00\x00\x00'
p478
tp479
Rp480
sg39
I1
sg40
I0
sg41
I0
sg42
I-1
sg43
F-1.0
sa(dp481
g4
F2.0250348874833435
sg5
F479.3734926397756
sg6
I2
sg7
F-3.2421187500000004
sg8
g9
(g13
S'7\x00\x00\x00'
p482
tp483
Rp484
sg19
S'j'
p485
sg21
g22
sg23
F21.25
sg24
g22
sg25
I1
sg26
g9
(g13
S'\x87\x00\x00\x00'
p486
tp487
Rp488
sg30
F486.21225929774664
sg31
g9
(g13
S'K\x00\x00\x00'
p489
tp490
Rp491
sg35
g9
(g13
S'P\x00\x00\x00'
p492
tp493
Rp494
sg39
I1
sg40
I0
sg41
I0
sg42
I-1
sg43
F-1.0
sa(dp495
g4
F1.6751040922754328
sg5
F486.5068496353033
sg6
I1
sg7
F-3.2421187500000004
sg8
g9
(g13
S'7\x00\x00\x00'
p496
tp497
Rp498
sg19
S'f'
p499
sg21
g22
sg23
F-25.0
sg24
g78
sg25
I3
sg26
g9
(g13
S'\x87\x00\x00\x00'
p500
tp501
Rp502
sg30
F492.853542986084
sg31
g9
(g13
S'K\x00\x00\x00'
p503
tp504
Rp505
sg35
g9
(g13
S'\xb0\xff\xff\xff'
p506
tp507
Rp508
sg39
I0
sg40
I0
sg41
I0
sg42
I1
sg43
F-1.0
sa(dp509
g4
F1.241756647152215
sg5
F493.121354560888
sg6
I2
sg7
F3.2421187500000004
sg8
g9
(g13
S'7\x00\x00\x00'
p510
tp511
Rp512
sg19
S'l'
p513
sg21
g78
sg23
F21.25
sg24
g22
sg25
I1
sg26
g9
(g13
S'\x87\x00\x00\x00'
p514
tp515
Rp516
sg30
F499.96152470062407
sg31
g9
(g13
S'K\x00\x00\x00'
p517
tp518
Rp519
sg35
g9
(g13
S'P\x00\x00\x00'
p520
tp521
Rp522
sg39
I1
sg40
I0
sg41
I0
sg42
I1
sg43
F1.0
sa(dp523
g4
F2.2417010552489955
sg5
F500.2265706494709
sg6
I2
sg7
F3.2421187500000004
sg8
g9
(g13
S'7\x00\x00\x00'
p524
tp525
Rp526
sg19
S'l'
p527
sg21
g107
sg23
F21.25
sg24
g22
sg25
I1
sg26
g9
(g13
S'\x87\x00\x00\x00'
p528
tp529
Rp530
sg30
F507.06946593285465
sg31
g9
(g13
S'K\x00\x00\x00'
p531
tp532
Rp533
sg35
g9
(g13
S'P\x00\x00\x00'
p534
tp535
Rp536
sg39
I1
sg40
I0
sg41
I0
sg42
I1
sg43
F1.0
sa(dp537
g4
F1.9251057315250364
sg5
F507.33784055386604
sg6
I1
sg7
F-3.8059875
sg8
g9
(g13
S'7\x00\x00\x00'
p538
tp539
Rp540
sg19
S's'
p541
sg21
g107
sg23
F21.25
sg24
g107
sg25
I0
sg26
g9
(g13
S'-\x00\x00\x00'
p542
tp543
Rp544
sg30
F513.6774503557172
sg31
g9
(g13
S'K\x00\x00\x00'
p545
tp546
Rp547
sg35
g9
(g13
S'P\x00\x00\x00'
p548
tp549
Rp550
sg39
I1
sg40
I0
sg41
I0
sg42
I-1
sg43
F-1.0
sa(dp551
g4
F1.441802546109102
sg5
F513.9475306503828
sg6
I2
sg7
F-2.7201125000000004
sg8
g9
(g13
S'7\x00\x00\x00'
p552
tp553
Rp554
sg19
S'j'
p555
sg21
g78
sg23
F-35.8375
sg24
g78
sg25
I3
sg26
g9
(g13
S'\x87\x00\x00\x00'
p556
tp557
Rp558
sg30
F520.7936950228141
sg31
g9
(g13
S'K\x00\x00\x00'
p559
tp560
Rp561
sg35
g9
(g13
S'\xb0\xff\xff\xff'
p562
tp563
Rp564
sg39
I1
sg40
I0
sg41
I0
sg42
I-1
sg43
F-1.0
sa(dp565
g4
F2.4834243472596427
sg5
F521.0617403687029
sg6
I1
sg7
F3.8059875
sg8
g9
(g13
S'7\x00\x00\x00'
p566
tp567
Rp568
sg19
S'f'
p569
sg21
g63
sg23
F-35.8375
sg24
g63
sg25
I2
sg26
g9
(g13
S'-\x00\x00\x00'
p570
tp571
Rp572
sg30
F527.4016945552721
sg31
g9
(g13
S'K\x00\x00\x00'
p573
tp574
Rp575
sg35
g9
(g13
S'\xb0\xff\xff\xff'
p576
tp577
Rp578
sg39
I1
sg40
I0
sg41
I0
sg42
I1
sg43
F1.0
sa(dp579
g4
F1.275036526732947
sg5
F527.6711391066237
sg6
I2
sg7
F-2.7201125000000004
sg8
g9
(g13
S'7\x00\x00\x00'
p580
tp581
Rp582
sg19
S'j'
p583
sg21
g78
sg23
F-35.8375
sg24
g78
sg25
I3
sg26
g9
(g13
S'\x87\x00\x00\x00'
p584
tp585
Rp586
sg30
F534.5179380820227
sg31
g9
(g13
S'K\x00\x00\x00'
p587
tp588
Rp589
sg35
g9
(g13
S'\xb0\xff\xff\xff'
p590
tp591
Rp592
sg39
I1
sg40
I0
sg41
I0
sg42
I-1
sg43
F-1.0
sa(dp593
g4
F0.7167772090288054
sg5
F534.7837426465449
sg6
I1
sg7
F-3.8059875
sg8
g9
(g13
S'7\x00\x00\x00'
p594
tp595
Rp596
sg19
S's'
p597
sg21
g107
sg23
F21.25
sg24
g107
sg25
I0
sg26
g9
(g13
S'-\x00\x00\x00'
p598
tp599
Rp600
sg30
F541.6259078229214
sg31
g9
(g13
S'K\x00\x00\x00'
p601
tp602
Rp603
sg35
g9
(g13
S'P\x00\x00\x00'
p604
tp605
Rp606
sg39
I1
sg40
I0
sg41
I0
sg42
I-1
sg43
F-1.0
sa(dp607
g4
F2.06673565764504
sg5
F541.8942182994306
sg6
I2
sg7
F-2.7201125000000004
sg8
g9
(g13
S'7\x00\x00\x00'
p608
tp609
Rp610
sg19
S'l'
p611
sg21
g22
sg23
F10.4125
sg24
g22
sg25
I1
sg26
g9
(g13
S'\x87\x00\x00\x00'
p612
tp613
Rp614
sg30
F548.7338479148057
sg31
g9
(g13
S'K\x00\x00\x00'
p615
tp616
Rp617
sg35
g9
(g13
S'P\x00\x00\x00'
p618
tp619
Rp620
sg39
I0
sg40
I0
sg41
I0
sg42
I1
sg43
F-1.0
sa(dp621
g4
F2.1250250519915426
sg5
F549.0055517781566
sg6
I2
sg7
F-3.8059875
sg8
g9
(g13
S'7\x00\x00\x00'
p622
tp623
Rp624
sg19
S'j'
p625
sg21
g63
sg23
F-35.8375
sg24
g63
sg25
I2
sg26
g9
(g13
S'-\x00\x00\x00'
p626
tp627
Rp628
sg30
F555.3501685575047
sg31
g9
(g13
S'K\x00\x00\x00'
p629
tp630
Rp631
sg35
g9
(g13
S'\xb0\xff\xff\xff'
p632
tp633
Rp634
sg39
I1
sg40
I0
sg41
I0
sg42
I-1
sg43
F-1.0
sa(dp635
g4
F2.7667109976482607
sg5
F555.6216751408683
sg6
I2
sg7
F3.8059875
sg8
g9
(g13
S'7\x00\x00\x00'
p636
tp637
Rp638
sg19
S'f'
p639
sg21
g63
sg23
F-35.8375
sg24
g63
sg25
I2
sg26
g9
(g13
S'-\x00\x00\x00'
p640
tp641
Rp642
sg30
F561.9664783669105
sg31
g9
(g13
S'K\x00\x00\x00'
p643
tp644
Rp645
sg35
g9
(g13
S'\xb0\xff\xff\xff'
p646
tp647
Rp648
sg39
I0
sg40
I0
sg41
I0
sg42
I1
sg43
F1.0
sa(dp649
g4
F1.4000592980301008
sg5
F562.2426828938005
sg6
I2
sg7
F3.8059875
sg8
g9
(g13
S'7\x00\x00\x00'
p650
tp651
Rp652
sg19
S'l'
p653
sg21
g63
sg23
F-35.8375
sg24
g63
sg25
I2
sg26
g9
(g13
S'-\x00\x00\x00'
p654
tp655
Rp656
sg30
F569.0827908846386
sg31
g9
(g13
S'K\x00\x00\x00'
p657
tp658
Rp659
sg35
g9
(g13
S'\xb0\xff\xff\xff'
p660
tp661
Rp662
sg39
I1
sg40
I0
sg41
I0
sg42
I1
sg43
F1.0
sa(dp663
g4
F1.9334160084727046
sg5
F569.3686176574138
sg6
I2
sg7
F-3.2421187500000004
sg8
g9
(g13
S'7\x00\x00\x00'
p664
tp665
Rp666
sg19
S'l'
p667
sg21
g63
sg23
F-35.8375
sg24
g78
sg25
I3
sg26
g9
(g13
S'\x87\x00\x00\x00'
p668
tp669
Rp670
sg30
F575.7074295016264
sg31
g9
(g13
S'K\x00\x00\x00'
p671
tp672
Rp673
sg35
g9
(g13
S'\xb0\xff\xff\xff'
p674
tp675
Rp676
sg39
I0
sg40
I0
sg41
I0
sg42
I1
sg43
F-1.0
sa(dp677
g4
F2.16667023025002
sg5
F575.9967956256296
sg6
I2
sg7
F3.28398125
sg8
g9
(g13
S'7\x00\x00\x00'
p678
tp679
Rp680
sg19
S'l'
p681
sg21
g78
sg23
F10.4125
sg24
g107
sg25
I0
sg26
g9
(g13
S'-\x00\x00\x00'
p682
tp683
Rp684
sg30
F582.3404040533624
sg31
g9
(g13
S'K\x00\x00\x00'
p685
tp686
Rp687
sg35
g9
(g13
S'P\x00\x00\x00'
p688
tp689
Rp690
sg39
I1
sg40
I0
sg41
I0
sg42
I1
sg43
F1.0
sa(dp691
g4
F1.3333461622351024
sg5
F582.6262829970019
sg6
I2
sg7
F3.28398125
sg8
g9
(g13
S'7\x00\x00\x00'
p692
tp693
Rp694
sg19
S'l'
p695
sg21
g107
sg23
F-35.8375
sg24
g63
sg25
I2
sg26
g9
(g13
S'-\x00\x00\x00'
p696
tp697
Rp698
sg30
F589.4650182954392
sg31
g9
(g13
S'K\x00\x00\x00'
p699
tp700
Rp701
sg35
g9
(g13
S'\xb0\xff\xff\xff'
p702
tp703
Rp704
sg39
I1
sg40
I0
sg41
I0
sg42
I1
sg43
F1.0
sa(dp705
g4
F1.616749698165222
sg5
F589.7489113252122
sg6
I1
sg7
F-3.28398125
sg8
g9
(g13
S'7\x00\x00\x00'
p706
tp707
Rp708
sg19
S'f'
p709
sg21
g107
sg23
F10.4125
sg24
g107
sg25
I0
sg26
g9
(g13
S'-\x00\x00\x00'
p710
tp711
Rp712
sg30
F596.5896105858392
sg31
g9
(g13
S'K\x00\x00\x00'
p713
tp714
Rp715
sg35
g9
(g13
S'P\x00\x00\x00'
p716
tp717
Rp718
sg39
I0
sg40
I0
sg41
I0
sg42
I1
sg43
F-1.0
sa(dp719
g4
F1.2584479025463224
sg5
F596.8750567678871
sg6
I1
sg7
F3.7641250000000004
sg8
g9
(g13
S'7\x00\x00\x00'
p720
tp721
Rp722
sg19
S's'
p723
sg21
g78
sg23
F-35.8375
sg24
g78
sg25
I3
sg26
g9
(g13
S'\x87\x00\x00\x00'
p724
tp725
Rp726
sg30
F603.7142419331158
sg31
g9
(g13
S'K\x00\x00\x00'
p727
tp728
Rp729
sg35
g9
(g13
S'\xb0\xff\xff\xff'
p730
tp731
Rp732
sg39
I1
sg40
I0
sg41
I0
sg42
I-1
sg43
F-1.0
sa(dp733
g4
F0.8417657699264964
sg5
F603.9989605739374
sg6
I2
sg7
F3.7641250000000004
sg8
g9
(g13
S'7\x00\x00\x00'
p734
tp735
Rp736
sg19
S's'
p737
sg21
g22
sg23
F21.25
sg24
g22
sg25
I1
sg26
g9
(g13
S'\x87\x00\x00\x00'
p738
tp739
Rp740
sg30
F610.838833368256
sg31
g9
(g13
S'K\x00\x00\x00'
p741
tp742
Rp743
sg35
g9
(g13
S'P\x00\x00\x00'
p744
tp745
Rp746
sg39
I0
sg40
I0
sg41
I0
sg42
I-1
sg43
F1.0
sa(dp747
g4
F1.7000697036946804
sg5
F611.1259775266171
sg6
I2
sg7
F3.7641250000000004
sg8
g9
(g13
S'7\x00\x00\x00'
p748
tp749
Rp750
sg19
S'l'
p751
sg21
g22
sg23
F21.25
sg24
g22
sg25
I1
sg26
g9
(g13
S'\x87\x00\x00\x00'
p752
tp753
Rp754
sg30
F617.471810485773
sg31
g9
(g13
S'K\x00\x00\x00'
p755
tp756
Rp757
sg35
g9
(g13
S'P\x00\x00\x00'
p758
tp759
Rp760
sg39
I1
sg40
I0
sg41
I0
sg42
I1
sg43
F1.0
sa(dp761
g4
F1.1666445724476944
sg5
F617.7623845220733
sg6
I1
sg7
F-3.28398125
sg8
g9
(g13
S'7\x00\x00\x00'
p762
tp763
Rp764
sg19
S's'
p765
sg21
g22
sg23
F-35.8375
sg24
g63
sg25
I2
sg26
g9
(g13
S'-\x00\x00\x00'
p766
tp767
Rp768
sg30
F624.104802997972
sg31
g9
(g13
S'K\x00\x00\x00'
p769
tp770
Rp771
sg35
g9
(g13
S'\xb0\xff\xff\xff'
p772
tp773
Rp774
sg39
I1
sg40
I0
sg41
I0
sg42
I-1
sg43
F-1.0
sa(dp775
g4
F1.7500850271044328
sg5
F624.3942922794249
sg6
I2
sg7
F-3.28398125
sg8
g9
(g13
S'7\x00\x00\x00'
p776
tp777
Rp778
sg19
S'l'
p779
sg21
g107
sg23
F21.25
sg24
g107
sg25
I0
sg26
g9
(g13
S'-\x00\x00\x00'
p780
tp781
Rp782
sg30
F630.7377630102874
sg31
g9
(g13
S'K\x00\x00\x00'
p783
tp784
Rp785
sg35
g9
(g13
S'P\x00\x00\x00'
p786
tp787
Rp788
sg39
I0
sg40
I0
sg41
I0
sg42
I1
sg43
F-1.0
sa(dp789
g4
F1.7917233632815623
sg5
F631.0276807770333
sg6
I2
sg7
F3.7641250000000004
sg8
g9
(g13
S'7\x00\x00\x00'
p790
tp791
Rp792
sg19
S'l'
p793
sg21
g63
sg23
F21.25
sg24
g22
sg25
I1
sg26
g9
(g13
S'\x87\x00\x00\x00'
p794
tp795
Rp796
sg30
F637.3707951495362
sg31
g9
(g13
S'K\x00\x00\x00'
p797
tp798
Rp799
sg35
g9
(g13
S'P\x00\x00\x00'
p800
tp801
Rp802
sg39
I1
sg40
I0
sg41
I0
sg42
I1
sg43
F1.0
sa(dp803
g4
F1.1001136070444772
sg5
F637.6576356905734
sg6
I1
sg7
F-3.7641250000000004
sg8
g9
(g13
S'7\x00\x00\x00'
p804
tp805
Rp806
sg19
S'j'
p807
sg21
g107
sg23
F21.25
sg24
g22
sg25
I1
sg26
g9
(g13
S'\x87\x00\x00\x00'
p808
tp809
Rp810
sg30
F644.5036475416273
sg31
g9
(g13
S'K\x00\x00\x00'
p811
tp812
Rp813
sg35
g9
(g13
S'P\x00\x00\x00'
p814
tp815
Rp816
sg39
I0
sg40
I0
sg41
I0
sg42
I-1
sg43
F1.0
sa(dp817
g4
F2.150029720287421
sg5
F644.8024380613533
sg6
I1
sg7
F-3.7641250000000004
sg8
g9
(g13
S'7\x00\x00\x00'
p818
tp819
Rp820
sg19
S's'
p821
sg21
g63
sg23
F21.25
sg24
g22
sg25
I1
sg26
g9
(g13
S'\x87\x00\x00\x00'
p822
tp823
Rp824
sg30
F651.6449527540099
sg31
g9
(g13
S'K\x00\x00\x00'
p825
tp826
Rp827
sg35
g9
(g13
S'P\x00\x00\x00'
p828
tp829
Rp830
sg39
I0
sg40
I0
sg41
I0
sg42
I-1
sg43
F1.0
sa(dp831
g4
F1.183442450263101
sg5
F651.9335203502014
sg6
I1
sg7
F-3.7641250000000004
sg8
g9
(g13
S'7\x00\x00\x00'
p832
tp833
Rp834
sg19
S's'
p835
sg21
g22
sg23
F32.0875
sg24
g22
sg25
I1
sg26
g9
(g13
S'\x87\x00\x00\x00'
p836
tp837
Rp838
sg30
F658.2779384241258
sg31
g9
(g13
S'K\x00\x00\x00'
p839
tp840
Rp841
sg35
g9
(g13
S'P\x00\x00\x00'
p842
tp843
Rp844
sg39
I1
sg40
I0
sg41
I0
sg42
I-1
sg43
F-1.0
sa(dp845
g4
F0.9917669815440604
sg5
F658.5660490263581
sg6
I2
sg7
F3.7641250000000004
sg8
g9
(g13
S'7\x00\x00\x00'
p846
tp847
Rp848
sg19
S'l'
p849
sg21
g78
sg23
F32.0875
sg24
g22
sg25
I1
sg26
g9
(g13
S'\x87\x00\x00\x00'
p850
tp851
Rp852
sg30
F664.9109084144766
sg31
g9
(g13
S'K\x00\x00\x00'
p853
tp854
Rp855
sg35
g9
(g13
S'P\x00\x00\x00'
p856
tp857
Rp858
sg39
I1
sg40
I0
sg41
I0
sg42
I1
sg43
F1.0
sa(dp859
g4
F0.7584374968810152
sg5
F665.1982775062334
sg6
I1
sg7
F-3.3204196875000003
sg8
g9
(g13
S'7\x00\x00\x00'
p860
tp861
Rp862
sg19
S's'
p863
sg21
g22
sg23
F32.0875
sg24
g22
sg25
I1
sg26
g9
(g13
S'\x87\x00\x00\x00'
p864
tp865
Rp866
sg30
F671.5438986459812
sg31
g9
(g13
S'K\x00\x00\x00'
p867
tp868
Rp869
sg35
g9
(g13
S'P\x00\x00\x00'
p870
tp871
Rp872
sg39
I1
sg40
I0
sg41
I0
sg42
I-1
sg43
F-1.0
sa(dp873
g4
F1.1167276039450371
sg5
F671.831298812187
sg6
I2
sg7
F3.8059875
sg8
g9
(g13
S'7\x00\x00\x00'
p874
tp875
Rp876
sg19
S'l'
p877
sg21
g63
sg23
F32.0875
sg24
g107
sg25
I0
sg26
g9
(g13
S'-\x00\x00\x00'
p878
tp879
Rp880
sg30
F678.1768398425756
sg31
g9
(g13
S'K\x00\x00\x00'
p881
tp882
Rp883
sg35
g9
(g13
S'P\x00\x00\x00'
p884
tp885
Rp886
sg39
I1
sg40
I0
sg41
I0
sg42
I1
sg43
F1.0
sa(dp887
g4
F0.8835135793924564
sg5
F678.4681385692365
sg6
I1
sg7
F3.3204196875000003
sg8
g9
(g13
S'7\x00\x00\x00'
p888
tp889
Rp890
sg19
S's'
p891
sg21
g107
sg23
F-26.625625
sg24
g78
sg25
I3
sg26
g9
(g13
S'\x87\x00\x00\x00'
p892
tp893
Rp894
sg30
F684.809821236393
sg31
g9
(g13
S'K\x00\x00\x00'
p895
tp896
Rp897
sg35
g9
(g13
S'\xb0\xff\xff\xff'
p898
tp899
Rp900
sg39
I1
sg40
I0
sg41
I0
sg42
I-1
sg43
F-1.0
sa(dp901
g4
F1.9000232345642871
sg5
F685.1015601368981
sg6
I1
sg7
F3.3204196875000003
sg8
g9
(g13
S'7\x00\x00\x00'
p902
tp903
Rp904
sg19
S'f'
p905
sg21
g22
sg23
F32.0875
sg24
g22
sg25
I1
sg26
g9
(g13
S'\x87\x00\x00\x00'
p906
tp907
Rp908
sg30
F691.9427674220042
sg31
g9
(g13
S'K\x00\x00\x00'
p909
tp910
Rp911
sg35
g9
(g13
S'P\x00\x00\x00'
p912
tp913
Rp914
sg39
I1
sg40
I0
sg41
I0
sg42
I1
sg43
F1.0
sa(dp915
g4
F1.6417714716590126
sg5
F692.2358989709792
sg6
I2
sg7
F3.8059875
sg8
g9
(g13
S'7\x00\x00\x00'
p916
tp917
Rp918
sg19
S'l'
p919
sg21
g22
sg23
F-26.625625
sg24
g63
sg25
I2
sg26
g9
(g13
S'-\x00\x00\x00'
p920
tp921
Rp922
sg30
F699.0757575109656
sg31
g9
(g13
S'K\x00\x00\x00'
p923
tp924
Rp925
sg35
g9
(g13
S'\xb0\xff\xff\xff'
p926
tp927
Rp928
sg39
I1
sg40
I0
sg41
I0
sg42
I1
sg43
F1.0
sa(dp929
g4
F1.141777315937361
sg5
F699.3685067586921
sg6
I1
sg7
F3.8059875
sg8
g9
(g13
S'7\x00\x00\x00'
p930
tp931
Rp932
sg19
S'f'
p933
sg21
g63
sg23
F-26.625625
sg24
g63
sg25
I2
sg26
g9
(g13
S'-\x00\x00\x00'
p934
tp935
Rp936
sg30
F706.2086643546136
sg31
g9
(g13
S'K\x00\x00\x00'
p937
tp938
Rp939
sg35
g9
(g13
S'\xb0\xff\xff\xff'
p940
tp941
Rp942
sg39
I1
sg40
I0
sg41
I0
sg42
I1
sg43
F1.0
sa(dp943
g4
F1.2667761399552546
sg5
F706.4994858461596
sg6
I2
sg7
F-3.3204196875000003
sg8
g9
(g13
S'7\x00\x00\x00'
p944
tp945
Rp946
sg19
S'j'
p947
sg21
g107
sg23
F-26.625625
sg24
g78
sg25
I3
sg26
g9
(g13
S'\x87\x00\x00\x00'
p948
tp949
Rp950
sg30
F712.8416389063514
sg31
g9
(g13
S'K\x00\x00\x00'
p951
tp952
Rp953
sg35
g9
(g13
S'\xb0\xff\xff\xff'
p954
tp955
Rp956
sg39
I1
sg40
I0
sg41
I0
sg42
I-1
sg43
F-1.0
sa(dp957
g4
F1.5417191582528176
sg5
F713.1390401986482
sg6
I1
sg7
F-3.8059875
sg8
g9
(g13
S'7\x00\x00\x00'
p958
tp959
Rp960
sg19
S'f'
p961
sg21
g107
sg23
F22.875625
sg24
g107
sg25
I0
sg26
g9
(g13
S'-\x00\x00\x00'
p962
tp963
Rp964
sg30
F719.9829364213929
sg31
g9
(g13
S'K\x00\x00\x00'
p965
tp966
Rp967
sg35
g9
(g13
S'P\x00\x00\x00'
p968
tp969
Rp970
sg39
I1
sg40
I0
sg41
I0
sg42
I1
sg43
F1.0
sa(dp971
g4
F1.6667447804193216
sg5
F720.2760306240125
sg6
I2
sg7
F-3.8059875
sg8
g9
(g13
S'7\x00\x00\x00'
p972
tp973
Rp974
sg19
S'j'
p975
sg21
g107
sg23
F22.875625
sg24
g107
sg25
I0
sg26
g9
(g13
S'-\x00\x00\x00'
p976
tp977
Rp978
sg30
F727.1158692079298
sg31
g9
(g13
S'K\x00\x00\x00'
p979
tp980
Rp981
sg35
g9
(g13
S'P\x00\x00\x00'
p982
tp983
Rp984
sg39
I1
sg40
I0
sg41
I0
sg42
I-1
sg43
F-1.0
sa(dp985
g4
F1.6500680644476233
sg5
F727.4065019720874
sg6
I1
sg7
F3.3622821875
sg8
g9
(g13
S'7\x00\x00\x00'
p986
tp987
Rp988
sg19
S'f'
p989
sg21
g78
sg23
F22.875625
sg24
g107
sg25
I0
sg26
g9
(g13
S'-\x00\x00\x00'
p990
tp991
Rp992
sg30
F734.2488638582781
sg31
g9
(g13
S'K\x00\x00\x00'
p993
tp994
Rp995
sg35
g9
(g13
S'P\x00\x00\x00'
p996
tp997
Rp998
sg39
I1
sg40
I0
sg41
I0
sg42
I1
sg43
F1.0
sa(dp999
g4
F1.8500817486074084
sg5
F734.5412997957355
sg6
I1
sg7
F3.3622821875
sg8
g9
(g13
S'7\x00\x00\x00'
p1000
tp1001
Rp1002
sg19
S'f'
p1003
sg21
g63
sg23
F-26.625625
sg24
g63
sg25
I2
sg26
g9
(g13
S'-\x00\x00\x00'
p1004
tp1005
Rp1006
sg30
F741.3817553072458
sg31
g9
(g13
S'K\x00\x00\x00'
p1007
tp1008
Rp1009
sg35
g9
(g13
S'\xb0\xff\xff\xff'
p1010
tp1011
Rp1012
sg39
I1
sg40
I0
sg41
I0
sg42
I1
sg43
F1.0
sa(dp1013
g4
F1.3417399695808854
sg5
F741.6767327925245
sg6
I1
sg7
F-3.3622821875
sg8
g9
(g13
S'7\x00\x00\x00'
p1014
tp1015
Rp1016
sg19
S's'
p1017
sg21
g22
sg23
F22.875625
sg24
g107
sg25
I0
sg26
g9
(g13
S'-\x00\x00\x00'
p1018
tp1019
Rp1020
sg30
F748.523031725872
sg31
g9
(g13
S'K\x00\x00\x00'
p1021
tp1022
Rp1023
sg35
g9
(g13
S'P\x00\x00\x00'
p1024
tp1025
Rp1026
sg39
I1
sg40
I0
sg41
I0
sg42
I-1
sg43
F-1.0
sa(dp1027
g4
F1.5417522283096332
sg5
F748.8165512778305
sg6
I1
sg7
F3.3204196875000003
sg8
g9
(g13
S'7\x00\x00\x00'
p1028
tp1029
Rp1030
sg19
S'f'
p1031
sg21
g78
sg23
F-17.41375
sg24
g78
sg25
I3
sg26
g9
(g13
S'\x87\x00\x00\x00'
p1032
tp1033
Rp1034
sg30
F755.1560293696311
sg31
g9
(g13
S'K\x00\x00\x00'
p1035
tp1036
Rp1037
sg35
g9
(g13
S'\xb0\xff\xff\xff'
p1038
tp1039
Rp1040
sg39
I0
sg40
I0
sg41
I0
sg42
I1
sg43
F-1.0
sa(dp1041
g4
F1.4750804300801974
sg5
F755.4547982227705
sg6
I1
sg7
F3.3622821875
sg8
g9
(g13
S'7\x00\x00\x00'
p1042
tp1043
Rp1044
sg19
S's'
p1045
sg21
g107
sg23
F13.663749999999999
sg24
g107
sg25
I0
sg26
g9
(g13
S'-\x00\x00\x00'
p1046
tp1047
Rp1048
sg30
F762.297340283747
sg31
g9
(g13
S'K\x00\x00\x00'
p1049
tp1050
Rp1051
sg35
g9
(g13
S'P\x00\x00\x00'
p1052
tp1053
Rp1054
sg39
I1
sg40
I0
sg41
I0
sg42
I-1
sg43
F-1.0
sa(dp1055
g4
F1.82515718967079
sg5
F762.595137561455
sg6
I2
sg7
F-3.3622821875
sg8
g9
(g13
S'7\x00\x00\x00'
p1056
tp1057
Rp1058
sg19
S'l'
p1059
sg21
g22
sg23
F13.663749999999999
sg24
g107
sg25
I0
sg26
g9
(g13
S'-\x00\x00\x00'
p1060
tp1061
Rp1062
sg30
F769.4385904743995
sg31
g9
(g13
S'K\x00\x00\x00'
p1063
tp1064
Rp1065
sg35
g9
(g13
S'P\x00\x00\x00'
p1066
tp1067
Rp1068
sg39
I0
sg40
I0
sg41
I0
sg42
I1
sg43
F-1.0
sa(dp1069
g4
F1.7834287661025883
sg5
F769.7351786994641
sg6
I1
sg7
F-3.8059874999999996
sg8
g9
(g13
S'7\x00\x00\x00'
p1070
tp1071
Rp1072
sg19
S'f'
p1073
sg21
g107
sg23
F13.663749999999999
sg24
g107
sg25
I0
sg26
g9
(g13
S'-\x00\x00\x00'
p1074
tp1075
Rp1076
sg30
F776.5798674631988
sg31
g9
(g13
S'K\x00\x00\x00'
p1077
tp1078
Rp1079
sg35
g9
(g13
S'P\x00\x00\x00'
p1080
tp1081
Rp1082
sg39
I0
sg40
I0
sg41
I0
sg42
I1
sg43
F-1.0
sa(dp1083
g4
F0.8084465483843815
sg5
F776.8765842623598
sg6
I1
sg7
F3.3204196875000003
sg8
g9
(g13
S'7\x00\x00\x00'
p1084
tp1085
Rp1086
sg19
S's'
p1087
sg21
g22
sg23
F-26.625625
sg24
g78
sg25
I3
sg26
g9
(g13
S'\x87\x00\x00\x00'
p1088
tp1089
Rp1090
sg30
F783.2212395284096
sg31
g9
(g13
S'K\x00\x00\x00'
p1091
tp1092
Rp1093
sg35
g9
(g13
S'\xb0\xff\xff\xff'
p1094
tp1095
Rp1096
sg39
I1
sg40
I0
sg41
I0
sg42
I-1
sg43
F-1.0
sa(dp1097
g4
F0.9668059315135906
sg5
F783.5226978893606
sg6
I1
sg7
F-3.8059874999999996
sg8
g9
(g13
S'7\x00\x00\x00'
p1098
tp1099
Rp1100
sg19
S'f'
p1101
sg21
g63
sg23
F-26.625625
sg24
g63
sg25
I2
sg26
g9
(g13
S'-\x00\x00\x00'
p1102
tp1103
Rp1104
sg30
F790.3624751796397
sg31
g9
(g13
S'K\x00\x00\x00'
p1105
tp1106
Rp1107
sg35
g9
(g13
S'\xb0\xff\xff\xff'
p1108
tp1109
Rp1110
sg39
I1
sg40
I0
sg41
I0
sg42
I1
sg43
F1.0
sa(dp1111
g4
F0.8835318249384727
sg5
F790.6570469865619
sg6
I2
sg7
F3.3204196875000003
sg8
g9
(g13
S'7\x00\x00\x00'
p1112
tp1113
Rp1114
sg19
S'l'
p1115
sg21
g22
sg23
F22.875625
sg24
g22
sg25
I1
sg26
g9
(g13
S'\x87\x00\x00\x00'
p1116
tp1117
Rp1118
sg30
F797.503753308787
sg31
g9
(g13
S'K\x00\x00\x00'
p1119
tp1120
Rp1121
sg35
g9
(g13
S'P\x00\x00\x00'
p1122
tp1123
Rp1124
sg39
I1
sg40
I0
sg41
I0
sg42
I1
sg43
F1.0
sa(dp1125
g4
F1.1500448298811534
sg5
F797.798677482855
sg6
I1
sg7
F3.8059874999999996
sg8
g9
(g13
S'7\x00\x00\x00'
p1126
tp1127
Rp1128
sg19
S'f'
p1129
sg21
g63
sg23
F22.875625
sg24
g107
sg25
I0
sg26
g9
(g13
S'-\x00\x00\x00'
p1130
tp1131
Rp1132
sg30
F804.1450418435998
sg31
g9
(g13
S'K\x00\x00\x00'
p1133
tp1134
Rp1135
sg35
g9
(g13
S'P\x00\x00\x00'
p1136
tp1137
Rp1138
sg39
I1
sg40
I0
sg41
I0
sg42
I1
sg43
F1.0
sa(dp1139
g4
F2.0167271763166355
sg5
F804.4414849595396
sg6
I1
sg7
F3.3204196875000003
sg8
g9
(g13
S'7\x00\x00\x00'
p1140
tp1141
Rp1142
sg19
S'f'
p1143
sg21
g22
sg23
F22.875625
sg24
g22
sg25
I1
sg26
g9
(g13
S'\x87\x00\x00\x00'
p1144
tp1145
Rp1146
sg30
F811.2863464858074
sg31
g9
(g13
S'K\x00\x00\x00'
p1147
tp1148
Rp1149
sg35
g9
(g13
S'P\x00\x00\x00'
p1150
tp1151
Rp1152
sg39
I1
sg40
I0
sg41
I0
sg42
I1
sg43
F1.0
sa(dp1153
g4
F1.1917983410803572
sg5
F811.5902406274199
sg6
I2
sg7
F3.8059874999999996
sg8
g9
(g13
S'7\x00\x00\x00'
p1154
tp1155
Rp1156
sg19
S'l'
p1157
sg21
g63
sg23
F-26.625625
sg24
g63
sg25
I2
sg26
g9
(g13
S'-\x00\x00\x00'
p1158
tp1159
Rp1160
sg30
F818.4359445848495
sg31
g9
(g13
S'K\x00\x00\x00'
p1161
tp1162
Rp1163
sg35
g9
(g13
S'\xb0\xff\xff\xff'
p1164
tp1165
Rp1166
sg39
I1
sg40
I0
sg41
I0
sg42
I1
sg43
F1.0
sa(dp1167
g4
F2.20006842080511
sg5
F818.735655934579
sg6
I1
sg7
F3.8059874999999996
sg8
g9
(g13
S'7\x00\x00\x00'
p1168
tp1169
Rp1170
sg19
S's'
p1171
sg21
g107
sg23
F-26.625625
sg24
g63
sg25
I2
sg26
g9
(g13
S'-\x00\x00\x00'
p1172
tp1173
Rp1174
sg30
F825.5772677576933
sg31
g9
(g13
S'K\x00\x00\x00'
p1175
tp1176
Rp1177
sg35
g9
(g13
S'\xb0\xff\xff\xff'
p1178
tp1179
Rp1180
sg39
I1
sg40
I0
sg41
I0
sg42
I-1
sg43
F-1.0
sa(dp1181
g4
F2.3917036923012347
sg5
F825.8764787802847
sg6
I1
sg7
F-3.3204196875000003
sg8
g9
(g13
S'7\x00\x00\x00'
p1182
tp1183
Rp1184
sg19
S's'
p1185
sg21
g22
sg23
F22.875625
sg24
g22
sg25
I1
sg26
g9
(g13
S'\x87\x00\x00\x00'
p1186
tp1187
Rp1188
sg30
F832.2185300645306
sg31
g9
(g13
S'K\x00\x00\x00'
p1189
tp1190
Rp1191
sg35
g9
(g13
S'P\x00\x00\x00'
p1192
tp1193
Rp1194
sg39
I1
sg40
I0
sg41
I0
sg42
I-1
sg43
F-1.0
sa(dp1195
g4
F1.8500988538089587
sg5
F832.5181499014325
sg6
I2
sg7
F-3.8059874999999996
sg8
g9
(g13
S'7\x00\x00\x00'
p1196
tp1197
Rp1198
sg19
S'l'
p1199
sg21
g107
sg23
F15.04553125
sg24
g107
sg25
I0
sg26
g9
(g13
S'-\x00\x00\x00'
p1200
tp1201
Rp1202
sg30
F839.3598270093989
sg31
g9
(g13
S'K\x00\x00\x00'
p1203
tp1204
Rp1205
sg35
g9
(g13
S'P\x00\x00\x00'
p1206
tp1207
Rp1208
sg39
I0
sg40
I0
sg41
I0
sg42
I1
sg43
F-1.0
sa(dp1209
g4
F2.041727283223736
sg5
F839.6613098878042
sg6
I2
sg7
F-3.3204196875000003
sg8
g9
(g13
S'7\x00\x00\x00'
p1210
tp1211
Rp1212
sg19
S'j'
p1213
sg21
g22
sg23
F-18.79553125
sg24
g78
sg25
I3
sg26
g9
(g13
S'\x87\x00\x00\x00'
p1214
tp1215
Rp1216
sg30
F846.0012062017759
sg31
g9
(g13
S'K\x00\x00\x00'
p1217
tp1218
Rp1219
sg35
g9
(g13
S'\xb0\xff\xff\xff'
p1220
tp1221
Rp1222
sg39
I1
sg40
I0
sg41
I0
sg42
I-1
sg43
F-1.0
sa(dp1223
g4
F1.383393985526709
sg5
F846.2973861827031
sg6
I1
sg7
F4.183137015624999
sg8
g9
(g13
S'7\x00\x00\x00'
p1224
tp1225
Rp1226
sg19
S'f'
p1227
sg21
g78
sg23
F-18.79553125
sg24
g63
sg25
I2
sg26
g9
(g13
S'-\x00\x00\x00'
p1228
tp1229
Rp1230
sg30
F853.1424104934704
sg31
g9
(g13
S'K\x00\x00\x00'
p1231
tp1232
Rp1233
sg35
g9
(g13
S'\xb0\xff\xff\xff'
p1234
tp1235
Rp1236
sg39
I1
sg40
I0
sg41
I0
sg42
I1
sg43
F1.0
sa(dp1237
g4
F2.649991091040647
sg5
F853.4484453510213
sg6
I1
sg7
F4.183137015624999
sg8
g9
(g13
S'7\x00\x00\x00'
p1238
tp1239
Rp1240
sg19
S'f'
p1241
sg21
g63
sg23
F-18.79553125
sg24
g63
sg25
I2
sg26
g9
(g13
S'-\x00\x00\x00'
p1242
tp1243
Rp1244
sg30
F860.2920353906611
sg31
g9
(g13
S'K\x00\x00\x00'
p1245
tp1246
Rp1247
sg35
g9
(g13
S'\xb0\xff\xff\xff'
p1248
tp1249
Rp1250
sg39
I1
sg40
I0
sg41
I0
sg42
I1
sg43
F1.0
sa(dp1251
g4
F1.408396088041627
sg5
F860.5908729496932
sg6
I2
sg7
F2.8767143750000006
sg8
g9
(g13
S'7\x00\x00\x00'
p1252
tp1253
Rp1254
sg19
S'l'
p1255
sg21
g107
sg23
F-18.79553125
sg24
g78
sg25
I3
sg26
g9
(g13
S'\x87\x00\x00\x00'
p1256
tp1257
Rp1258
sg30
F867.4333152303298
sg31
g9
(g13
S'K\x00\x00\x00'
p1259
tp1260
Rp1261
sg35
g9
(g13
S'\xb0\xff\xff\xff'
p1262
tp1263
Rp1264
sg39
I1
sg40
I0
sg41
I0
sg42
I1
sg43
F1.0
sa(dp1265
g4
F1.8751038071914081
sg5
F867.7302951645033
sg6
I2
sg7
F-2.8767143750000006
sg8
g9
(g13
S'7\x00\x00\x00'
p1266
tp1267
Rp1268
sg19
S'l'
p1269
sg21
g78
sg23
F-18.79553125
sg24
g78
sg25
I3
sg26
g9
(g13
S'\x87\x00\x00\x00'
p1270
tp1271
Rp1272
sg30
F874.5745876577421
sg31
g9
(g13
S'K\x00\x00\x00'
p1273
tp1274
Rp1275
sg35
g9
(g13
S'\xb0\xff\xff\xff'
p1276
tp1277
Rp1278
sg39
I0
sg40
I0
sg41
I0
sg42
I1
sg43
F-1.0
sa(dp1279
g4
F1.5250535606610356
sg5
F874.87604544852
sg6
I2
sg7
F-3.3204196875000003
sg8
g9
(g13
S'7\x00\x00\x00'
p1280
tp1281
Rp1282
sg19
S'l'
p1283
sg21
g22
sg23
F15.04553125
sg24
g22
sg25
I1
sg26
g9
(g13
S'\x87\x00\x00\x00'
p1284
tp1285
Rp1286
sg30
F881.715833001921
sg31
g9
(g13
S'K\x00\x00\x00'
p1287
tp1288
Rp1289
sg35
g9
(g13
S'P\x00\x00\x00'
p1290
tp1291
Rp1292
sg39
I0
sg40
I0
sg41
I0
sg42
I1
sg43
F-1.0
sa(dp1293
g4
F1.8500475382043078
sg5
F882.0149804501798
sg6
I2
sg7
F-3.764125
sg8
g9
(g13
S'7\x00\x00\x00'
p1294
tp1295
Rp1296
sg19
S'l'
p1297
sg21
g78
sg23
F-18.79553125
sg24
g78
sg25
I3
sg26
g9
(g13
S'\x87\x00\x00\x00'
p1298
tp1299
Rp1300
sg30
F888.3571757032023
sg31
g9
(g13
S'K\x00\x00\x00'
p1301
tp1302
Rp1303
sg35
g9
(g13
S'\xb0\xff\xff\xff'
p1304
tp1305
Rp1306
sg39
I0
sg40
I0
sg41
I0
sg42
I1
sg43
F-1.0
sa(dp1307
g4
F0.8167571104186209
sg5
F888.671640003935
sg6
I1
sg7
F4.2078303125
sg8
g9
(g13
S'7\x00\x00\x00'
p1308
tp1309
Rp1310
sg19
S's'
p1311
sg21
g78
sg23
F-18.79553125
sg24
g78
sg25
I3
sg26
g9
(g13
S'\x87\x00\x00\x00'
p1312
tp1313
Rp1314
sg30
F895.015158914448
sg31
g9
(g13
S'K\x00\x00\x00'
p1315
tp1316
Rp1317
sg35
g9
(g13
S'\xb0\xff\xff\xff'
p1318
tp1319
Rp1320
sg39
I0
sg40
I0
sg41
I0
sg42
I-1
sg43
F1.0
sa(dp1321
g4
F1.491708396231843
sg5
F895.3164348199189
sg6
I2
sg7
F-4.2078303125
sg8
g9
(g13
S'7\x00\x00\x00'
p1322
tp1323
Rp1324
sg19
S'j'
p1325
sg21
g78
sg23
F-26.625625
sg24
g78
sg25
I3
sg26
g9
(g13
S'\x87\x00\x00\x00'
p1326
tp1327
Rp1328
sg30
F902.1564273506465
sg31
g9
(g13
S'K\x00\x00\x00'
p1329
tp1330
Rp1331
sg35
g9
(g13
S'\xb0\xff\xff\xff'
p1332
tp1333
Rp1334
sg39
I1
sg40
I0
sg41
I0
sg42
I-1
sg43
F-1.0
sa(dp1335
g4
F1.3667178397263342
sg5
F902.4575709758956
sg6
I2
sg7
F4.183137015624999
sg8
g9
(g13
S'7\x00\x00\x00'
p1336
tp1337
Rp1338
sg19
S'l'
p1339
sg21
g107
sg23
F15.04553125
sg24
g107
sg25
I0
sg26
g9
(g13
S'-\x00\x00\x00'
p1340
tp1341
Rp1342
sg30
F908.7977443941272
sg31
g9
(g13
S'K\x00\x00\x00'
p1343
tp1344
Rp1345
sg35
g9
(g13
S'P\x00\x00\x00'
p1346
tp1347
Rp1348
sg39
I1
sg40
I0
sg41
I0
sg42
I1
sg43
F1.0
sa(dp1349
g4
F1.6250508523389726
sg5
F909.1008451394864
sg6
I2
sg7
F4.183137015624999
sg8
g9
(g13
S'7\x00\x00\x00'
p1350
tp1351
Rp1352
sg19
S'l'
p1353
sg21
g78
sg23
F-26.625625
sg24
g63
sg25
I2
sg26
g9
(g13
S'-\x00\x00\x00'
p1354
tp1355
Rp1356
sg30
F915.4473449164052
sg31
g9
(g13
S'K\x00\x00\x00'
p1357
tp1358
Rp1359
sg35
g9
(g13
S'\xb0\xff\xff\xff'
p1360
tp1361
Rp1362
sg39
I1
sg40
I0
sg41
I0
sg42
I1
sg43
F1.0
sa(dp1363
g4
F1.2750844212951051
sg5
F915.7451755492548
sg6
I1
sg7
F-4.183137015624999
sg8
g9
(g13
S'7\x00\x00\x00'
p1364
tp1365
Rp1366
sg19
S'f'
p1367
sg21
g63
sg23
F-26.625625
sg24
g63
sg25
I2
sg26
g9
(g13
S'-\x00\x00\x00'
p1368
tp1369
Rp1370
sg30
F922.588641576187
sg31
g9
(g13
S'K\x00\x00\x00'
p1371
tp1372
Rp1373
sg35
g9
(g13
S'\xb0\xff\xff\xff'
p1374
tp1375
Rp1376
sg39
I1
sg40
I0
sg41
I0
sg42
I1
sg43
F1.0
sa(dp1377
g4
F2.483378163215093
sg5
F922.8905076111023
sg6
I2
sg7
F-4.183137015624999
sg8
g9
(g13
S'7\x00\x00\x00'
p1378
tp1379
Rp1380
sg19
S'j'
p1381
sg21
g107
sg23
F15.04553125
sg24
g107
sg25
I0
sg26
g9
(g13
S'-\x00\x00\x00'
p1382
tp1383
Rp1384
sg30
F929.7299308237161
sg31
g9
(g13
S'K\x00\x00\x00'
p1385
tp1386
Rp1387
sg35
g9
(g13
S'P\x00\x00\x00'
p1388
tp1389
Rp1390
sg39
I1
sg40
I0
sg41
I0
sg42
I-1
sg43
F-1.0
sa(dp1391
g4
F1.5916526617838826
sg5
F930.0296726777196
sg6
I2
sg7
F-4.2078303125
sg8
g9
(g13
S'7\x00\x00\x00'
p1392
tp1393
Rp1394
sg19
S'j'
p1395
sg21
g22
sg23
F15.04553125
sg24
g22
sg25
I1
sg26
g9
(g13
S'\x87\x00\x00\x00'
p1396
tp1397
Rp1398
sg30
F936.8712522860387
sg31
g9
(g13
S'K\x00\x00\x00'
p1399
tp1400
Rp1401
sg35
g9
(g13
S'P\x00\x00\x00'
p1402
tp1403
Rp1404
sg39
I1
sg40
I0
sg41
I0
sg42
I-1
sg43
F-1.0
sa(dp1405
g4
F0.6917215102184855
sg5
F937.1736029683234
sg6
I1
sg7
F3.8625599273437494
sg8
g9
(g13
S'7\x00\x00\x00'
p1406
tp1407
Rp1408
sg19
S'f'
p1409
sg21
g63
sg23
F-26.625625
sg24
g63
sg25
I2
sg26
g9
(g13
S'-\x00\x00\x00'
p1410
tp1411
Rp1412
sg30
F944.0124494505671
sg31
g9
(g13
S'K\x00\x00\x00'
p1413
tp1414
Rp1415
sg35
g9
(g13
S'\xb0\xff\xff\xff'
p1416
tp1417
Rp1418
sg39
I1
sg40
I0
sg41
I0
sg42
I1
sg43
F1.0
sa(dp1419
g4
F1.391739898310334
sg5
F944.3143149153075
sg6
I1
sg7
F4.2078303125
sg8
g9
(g13
S'7\x00\x00\x00'
p1420
tp1421
Rp1422
sg19
S'f'
p1423
sg21
g78
sg23
F-26.625625
sg24
g78
sg25
I3
sg26
g9
(g13
S'\x87\x00\x00\x00'
p1424
tp1425
Rp1426
sg30
F950.6538069763574
sg31
g9
(g13
S'K\x00\x00\x00'
p1427
tp1428
Rp1429
sg35
g9
(g13
S'\xb0\xff\xff\xff'
p1430
tp1431
Rp1432
sg39
I1
sg40
I0
sg41
I0
sg42
I1
sg43
F1.0
sasS'eventArray'
p1433
(lp1434
(lp1435
S'trial 0 started at 262.005532962'
p1436
aS'trial 0 phase 6 started at 265.199020442'
p1437
aS'trial 0 event f at 266.290760768'
p1438
aS'staircase 0 updated from 34.000000 to 34.000000 after response 1 at 266.290775'
p1439
aa(lp1440
S'trial 1 started at 268.607498065'
p1441
aS'trial 1 phase 6 started at 271.798671496'
p1442
aS'trial 1 event j at 273.823673313'
p1443
aS'staircase 3 updated from 2.427500 to 3.150000 after response 0 at 273.823689'
p1444
aa(lp1445
S'trial 2 started at 275.20406049'
p1446
aS'trial 2 phase 6 started at 278.898257123'
p1447
aS'trial 2 event f at 281.273296643'
p1448
aS'staircase 1 updated from 25.000000 to 25.000000 after response 1 at 281.273327'
p1449
aa(lp1450
S'trial 3 started at 282.305537381'
p1451
aS'trial 3 phase 6 started at 285.997882091'
p1452
aS'trial 3 event s at 287.256281529'
p1453
aS'staircase 1 updated from 25.000000 to 25.000000 after response 1 at 287.256295'
p1454
aa(lp1455
S'trial 4 started at 289.403953582'
p1456
aS'trial 4 phase 6 started at 292.597528298'
p1457
aS'trial 4 event s at 293.780936538'
p1458
aS'staircase 1 updated from 25.000000 to 12.250000 after response 1 at 293.780953'
p1459
aa(lp1460
S'trial 5 started at 296.005587984'
p1461
aS'trial 5 phase 6 started at 299.69714842'
p1462
aS'trial 5 event l at 301.155543582'
p1463
aS'staircase 2 updated from 4.850000 to 4.850000 after response 1 at 301.155558'
p1464
aa(lp1465
S'trial 6 started at 303.103858221'
p1466
aS'trial 6 phase 6 started at 306.796740889'
p1467
aS'trial 6 event f at 309.146831903'
p1468
aS'staircase 0 updated from 34.000000 to 21.250000 after response 1 at 309.146847'
p1469
aa(lp1470
S'trial 7 started at 310.206555283'
p1471
aS'trial 7 phase 6 started at 313.396402206'
p1472
aS'trial 7 event s at 314.971517559'
p1473
aS'staircase 0 updated from 21.250000 to 21.250000 after response 1 at 314.971531'
p1474
aa(lp1475
S'trial 8 started at 316.802299794'
p1476
aS'trial 8 phase 6 started at 320.496000946'
p1477
aS'trial 8 event j at 321.804445072'
p1478
aS'staircase 3 updated from 3.150000 to 3.150000 after response 1 at 321.804459'
p1479
aa(lp1480
S'trial 9 started at 323.902774036'
p1481
aS'trial 9 phase 6 started at 327.595629621'
p1482
aS'trial 9 event s at 329.404033692'
p1483
aS'staircase 0 updated from 21.250000 to 21.250000 after response 1 at 329.404048'
p1484
aa(lp1485
S'trial 10 started at 331.004023143'
p1486
aS'trial 10 phase 6 started at 334.69524005'
p1487
aS'trial 10 event s at 335.736990425'
p1488
aS'staircase 1 updated from 12.250000 to 12.250000 after response 1 at 335.737004'
p1489
aa(lp1490
S'trial 11 started at 338.105555342'
p1491
aS'trial 11 phase 6 started at 341.294884262'
p1492
aS'trial 11 event s at 343.269932335'
p1493
aS'staircase 1 updated from 12.250000 to 12.250000 after response 1 at 343.269946'
p1494
aa(lp1495
S'trial 12 started at 344.708267371'
p1496
aS'trial 12 phase 6 started at 347.902870395'
p1497
aS'trial 12 event f at 350.219528438'
p1498
aa(lp1499
S'trial 13 started at 351.315176732'
p1500
aS'trial 13 phase 6 started at 354.510835717'
p1501
aS'trial 13 event s at 355.494332904'
p1502
aS'staircase 1 updated from 12.250000 to 25.000000 after response 0 at 355.494349'
p1503
aa(lp1504
S'trial 14 started at 357.92021564'
p1505
aS'trial 14 phase 6 started at 361.110438877'
p1506
aS'trial 14 event s at 363.260516206'
p1507
aa(lp1508
S'trial 15 started at 364.520208227'
p1509
aS'trial 15 phase 6 started at 367.710113593'
p1510
aS'trial 15 event j at 369.201861616'
p1511
aS'staircase 2 updated from 4.850000 to 4.850000 after response 1 at 369.201875'
p1512
aa(lp1513
S'trial 16 started at 371.120831712'
p1514
aS'trial 16 phase 6 started at 374.309751533'
p1515
aS'trial 16 event j at 376.051409682'
p1516
aS'staircase 3 updated from 3.150000 to 3.764125 after response 0 at 376.051427'
p1517
aa(lp1518
S'trial 17 started at 377.735137647'
p1519
aS'trial 17 phase 6 started at 380.926030553'
p1520
aS'trial 17 event j at 382.542854659'
p1521
aS'staircase 2 updated from 4.850000 to 4.327994 after response 1 at 382.542871'
p1522
aa(lp1523
S'trial 18 started at 384.338808708'
p1524
aS'trial 18 phase 6 started at 387.534043769'
p1525
aS'trial 18 event f at 389.100855403'
p1526
aS'staircase 0 updated from 21.250000 to 8.500000 after response 1 at 389.100872'
p1527
aa(lp1528
S'trial 19 started at 390.947094753'
p1529
aS'trial 19 phase 6 started at 394.142011087'
p1530
aS'trial 19 event s at 395.267116533'
p1531
aS'staircase 0 updated from 8.500000 to 8.500000 after response 1 at 395.267129'
p1532
aa(lp1533
S'trial 20 started at 397.555917331'
p1534
aS'trial 20 phase 6 started at 400.749997791'
p1535
aS'trial 20 event f at 402.408407777'
p1536
aS'staircase 1 updated from 25.000000 to 25.000000 after response 1 at 402.408423'
p1537
aa(lp1538
S'trial 21 started at 404.165370805'
p1539
aS'trial 21 phase 6 started at 407.857930755'
p1540
aS'trial 21 event f at 409.899626679'
p1541
aS'staircase 0 updated from 8.500000 to 8.500000 after response 1 at 409.899641'
p1542
aa(lp1543
S'trial 22 started at 411.273890763'
p1544
aS'trial 22 phase 6 started at 414.965853457'
p1545
aS'trial 22 event s at 415.840987768'
p1546
aS'staircase 1 updated from 25.000000 to 25.000000 after response 1 at 415.841001'
p1547
aa(lp1548
S'trial 23 started at 418.380327878'
p1549
aS'trial 23 phase 6 started at 421.573865533'
p1550
aS'trial 23 event f at 423.798933491'
p1551
aS'staircase 0 updated from 8.500000 to 21.250000 after response 0 at 423.798952'
p1552
aa(lp1553
S'trial 24 started at 424.98775125'
p1554
aS'trial 24 phase 6 started at 428.18183114'
p1555
aS'trial 24 event l at 430.99008383'
p1556
aS'staircase 3 updated from 3.764125 to 3.764125 after response 1 at 430.990099'
p1557
aa(lp1558
S'trial 25 started at 431.598503295'
p1559
aS'trial 25 phase 6 started at 435.289770947'
p1560
aS'trial 25 event j at 436.539859823'
p1561
aS'staircase 2 updated from 4.327994 to 4.327994 after response 1 at 436.539874'
p1562
aa(lp1563
S'trial 26 started at 438.711374531'
p1564
aS'trial 26 phase 6 started at 441.906113256'
p1565
aS'trial 26 event j at 443.914507919'
p1566
aS'staircase 2 updated from 4.327994 to 4.327994 after response 1 at 443.914521'
p1567
aa(lp1568
S'trial 27 started at 445.319705905'
p1569
aS'trial 27 phase 6 started at 448.514038666'
p1570
aS'trial 27 event l at 449.655826816'
p1571
aS'staircase 2 updated from 4.327994 to 3.805988 after response 1 at 449.655843'
p1572
aa(lp1573
S'trial 28 started at 451.9278132'
p1574
aS'trial 28 phase 6 started at 455.622013254'
p1575
aS'trial 28 event l at 458.230437565'
p1576
aS'staircase 3 updated from 3.764125 to 3.764125 after response 1 at 458.230461'
p1577
aa(lp1578
S'trial 29 started at 459.038660891'
p1579
aS'trial 29 phase 6 started at 462.729967315'
p1580
aS'trial 29 event j at 464.096680308'
p1581
aS'staircase 2 updated from 3.805988 to 3.805988 after response 1 at 464.096695'
p1582
aa(lp1583
S'trial 30 started at 466.143966782'
p1584
aS'trial 30 phase 6 started at 469.337956299'
p1585
aS'trial 30 event l at 470.804661738'
p1586
aS'staircase 3 updated from 3.764125 to 3.242119 after response 1 at 470.804679'
p1587
aa(lp1588
S'trial 31 started at 472.758025547'
p1589
aS'trial 31 phase 6 started at 475.954246723'
p1590
aS'trial 31 event s at 476.787723312'
p1591
aS'staircase 0 updated from 21.250000 to 21.250000 after response 1 at 476.787738'
p1592
aa(lp1593
S'trial 32 started at 479.37349264'
p1594
aS'trial 32 phase 6 started at 483.062185389'
p1595
aS'trial 32 event j at 485.087217996'
p1596
aS'staircase 3 updated from 3.242119 to 3.242119 after response 1 at 485.087233'
p1597
aa(lp1598
S'trial 33 started at 486.506849635'
p1599
aS'trial 33 phase 6 started at 489.703495876'
p1600
aS'trial 33 event f at 491.378597687'
p1601
aS'staircase 1 updated from 25.000000 to 35.837500 after response 0 at 491.378615'
p1602
aa(lp1603
S'trial 34 started at 493.121354561'
p1604
aS'trial 34 phase 6 started at 496.811448511'
p1605
aS'trial 34 event l at 498.053203163'
p1606
aS'staircase 3 updated from 3.242119 to 3.242119 after response 1 at 498.053227'
p1607
aa(lp1608
S'trial 35 started at 500.226570649'
p1609
aS'trial 35 phase 6 started at 503.919403428'
p1610
aS'trial 35 event l at 506.161101917'
p1611
aS'staircase 3 updated from 3.242119 to 2.720113 after response 1 at 506.161119'
p1612
aa(lp1613
S'trial 36 started at 507.337840554'
p1614
aS'trial 36 phase 6 started at 510.527382149'
p1615
aS'trial 36 event s at 512.4524856'
p1616
aS'staircase 0 updated from 21.250000 to 21.250000 after response 1 at 512.452499'
p1617
aa(lp1618
S'trial 37 started at 513.94753065'
p1619
aS'trial 37 phase 6 started at 517.643645917'
p1620
aS'trial 37 event j at 519.085446182'
p1621
aS'staircase 3 updated from 2.720113 to 2.720113 after response 1 at 519.085460'
p1622
aa(lp1623
S'trial 38 started at 521.061740369'
p1624
aS'trial 38 phase 6 started at 524.251636611'
p1625
aS'trial 38 event f at 526.735058108'
p1626
aS'staircase 1 updated from 35.837500 to 35.837500 after response 1 at 526.735074'
p1627
aa(lp1628
S'trial 39 started at 527.671139107'
p1629
aS'trial 39 phase 6 started at 531.359613194'
p1630
aS'trial 39 event j at 532.634647155'
p1631
aS'staircase 3 updated from 2.720113 to 2.720113 after response 1 at 532.634660'
p1632
aa(lp1633
S'trial 40 started at 534.783742647'
p1634
aS'trial 40 phase 6 started at 538.475868695'
p1635
aS'trial 40 event s at 539.192643908'
p1636
aS'staircase 0 updated from 21.250000 to 10.412500 after response 1 at 539.192659'
p1637
aa(lp1638
S'trial 41 started at 541.894218299'
p1639
aS'trial 41 phase 6 started at 545.583815344'
p1640
aS'trial 41 event l at 547.65054815'
p1641
aS'staircase 3 updated from 2.720113 to 3.242119 after response 0 at 547.650565'
p1642
aa(lp1643
S'trial 42 started at 549.005551778'
p1644
aS'trial 42 phase 6 started at 552.200130855'
p1645
aS'trial 42 event j at 554.325153341'
p1646
aS'staircase 2 updated from 3.805988 to 3.805988 after response 1 at 554.325167'
p1647
aa(lp1648
S'trial 43 started at 555.621675141'
p1649
aS'trial 43 phase 6 started at 558.816431256'
p1650
aS'trial 43 event f at 561.583140543'
p1651
aa(lp1652
S'trial 44 started at 562.242682894'
p1653
aS'trial 44 phase 6 started at 565.932708138'
p1654
aS'trial 44 event l at 567.332765156'
p1655
aS'staircase 2 updated from 3.805988 to 3.283981 after response 1 at 567.332781'
p1656
aa(lp1657
S'trial 45 started at 569.368617657'
p1658
aS'trial 45 phase 6 started at 572.557349036'
p1659
aS'trial 45 event l at 574.490762764'
p1660
aS'staircase 3 updated from 3.242119 to 3.764125 after response 0 at 574.490779'
p1661
aa(lp1662
S'trial 46 started at 575.996795626'
p1663
aS'trial 46 phase 6 started at 579.190318456'
p1664
aS'trial 46 event l at 581.35698555'
p1665
aS'staircase 2 updated from 3.283981 to 3.283981 after response 1 at 581.357000'
p1666
aa(lp1667
S'trial 47 started at 582.626282997'
p1668
aS'trial 47 phase 6 started at 586.314934979'
p1669
aS'trial 47 event l at 587.648279145'
p1670
aS'staircase 2 updated from 3.283981 to 3.283981 after response 1 at 587.648293'
p1671
aa(lp1672
S'trial 48 started at 589.748911325'
p1673
aS'trial 48 phase 6 started at 593.439556063'
p1674
aS'trial 48 event f at 595.05630291'
p1675
aS'staircase 0 updated from 10.412500 to 21.250000 after response 0 at 595.056321'
p1676
aa(lp1677
S'trial 49 started at 596.875056768'
p1678
aS'trial 49 phase 6 started at 600.564144647'
p1679
aS'trial 49 event s at 601.822590269'
p1680
aS'staircase 1 updated from 35.837500 to 35.837500 after response 1 at 601.822603'
p1681
aa(lp1682
S'trial 50 started at 603.998960574'
p1683
aS'trial 50 phase 6 started at 607.688786543'
p1684
aS'trial 50 event s at 608.530550602'
p1685
aa(lp1686
S'trial 51 started at 611.125977527'
p1687
aS'trial 51 phase 6 started at 614.321727454'
p1688
aS'trial 51 event l at 616.021794877'
p1689
aS'staircase 3 updated from 3.764125 to 3.764125 after response 1 at 616.021811'
p1690
aa(lp1691
S'trial 52 started at 617.762384522'
p1692
aS'trial 52 phase 6 started at 620.954755032'
p1693
aS'trial 52 event s at 622.121397039'
p1694
aS'staircase 1 updated from 35.837500 to 26.625625 after response 1 at 622.121413'
p1695
aa(lp1696
S'trial 53 started at 624.394292279'
p1697
aS'trial 53 phase 6 started at 627.587716185'
p1698
aS'trial 53 event l at 629.337798646'
p1699
aS'staircase 2 updated from 3.283981 to 3.805988 after response 0 at 629.337817'
p1700
aa(lp1701
S'trial 54 started at 631.027680777'
p1702
aS'trial 54 phase 6 started at 634.220687601'
p1703
aS'trial 54 event l at 636.012408398'
p1704
aS'staircase 3 updated from 3.764125 to 3.764125 after response 1 at 636.012422'
p1705
aa(lp1706
S'trial 55 started at 637.657635691'
p1707
aS'trial 55 phase 6 started at 641.353627799'
p1708
aS'trial 55 event j at 642.453739411'
p1709
aa(lp1710
S'trial 56 started at 644.802438061'
p1711
aS'trial 56 phase 6 started at 648.494911915'
p1712
aS'trial 56 event s at 650.644939355'
p1713
aS'staircase 0 updated from 21.250000 to 32.087500 after response 0 at 650.644956'
p1714
aa(lp1715
S'trial 57 started at 651.93352035'
p1716
aS'trial 57 phase 6 started at 655.12788105'
p1717
aS'trial 57 event s at 656.31132236'
p1718
aS'staircase 0 updated from 32.087500 to 32.087500 after response 1 at 656.311337'
p1719
aa(lp1720
S'trial 58 started at 658.566049026'
p1721
aS'trial 58 phase 6 started at 661.76086615'
p1722
aS'trial 58 event l at 662.752630851'
p1723
aS'staircase 3 updated from 3.764125 to 3.320420 after response 1 at 662.752648'
p1724
aa(lp1725
S'trial 59 started at 665.198277506'
p1726
aS'trial 59 phase 6 started at 668.39385068'
p1727
aS'trial 59 event s at 669.152285326'
p1728
aS'staircase 0 updated from 32.087500 to 32.087500 after response 1 at 669.152299'
p1729
aa(lp1730
S'trial 60 started at 671.831298812'
p1731
aS'trial 60 phase 6 started at 675.026810407'
p1732
aS'trial 60 event l at 676.143535731'
p1733
aS'staircase 2 updated from 3.805988 to 3.805988 after response 1 at 676.143550'
p1734
aa(lp1735
S'trial 61 started at 678.468138569'
p1736
aS'trial 61 phase 6 started at 681.659766714'
p1737
aS'trial 61 event s at 682.543277442'
p1738
aS'staircase 1 updated from 26.625625 to 26.625625 after response 1 at 682.543293'
p1739
aa(lp1740
S'trial 62 started at 685.101560137'
p1741
aS'trial 62 phase 6 started at 688.792733425'
p1742
aS'trial 62 event f at 690.692753809'
p1743
aS'staircase 0 updated from 32.087500 to 22.875625 after response 1 at 690.692770'
p1744
aa(lp1745
S'trial 63 started at 692.235898971'
p1746
aS'trial 63 phase 6 started at 695.925674194'
p1747
aS'trial 63 event l at 697.5674431'
p1748
aS'staircase 2 updated from 3.805988 to 3.805988 after response 1 at 697.567456'
p1749
aa(lp1750
S'trial 64 started at 699.368506759'
p1751
aS'trial 64 phase 6 started at 703.058588735'
p1752
aS'trial 64 event f at 704.200363771'
p1753
aS'staircase 1 updated from 26.625625 to 26.625625 after response 1 at 704.200377'
p1754
aa(lp1755
S'trial 65 started at 706.499485846'
p1756
aS'trial 65 phase 6 started at 709.691591796'
p1757
aS'trial 65 event j at 710.958365085'
p1758
aS'staircase 3 updated from 3.320420 to 3.320420 after response 1 at 710.958379'
p1759
aa(lp1760
S'trial 66 started at 713.139040199'
p1761
aS'trial 66 phase 6 started at 716.832884464'
p1762
aS'trial 66 event f at 718.374600772'
p1763
aS'staircase 0 updated from 22.875625 to 22.875625 after response 1 at 718.374614'
p1764
aa(lp1765
S'trial 67 started at 720.276030624'
p1766
aS'trial 67 phase 6 started at 723.965831505'
p1767
aS'trial 67 event j at 725.63257315'
p1768
aS'staircase 2 updated from 3.805988 to 3.362282 after response 1 at 725.632591'
p1769
aa(lp1770
S'trial 68 started at 727.406501972'
p1771
aS'trial 68 phase 6 started at 731.098770849'
p1772
aS'trial 68 event f at 732.748836347'
p1773
aS'staircase 0 updated from 22.875625 to 22.875625 after response 1 at 732.748849'
p1774
aa(lp1775
S'trial 69 started at 734.541299796'
p1776
aS'trial 69 phase 6 started at 738.231715609'
p1777
aS'trial 69 event f at 740.081795077'
p1778
aS'staircase 1 updated from 26.625625 to 17.413750 after response 1 at 740.081811'
p1779
aa(lp1780
S'trial 70 started at 741.676732793'
p1781
aS'trial 70 phase 6 started at 745.372998299'
p1782
aS'trial 70 event s at 746.714735988'
p1783
aS'staircase 0 updated from 22.875625 to 13.663750 after response 1 at 746.714753'
p1784
aa(lp1785
S'trial 71 started at 748.816551278'
p1786
aS'trial 71 phase 6 started at 752.005981119'
p1787
aS'trial 71 event f at 753.547730496'
p1788
aS'staircase 1 updated from 17.413750 to 26.625625 after response 0 at 753.547748'
p1789
aa(lp1790
S'trial 72 started at 755.454798223'
p1791
aS'trial 72 phase 6 started at 759.147260958'
p1792
aS'trial 72 event s at 760.622338823'
p1793
aS'staircase 0 updated from 13.663750 to 13.663750 after response 1 at 760.622353'
p1794
aa(lp1795
S'trial 73 started at 762.595137561'
p1796
aS'trial 73 phase 6 started at 766.288534526'
p1797
aS'trial 73 event l at 768.11368972'
p1798
aS'staircase 2 updated from 3.362282 to 3.805987 after response 0 at 768.113707'
p1799
aa(lp1800
S'trial 74 started at 769.735178699'
p1801
aS'trial 74 phase 6 started at 773.429821778'
p1802
aS'trial 74 event f at 775.213247408'
p1803
aS'staircase 0 updated from 13.663750 to 22.875625 after response 0 at 775.213267'
p1804
aa(lp1805
S'trial 75 started at 776.876584262'
p1806
aS'trial 75 phase 6 started at 780.071129414'
p1807
aS'trial 75 event s at 780.879573396'
p1808
aS'staircase 1 updated from 26.625625 to 26.625625 after response 1 at 780.879588'
p1809
aa(lp1810
S'trial 76 started at 783.522697889'
p1811
aS'trial 76 phase 6 started at 787.212431205'
p1812
aS'trial 76 event f at 788.179234286'
p1813
aS'staircase 1 updated from 26.625625 to 26.625625 after response 1 at 788.179248'
p1814
aa(lp1815
S'trial 77 started at 790.657046987'
p1816
aS'trial 77 phase 6 started at 794.353685672'
p1817
aS'trial 77 event l at 795.237205523'
p1818
aS'staircase 3 updated from 3.320420 to 3.320420 after response 1 at 795.237230'
p1819
aa(lp1820
S'trial 78 started at 797.798677483'
p1821
aS'trial 78 phase 6 started at 800.99500072'
p1822
aS'trial 78 event f at 802.145043269'
p1823
aS'staircase 0 updated from 22.875625 to 22.875625 after response 1 at 802.145058'
p1824
aa(lp1825
S'trial 79 started at 804.44148496'
p1826
aS'trial 79 phase 6 started at 808.136276568'
p1827
aS'trial 79 event f at 810.153001179'
p1828
aS'staircase 0 updated from 22.875625 to 22.875625 after response 1 at 810.153014'
p1829
aa(lp1830
S'trial 80 started at 811.590240627'
p1831
aS'trial 80 phase 6 started at 815.285858132'
p1832
aS'trial 80 event l at 816.477653908'
p1833
aS'staircase 2 updated from 3.805987 to 3.805987 after response 1 at 816.477669'
p1834
aa(lp1835
S'trial 81 started at 818.735655935'
p1836
aS'trial 81 phase 6 started at 822.427179595'
p1837
aS'trial 81 event s at 824.627245735'
p1838
aS'staircase 1 updated from 26.625625 to 18.795531 after response 1 at 824.627263'
p1839
aa(lp1840
S'trial 82 started at 825.87647878'
p1841
aS'trial 82 phase 6 started at 829.068508042'
p1842
aS'trial 82 event s at 831.460209738'
p1843
aS'staircase 0 updated from 22.875625 to 15.045531 after response 1 at 831.460226'
p1844
aa(lp1845
S'trial 83 started at 832.518149901'
p1846
aS'trial 83 phase 6 started at 836.209761938'
p1847
aS'trial 83 event l at 838.059858226'
p1848
aS'staircase 2 updated from 3.805987 to 4.183137 after response 0 at 838.059875'
p1849
aa(lp1850
S'trial 84 started at 839.661309888'
p1851
aS'trial 84 phase 6 started at 842.851060166'
p1852
aS'trial 84 event j at 844.892784884'
p1853
aS'staircase 3 updated from 3.320420 to 2.876714 after response 1 at 844.892801'
p1854
aa(lp1855
S'trial 85 started at 846.297386183'
p1856
aS'trial 85 phase 6 started at 849.992357681'
p1857
aS'trial 85 event f at 851.375748246'
p1858
aS'staircase 1 updated from 18.795531 to 18.795531 after response 1 at 851.375763'
p1859
aa(lp1860
S'trial 86 started at 853.448445351'
p1861
aS'trial 86 phase 6 started at 857.141958916'
p1862
aS'trial 86 event f at 859.791947727'
p1863
aS'staircase 1 updated from 18.795531 to 18.795531 after response 1 at 859.791962'
p1864
aa(lp1865
S'trial 87 started at 860.59087295'
p1866
aS'trial 87 phase 6 started at 864.283258142'
p1867
aS'trial 87 event l at 865.691652804'
p1868
aS'staircase 3 updated from 2.876714 to 2.876714 after response 1 at 865.691666'
p1869
aa(lp1870
S'trial 88 started at 867.730295165'
p1871
aS'trial 88 phase 6 started at 871.424497214'
p1872
aS'trial 88 event l at 873.29959817'
p1873
aS'staircase 3 updated from 2.876714 to 3.320420 after response 0 at 873.299618'
p1874
aa(lp1875
S'trial 89 started at 874.876045449'
p1876
aS'trial 89 phase 6 started at 878.565806988'
p1877
aS'trial 89 event l at 880.090858268'
p1878
aS'staircase 3 updated from 3.320420 to 3.764125 after response 0 at 880.090875'
p1879
aa(lp1880
S'trial 90 started at 882.01498045'
p1881
aS'trial 90 phase 6 started at 885.207128022'
p1882
aS'trial 90 event l at 887.057172995'
p1883
aS'staircase 3 updated from 3.764125 to 4.207830 after response 0 at 887.057189'
p1884
aa(lp1885
S'trial 91 started at 888.671640004'
p1886
aS'trial 91 phase 6 started at 891.865097264'
p1887
aS'trial 91 event s at 892.681852094'
p1888
aS'staircase 1 updated from 18.795531 to 26.625625 after response 0 at 892.681869'
p1889
aa(lp1890
S'trial 92 started at 895.31643482'
p1891
aS'trial 92 phase 6 started at 899.006370832'
p1892
aS'trial 92 event j at 900.498077518'
p1893
aS'staircase 3 updated from 4.207830 to 4.207830 after response 1 at 900.498093'
p1894
aa(lp1895
S'trial 93 started at 902.457570976'
p1896
aS'trial 93 phase 6 started at 905.647705836'
p1897
aS'trial 93 event l at 907.01442054'
p1898
aS'staircase 2 updated from 4.183137 to 4.183137 after response 1 at 907.014437'
p1899
aa(lp1900
S'trial 94 started at 909.100845139'
p1901
aS'trial 94 phase 6 started at 912.297321468'
p1902
aS'trial 94 event l at 913.92237004'
p1903
aS'staircase 2 updated from 4.183137 to 4.183137 after response 1 at 913.922383'
p1904
aa(lp1905
S'trial 95 started at 915.745175549'
p1906
aS'trial 95 phase 6 started at 919.438601878'
p1907
aS'trial 95 event f at 920.713683733'
p1908
aS'staircase 1 updated from 26.625625 to 26.625625 after response 1 at 920.713700'
p1909
aa(lp1910
S'trial 96 started at 922.890507611'
p1911
aS'trial 96 phase 6 started at 926.579883998'
p1912
aS'trial 96 event j at 929.063259596'
p1913
aS'staircase 2 updated from 4.183137 to 3.862560 after response 1 at 929.063276'
p1914
aa(lp1915
S'trial 97 started at 930.029672678'
p1916
aS'trial 97 phase 6 started at 933.721161272'
p1917
aS'trial 97 event j at 935.312811368'
p1918
aS'staircase 3 updated from 4.207830 to 4.207830 after response 1 at 935.312824'
p1919
aa(lp1920
S'trial 98 started at 937.173602968'
p1921
aS'trial 98 phase 6 started at 940.862463634'
p1922
aS'trial 98 event f at 941.554182578'
p1923
aS'staircase 1 updated from 26.625625 to 26.625625 after response 1 at 941.554196'
p1924
aa(lp1925
S'trial 99 started at 944.314314915'
p1926
aS'trial 99 phase 6 started at 947.503753309'
p1927
aS'trial 99 event f at 948.895491211'
p1928
aS'staircase 1 updated from 26.625625 to 19.970045 after response 1 at 948.895507'
p1929
aasS'trialResponses'
p1930
(lp1931
s.