(dp0
S'parameterArray'
p1
(lp2
(dp3
S'reaction_time'
p4
F1.8833770228684443
sS'trial_start'
p5
F92.55780260882966
sS'task'
p6
I2
sS'trial_orientation'
p7
F-4.2078303125
sS'base_color_lum'
p8
cnumpy.core.multiarray
scalar
p9
(cnumpy
dtype
p10
(S'i4'
p11
I0
I1
tp12
Rp13
(I3
S'<'
p14
NNNI-1
I-1
I0
tp15
bS'7\x00\x00\x00'
p16
tp17
Rp18
sS'button'
p19
S'j'
p20
sS'trial_cue'
p21
S'red135'
p22
sS'trial_color'
p23
F-19.970045312499998
sS'trial_stimulus_label'
p24
S'green135'
p25
sS'trial_stimulus'
p26
I3
sS'base_ori'
p27
g9
(g13
S'\x87\x00\x00\x00'
p28
tp29
Rp30
sS'trial_end'
p31
F99.39773013979357
sS'base_color_b'
p32
g9
(g13
S'K\x00\x00\x00'
p33
tp34
Rp35
sS'base_color_a'
p36
g9
(g13
S'\xb0\xff\xff\xff'
p37
tp38
Rp39
sS'correct_answer'
p40
I1
sS'trial_position_y'
p41
I0
sS'trial_position_x'
p42
I0
sS'response'
p43
I-1
sS'trial_direction'
p44
F-1.0
sa(dp45
g5
F99.65561271543811
sg6
I2
sg7
F-3.8625599273437494
sg8
g9
(g13
S'7\x00\x00\x00'
p46
tp47
Rp48
sg21
S'red45'
p49
sg23
F15.04553125
sg24
g49
sg26
I0
sg27
g9
(g13
S'-\x00\x00\x00'
p50
tp51
Rp52
sg31
F104.34740549732669
sg32
g9
(g13
S'K\x00\x00\x00'
p53
tp54
Rp55
sg36
g9
(g13
S'P\x00\x00\x00'
p56
tp57
Rp58
sg41
I0
sg42
I0
sasS'eventArray'
p59
(lp60
(lp61
S'trial 0 started at 92.5578026088'
p62
aS'trial 0 phase 6 started at 96.2476930073'
p63
aS'trial 0 event j at 98.1310680345'
p64
aS'staircase 3 updated from 4.207830 to 3.830681 after response 1 at 98.131085'
p65
aa(lp66
S'trial 1 started at 99.6556127154'
p67
aS'trial 1 phase 6 started at 103.347310563'
p68
a(lp69
I-99
aF4.683411233268998
aaasS'trialResponses'
p70
(lp71
s.(dp0
S'parameterArray'
p1
(lp2
(dp3
S'reaction_time'
p4
F1.949965005609556
sS'trial_start'
p5
F80.81021380076163
sS'task'
p6
I2
sS'trial_orientation'
p7
F3.830680796875
sS'base_color_lum'
p8
cnumpy.core.multiarray
scalar
p9
(cnumpy
dtype
p10
(S'i4'
p11
I0
I1
tp12
Rp13
(I3
S'<'
p14
NNNI-1
I-1
I0
tp15
bS'7\x00\x00\x00'
p16
tp17
Rp18
sS'button'
p19
S'j'
p20
sS'trial_cue'
p21
S'green45'
p22
sS'trial_color'
p23
F15.04553125
sS'trial_stimulus_label'
p24
S'red135'
p25
sS'trial_stimulus'
p26
I1
sS'base_ori'
p27
g9
(g13
S'\x87\x00\x00\x00'
p28
tp29
Rp30
sS'trial_end'
p31
F87.15588454559293
sS'base_color_b'
p32
g9
(g13
S'K\x00\x00\x00'
p33
tp34
Rp35
sS'base_color_a'
p36
g9
(g13
S'P\x00\x00\x00'
p37
tp38
Rp39
sS'correct_answer'
p40
I0
sS'trial_position_y'
p41
I0
sS'trial_position_x'
p42
I0
sS'response'
p43
I-1
sS'trial_direction'
p44
F1.0
sa(dp45
g4
F1.3584340758425242
sg5
F87.41908284761666
sg6
I1
sg7
F4.2078303125
sg8
g9
(g13
S'7\x00\x00\x00'
p46
tp47
Rp48
sg19
S'l'
p49
sg21
S'green135'
p50
sg23
F-19.970045312499998
sg24
g50
sg26
I3
sg27
g9
(g13
S'\x87\x00\x00\x00'
p51
tp52
Rp53
sg31
F94.26389704949543
sg32
g9
(g13
S'K\x00\x00\x00'
p54
tp55
Rp56
sg36
g9
(g13
S'\xb0\xff\xff\xff'
p57
tp58
Rp59
sg40
I0
sg41
I0
sg42
I0
sg43
I1
sg44
F-1.0
sa(dp60
g4
F1.5917581438570778
sg5
F94.5208787512056
sg6
I1
sg7
F-4.2078303125
sg8
g9
(g13
S'7\x00\x00\x00'
p61
tp62
Rp63
sg19
S's'
p64
sg21
g25
sg23
F15.04553125
sg24
g25
sg26
I1
sg27
g9
(g13
S'\x87\x00\x00\x00'
p65
tp66
Rp67
sg31
F101.36349778558906
sg32
g9
(g13
S'K\x00\x00\x00'
p68
tp69
Rp70
sg36
g9
(g13
S'P\x00\x00\x00'
p71
tp72
Rp73
sg40
I1
sg41
I0
sg42
I0
sg43
I-1
sg44
F-1.0
sa(dp74
g4
F2.250038985604988
sg5
F101.62197391171685
sg6
I2
sg7
F-4.2078303125
sg8
g9
(g13
S'7\x00\x00\x00'
p75
tp76
Rp77
sg19
S'j'
p78
sg21
g50
sg23
F-19.970045312499998
sg24
g50
sg26
I3
sg27
g9
(g13
S'\x87\x00\x00\x00'
p79
tp80
Rp81
sg31
F107.96315112017692
sg32
g9
(g13
S'K\x00\x00\x00'
p82
tp83
Rp84
sg36
g9
(g13
S'\xb0\xff\xff\xff'
p85
tp86
Rp87
sg40
I1
sg41
I0
sg42
I0
sg43
I-1
sg44
F-1.0
sa(dp88
g4
F1.2417295639170334
sg5
F108.21943664019636
sg6
I1
sg7
F4.2078303125
sg8
g9
(g13
S'7\x00\x00\x00'
p89
tp90
Rp91
sg19
S's'
p92
sg21
g25
sg23
F15.04553125
sg24
g25
sg26
I1
sg27
g9
(g13
S'\x87\x00\x00\x00'
p93
tp94
Rp95
sg31
F114.56277052944824
sg32
g9
(g13
S'K\x00\x00\x00'
p96
tp97
Rp98
sg36
g9
(g13
S'P\x00\x00\x00'
p99
tp100
Rp101
sg40
I1
sg41
I0
sg42
I0
sg43
I-1
sg44
F-1.0
sa(dp102
g4
F1.7083885332431237
sg5
F114.82119676540606
sg6
I1
sg7
F-3.8625599273437494
sg8
g9
(g13
S'7\x00\x00\x00'
p103
tp104
Rp105
sg19
S'f'
p106
sg21
g50
sg23
F15.04553125
sg24
S'red45'
p107
sg26
I0
sg27
g9
(g13
S'-\x00\x00\x00'
p108
tp109
Rp110
sg31
F121.16239934658006
sg32
g9
(g13
S'K\x00\x00\x00'
p111
tp112
Rp113
sg36
g9
(g13
S'P\x00\x00\x00'
p114
tp115
Rp116
sg40
I1
sg41
I0
sg42
I0
sg43
I1
sg44
F1.0
sa(dp117
g4
F2.166670515336591
sg5
F121.42161042619045
sg6
I1
sg7
F3.8625599273437494
sg8
g9
(g13
S'7\x00\x00\x00'
p118
tp119
Rp120
sg19
S'f'
p121
sg21
g22
sg23
F-19.970045312499998
sg24
g22
sg26
I2
sg27
g9
(g13
S'-\x00\x00\x00'
p122
tp123
Rp124
sg31
F127.76205980833583
sg32
g9
(g13
S'K\x00\x00\x00'
p125
tp126
Rp127
sg36
g9
(g13
S'\xb0\xff\xff\xff'
p128
tp129
Rp130
sg40
I0
sg41
I0
sg42
I0
sg43
I1
sg44
F-1.0
sa(dp131
g4
F2.5916751836321055
sg5
F128.01995378744687
sg6
I1
sg7
F-3.8625599273437494
sg8
g9
(g13
S'7\x00\x00\x00'
p132
tp133
Rp134
sg19
S'f'
p135
sg21
g22
sg23
F-26.625625
sg24
g22
sg26
I2
sg27
g9
(g13
S'-\x00\x00\x00'
p136
tp137
Rp138
sg31
F134.3616829237344
sg32
g9
(g13
S'K\x00\x00\x00'
p139
tp140
Rp141
sg36
g9
(g13
S'\xb0\xff\xff\xff'
p142
tp143
Rp144
sg40
I1
sg41
I0
sg42
I0
sg43
I1
sg44
F1.0
sa(dp145
g4
F1.9833723189367447
sg5
F134.62956348951775
sg6
I2
sg7
F-3.8625599273437494
sg8
g9
(g13
S'7\x00\x00\x00'
p146
tp147
Rp148
sg19
S'l'
p149
sg21
g107
sg23
F7.215437499999999
sg24
g107
sg26
I0
sg27
g9
(g13
S'-\x00\x00\x00'
p150
tp151
Rp152
sg31
F141.46968174347603
sg32
g9
(g13
S'K\x00\x00\x00'
p153
tp154
Rp155
sg36
g9
(g13
S'P\x00\x00\x00'
p156
tp157
Rp158
sg40
I0
sg41
I0
sg42
I0
sg43
I1
sg44
F-1.0
sa(dp159
g4
F1.0917668390029576
sg5
F141.72859319697636
sg6
I2
sg7
F4.2078303125
sg8
g9
(g13
S'7\x00\x00\x00'
p160
tp161
Rp162
sg19
S'j'
p163
sg21
g50
sg23
F-26.625625
sg24
g50
sg26
I3
sg27
g9
(g13
S'\x87\x00\x00\x00'
p164
tp165
Rp166
sg31
F148.56929701899026
sg32
g9
(g13
S'K\x00\x00\x00'
p167
tp168
Rp169
sg36
g9
(g13
S'\xb0\xff\xff\xff'
p170
tp171
Rp172
sg40
I0
sg41
I0
sg42
I0
sg43
I-1
sg44
F1.0
sa(dp173
g4
F1.1751834889200836
sg5
F148.83010059283697
sg6
I2
sg7
F-4.52840740078125
sg8
g9
(g13
S'7\x00\x00\x00'
p174
tp175
Rp176
sg19
S'j'
p177
sg21
g50
sg23
F7.215437499999999
sg24
g25
sg26
I1
sg27
g9
(g13
S'\x87\x00\x00\x00'
p178
tp179
Rp180
sg31
F155.66886268942108
sg32
g9
(g13
S'K\x00\x00\x00'
p181
tp182
Rp183
sg36
g9
(g13
S'P\x00\x00\x00'
p184
tp185
Rp186
sg40
I1
sg41
I0
sg42
I0
sg43
I-1
sg44
F-1.0
sa(dp187
g4
F1.5250467185815069
sg5
F155.92723875012234
sg6
I1
sg7
F4.52840740078125
sg8
g9
(g13
S'7\x00\x00\x00'
p188
tp189
Rp190
sg19
S'f'
p191
sg21
g50
sg23
F7.215437499999999
sg24
g25
sg26
I1
sg27
g9
(g13
S'\x87\x00\x00\x00'
p192
tp193
Rp194
sg31
F162.76848594736293
sg32
g9
(g13
S'K\x00\x00\x00'
p195
tp196
Rp197
sg36
g9
(g13
S'P\x00\x00\x00'
p198
tp199
Rp200
sg40
I1
sg41
I0
sg42
I0
sg43
I1
sg44
F1.0
sa(dp201
g4
F1.8750741581734474
sg5
F163.02642782103976
sg6
I1
sg7
F-4.183137015624999
sg8
g9
(g13
S'7\x00\x00\x00'
p202
tp203
Rp204
sg19
S's'
p205
sg21
g107
sg23
F7.215437499999999
sg24
g107
sg26
I0
sg27
g9
(g13
S'-\x00\x00\x00'
p206
tp207
Rp208
sg31
F169.8681619463423
sg32
g9
(g13
S'K\x00\x00\x00'
p209
tp210
Rp211
sg36
g9
(g13
S'P\x00\x00\x00'
p212
tp213
Rp214
sg40
I1
sg41
I0
sg42
I0
sg43
I-1
sg44
F-1.0
sa(dp215
g4
F1.1750814278857433
sg5
F170.12940854490262
sg6
I2
sg7
F-4.52840740078125
sg8
g9
(g13
S'7\x00\x00\x00'
p216
tp217
Rp218
sg19
S'j'
p219
sg21
g50
sg23
F-26.625625
sg24
g50
sg26
I3
sg27
g9
(g13
S'\x87\x00\x00\x00'
p220
tp221
Rp222
sg31
F176.47613582099984
sg32
g9
(g13
S'K\x00\x00\x00'
p223
tp224
Rp225
sg36
g9
(g13
S'\xb0\xff\xff\xff'
p226
tp227
Rp228
sg40
I1
sg41
I0
sg42
I0
sg43
I-1
sg44
F-1.0
sa(dp229
g4
F2.916636091120381
sg5
F176.73705713564777
sg6
I1
sg7
F-4.52840740078125
sg8
g9
(g13
S'7\x00\x00\x00'
p230
tp231
Rp232
sg19
S'f'
p233
sg21
g25
sg23
F7.215437499999999
sg24
g25
sg26
I1
sg27
g9
(g13
S'\x87\x00\x00\x00'
p234
tp235
Rp236
sg31
F183.57571489050497
sg32
g9
(g13
S'K\x00\x00\x00'
p237
tp238
Rp239
sg36
g9
(g13
S'P\x00\x00\x00'
p240
tp241
Rp242
sg40
I1
sg41
I0
sg42
I0
sg43
I1
sg44
F1.0
sa(dp243
g4
F1.3668082122076157
sg5
F183.8341565211431
sg6
I2
sg7
F-4.183137015624999
sg8
g9
(g13
S'7\x00\x00\x00'
p244
tp245
Rp246
sg19
S'l'
p247
sg21
g22
sg23
F-26.625625
sg24
g22
sg26
I2
sg27
g9
(g13
S'-\x00\x00\x00'
p248
tp249
Rp250
sg31
F190.67530393804373
sg32
g9
(g13
S'K\x00\x00\x00'
p251
tp252
Rp253
sg36
g9
(g13
S'\xb0\xff\xff\xff'
p254
tp255
Rp256
sg40
I0
sg41
I0
sg42
I0
sg43
I1
sg44
F-1.0
sa(dp257
g4
F1.86670372793742
sg5
F190.9347447975233
sg6
I2
sg7
F4.52840740078125
sg8
g9
(g13
S'7\x00\x00\x00'
p258
tp259
Rp260
sg19
S'j'
p261
sg21
g25
sg23
F0.001
sg24
g25
sg26
I1
sg27
g9
(g13
S'\x87\x00\x00\x00'
p262
tp263
Rp264
sg31
F197.274954991939
sg32
g9
(g13
S'K\x00\x00\x00'
p265
tp266
Rp267
sg36
g9
(g13
S'P\x00\x00\x00'
p268
tp269
Rp270
sg40
I0
sg41
I0
sg42
I0
sg43
I-1
sg44
F1.0
sa(dp271
g4
F0.9250795035495685
sg5
F197.53731970048648
sg6
I2
sg7
F-4.800897925820312
sg8
g9
(g13
S'7\x00\x00\x00'
p272
tp273
Rp274
sg19
S'j'
p275
sg21
g25
sg23
F0.001
sg24
g25
sg26
I1
sg27
g9
(g13
S'\x87\x00\x00\x00'
p276
tp277
Rp278
sg31
F203.8829334279817
sg32
g9
(g13
S'K\x00\x00\x00'
p279
tp280
Rp281
sg36
g9
(g13
S'P\x00\x00\x00'
p282
tp283
Rp284
sg40
I1
sg41
I0
sg42
I0
sg43
I-1
sg44
F-1.0
sa(dp285
g4
F0.9583955891393998
sg5
F204.15098133964966
sg6
I2
sg7
F4.455627540664062
sg8
g9
(g13
S'7\x00\x00\x00'
p286
tp287
Rp288
sg19
S'l'
p289
sg21
g107
sg23
F0.001
sg24
g107
sg26
I0
sg27
g9
(g13
S'-\x00\x00\x00'
p290
tp291
Rp292
sg31
F210.49092155697144
sg32
g9
(g13
S'K\x00\x00\x00'
p293
tp294
Rp295
sg36
g9
(g13
S'P\x00\x00\x00'
p296
tp297
Rp298
sg40
I1
sg41
I0
sg42
I0
sg43
I1
sg44
F1.0
sa(dp299
g4
F0.9917815209646506
sg5
F210.75533603880467
sg6
I1
sg7
F4.800897925820312
sg8
g9
(g13
S'7\x00\x00\x00'
p300
tp301
Rp302
sg19
S'f'
p303
sg21
g50
sg23
F-26.625625
sg24
g50
sg26
I3
sg27
g9
(g13
S'\x87\x00\x00\x00'
p304
tp305
Rp306
sg31
F217.59889871012456
sg32
g9
(g13
S'K\x00\x00\x00'
p307
tp308
Rp309
sg36
g9
(g13
S'\xb0\xff\xff\xff'
p310
tp311
Rp312
sg40
I0
sg41
I0
sg42
I0
sg43
I1
sg44
F-1.0
sa(dp313
g4
F1.0168012988542614
sg5
F217.86069609616425
sg6
I1
sg7
F4.455627540664062
sg8
g9
(g13
S'7\x00\x00\x00'
p314
tp315
Rp316
sg19
S'f'
p317
sg21
g50
sg23
F0.001
sg24
g107
sg26
I0
sg27
g9
(g13
S'-\x00\x00\x00'
p318
tp319
Rp320
sg31
F224.20681300166325
sg32
g9
(g13
S'K\x00\x00\x00'
p321
tp322
Rp323
sg36
g9
(g13
S'P\x00\x00\x00'
p324
tp325
Rp326
sg40
I0
sg41
I0
sg42
I0
sg43
I1
sg44
F-1.0
sa(dp327
g4
F1.7083956604092236
sg5
F224.46958538417493
sg6
I2
sg7
F-4.455627540664062
sg8
g9
(g13
S'7\x00\x00\x00'
p328
tp329
Rp330
sg19
S'l'
p331
sg21
g22
sg23
F-32.282867734375
sg24
g22
sg26
I2
sg27
g9
(g13
S'-\x00\x00\x00'
p332
tp333
Rp334
sg31
F231.31478302764845
sg32
g9
(g13
S'K\x00\x00\x00'
p335
tp336
Rp337
sg36
g9
(g13
S'\xb0\xff\xff\xff'
p338
tp339
Rp340
sg40
I0
sg41
I0
sg42
I0
sg43
I1
sg44
F-1.0
sa(dp341
g4
F1.3750235552870436
sg5
F231.57587881535073
sg6
I2
sg7
F-4.728118065703124
sg8
g9
(g13
S'7\x00\x00\x00'
p342
tp343
Rp344
sg19
S'j'
p345
sg21
g22
sg23
F-32.282867734375
sg24
g22
sg26
I2
sg27
g9
(g13
S'-\x00\x00\x00'
p346
tp347
Rp348
sg31
F238.4227556194146
sg32
g9
(g13
S'K\x00\x00\x00'
p349
tp350
Rp351
sg36
g9
(g13
S'\xb0\xff\xff\xff'
p352
tp353
Rp354
sg40
I1
sg41
I0
sg42
I0
sg43
I-1
sg44
F-1.0
sa(dp355
g4
F2.3749420204949274
sg5
F238.68548295822984
sg6
I1
sg7
F4.800897925820312
sg8
g9
(g13
S'7\x00\x00\x00'
p356
tp357
Rp358
sg19
S'f'
p359
sg21
g107
sg23
F7.831093750000001
sg24
g25
sg26
I1
sg27
g9
(g13
S'\x87\x00\x00\x00'
p360
tp361
Rp362
sg31
F245.5306954262105
sg32
g9
(g13
S'K\x00\x00\x00'
p363
tp364
Rp365
sg36
g9
(g13
S'P\x00\x00\x00'
p366
tp367
Rp368
sg40
I0
sg41
I0
sg42
I0
sg43
I1
sg44
F-1.0
sa(dp369
g4
F0.9000748352555092
sg5
F245.79573510315095
sg6
I1
sg7
F4.728118065703124
sg8
g9
(g13
S'7\x00\x00\x00'
p370
tp371
Rp372
sg19
S's'
p373
sg21
g22
sg23
F15.6611875
sg24
g107
sg26
I0
sg27
g9
(g13
S'-\x00\x00\x00'
p374
tp375
Rp376
sg31
F252.63860929011935
sg32
g9
(g13
S'K\x00\x00\x00'
p377
tp378
Rp379
sg36
g9
(g13
S'P\x00\x00\x00'
p380
tp381
Rp382
sg40
I1
sg41
I0
sg42
I0
sg43
I-1
sg44
F-1.0
sa(dp383
g4
F2.2916892954217474
sg5
F252.90797002598447
sg6
I2
sg7
F-4.728118065703124
sg8
g9
(g13
S'7\x00\x00\x00'
p384
tp385
Rp386
sg19
S'l'
p387
sg21
g22
sg23
F15.6611875
sg24
g107
sg26
I0
sg27
g9
(g13
S'-\x00\x00\x00'
p388
tp389
Rp390
sg31
F259.7465767503254
sg32
g9
(g13
S'K\x00\x00\x00'
p391
tp392
Rp393
sg36
g9
(g13
S'P\x00\x00\x00'
p394
tp395
Rp396
sg40
I0
sg41
I0
sg42
I0
sg43
I1
sg44
F-1.0
sa(dp397
g4
F0.8833998298032384
sg5
F260.0125295599246
sg6
I1
sg7
F-4.959735011986327
sg8
g9
(g13
S'7\x00\x00\x00'
p398
tp399
Rp400
sg19
S's'
p401
sg21
g22
sg23
F-32.282867734375
sg24
g22
sg26
I2
sg27
g9
(g13
S'-\x00\x00\x00'
p402
tp403
Rp404
sg31
F266.3545600328416
sg32
g9
(g13
S'K\x00\x00\x00'
p405
tp406
Rp407
sg36
g9
(g13
S'\xb0\xff\xff\xff'
p408
tp409
Rp410
sg40
I1
sg41
I0
sg42
I0
sg43
I-1
sg44
F-1.0
sa(dp411
g4
F2.158373637463228
sg5
F266.6146218111262
sg6
I1
sg7
F4.800897925820312
sg8
g9
(g13
S'7\x00\x00\x00'
p412
tp413
Rp414
sg19
S's'
p415
sg21
g25
sg23
F15.6611875
sg24
g25
sg26
I1
sg27
g9
(g13
S'\x87\x00\x00\x00'
p416
tp417
Rp418
sg31
F272.95420966130223
sg32
g9
(g13
S'K\x00\x00\x00'
p419
tp420
Rp421
sg36
g9
(g13
S'P\x00\x00\x00'
p422
tp423
Rp424
sg40
I0
sg41
I0
sg42
I0
sg43
I-1
sg44
F1.0
sa(dp425
g4
F1.7333421710209223
sg5
F273.2190708739745
sg6
I2
sg7
F-4.959735011986327
sg8
g9
(g13
S'7\x00\x00\x00'
p426
tp427
Rp428
sg19
S'j'
p429
sg21
g22
sg23
F-32.282867734375
sg24
g22
sg26
I2
sg27
g9
(g13
S'-\x00\x00\x00'
p430
tp431
Rp432
sg31
F279.56220634289275
sg32
g9
(g13
S'K\x00\x00\x00'
p433
tp434
Rp435
sg36
g9
(g13
S'\xb0\xff\xff\xff'
p436
tp437
Rp438
sg40
I1
sg41
I0
sg42
I0
sg43
I-1
sg44
F-1.0
sa(dp439
g4
F2.1833942706125526
sg5
F279.82369526513685
sg6
I2
sg7
F-4.800897925820312
sg8
g9
(g13
S'7\x00\x00\x00'
p440
tp441
Rp442
sg19
S'j'
p443
sg21
g22
sg23
F-32.282867734375
sg24
g50
sg26
I3
sg27
g9
(g13
S'\x87\x00\x00\x00'
p444
tp445
Rp446
sg31
F286.1701656781279
sg32
g9
(g13
S'K\x00\x00\x00'
p447
tp448
Rp449
sg36
g9
(g13
S'\xb0\xff\xff\xff'
p450
tp451
Rp452
sg40
I1
sg41
I0
sg42
I0
sg43
I-1
sg44
F-1.0
sa(dp453
g4
F1.866697741113967
sg5
F286.43558566070897
sg6
I2
sg7
F4.800897925820312
sg8
g9
(g13
S'7\x00\x00\x00'
p454
tp455
Rp456
sg19
S'l'
p457
sg21
g50
sg23
F-32.282867734375
sg24
g50
sg26
I3
sg27
g9
(g13
S'\x87\x00\x00\x00'
p458
tp459
Rp460
sg31
F293.2781282918604
sg32
g9
(g13
S'K\x00\x00\x00'
p461
tp462
Rp463
sg36
g9
(g13
S'\xb0\xff\xff\xff'
p464
tp465
Rp466
sg40
I1
sg41
I0
sg42
I0
sg43
I1
sg44
F1.0
sa(dp467
g4
F1.9750118667325296
sg5
F293.54334158659185
sg6
I1
sg7
F-4.569280979537109
sg8
g9
(g13
S'7\x00\x00\x00'
p468
tp469
Rp470
sg19
S's'
p471
sg21
g50
sg23
F-32.282867734375
sg24
g50
sg26
I3
sg27
g9
(g13
S'\x87\x00\x00\x00'
p472
tp473
Rp474
sg31
F299.88607080698057
sg32
g9
(g13
S'K\x00\x00\x00'
p475
tp476
Rp477
sg36
g9
(g13
S'\xb0\xff\xff\xff'
p478
tp479
Rp480
sg40
I0
sg41
I0
sg42
I0
sg43
I-1
sg44
F1.0
sa(dp481
g4
F1.8833128783626307
sg5
F300.15037724095964
sg6
I2
sg7
F-4.569280979537109
sg8
g9
(g13
S'7\x00\x00\x00'
p482
tp483
Rp484
sg19
S'j'
p485
sg21
g107
sg23
F22.3167671875
sg24
g25
sg26
I1
sg27
g9
(g13
S'\x87\x00\x00\x00'
p486
tp487
Rp488
sg31
F306.4940415456822
sg32
g9
(g13
S'K\x00\x00\x00'
p489
tp490
Rp491
sg36
g9
(g13
S'P\x00\x00\x00'
p492
tp493
Rp494
sg40
I1
sg41
I0
sg42
I0
sg43
I-1
sg44
F-1.0
sa(dp495
g4
F1.5001281464665226
sg5
F306.7596722073249
sg6
I2
sg7
F-4.959735011986327
sg8
g9
(g13
S'7\x00\x00\x00'
p496
tp497
Rp498
sg19
S'j'
p499
sg21
g107
sg23
F22.3167671875
sg24
g107
sg26
I0
sg27
g9
(g13
S'-\x00\x00\x00'
p500
tp501
Rp502
sg31
F313.10203195536633
sg32
g9
(g13
S'K\x00\x00\x00'
p503
tp504
Rp505
sg36
g9
(g13
S'P\x00\x00\x00'
p506
tp507
Rp508
sg40
I1
sg41
I0
sg42
I0
sg43
I-1
sg44
F-1.0
sa(dp509
g4
F1.375110221639261
sg5
F313.3685731838905
sg6
I1
sg7
F4.569280979537109
sg8
g9
(g13
S'7\x00\x00\x00'
p510
tp511
Rp512
sg19
S's'
p513
sg21
g25
sg23
F22.3167671875
sg24
g25
sg26
I1
sg27
g9
(g13
S'\x87\x00\x00\x00'
p514
tp515
Rp516
sg31
F320.2099649200827
sg32
g9
(g13
S'K\x00\x00\x00'
p517
tp518
Rp519
sg36
g9
(g13
S'P\x00\x00\x00'
p520
tp521
Rp522
sg40
I1
sg41
I0
sg42
I0
sg43
I-1
sg44
F-1.0
sa(dp523
g4
F1.9500308606329781
sg5
F320.476970269734
sg6
I2
sg7
F4.569280979537109
sg8
g9
(g13
S'7\x00\x00\x00'
p524
tp525
Rp526
sg19
S'l'
p527
sg21
g50
sg23
F-37.091524058593755
sg24
g50
sg26
I3
sg27
g9
(g13
S'\x87\x00\x00\x00'
p528
tp529
Rp530
sg31
F326.8179276763567
sg32
g9
(g13
S'K\x00\x00\x00'
p531
tp532
Rp533
sg36
g9
(g13
S'\xb0\xff\xff\xff'
p534
tp535
Rp536
sg40
I1
sg41
I0
sg42
I0
sg43
I1
sg44
F1.0
sa(dp537
g4
F1.1667241116338118
sg5
F327.11558098528803
sg6
I1
sg7
F-4.569280979537109
sg8
g9
(g13
S'7\x00\x00\x00'
p538
tp539
Rp540
sg19
S's'
p541
sg21
g25
sg23
F-37.091524058593755
sg24
g50
sg26
I3
sg27
g9
(g13
S'\x87\x00\x00\x00'
p542
tp543
Rp544
sg31
F333.4592304655034
sg32
g9
(g13
S'K\x00\x00\x00'
p545
tp546
Rp547
sg36
g9
(g13
S'\xb0\xff\xff\xff'
p548
tp549
Rp550
sg40
I1
sg41
I0
sg42
I0
sg43
I-1
sg44
F-1.0
sa(dp551
g4
F0.7667429273551534
sg5
F333.7258375490528
sg6
I1
sg7
F4.569280979537109
sg8
g9
(g13
S'7\x00\x00\x00'
p552
tp553
Rp554
sg19
S's'
p555
sg21
g50
sg23
F-37.091524058593755
sg24
g50
sg26
I3
sg27
g9
(g13
S'\x87\x00\x00\x00'
p556
tp557
Rp558
sg31
F340.06723855056225
sg32
g9
(g13
S'K\x00\x00\x00'
p559
tp560
Rp561
sg36
g9
(g13
S'\xb0\xff\xff\xff'
p562
tp563
Rp564
sg40
I1
sg41
I0
sg42
I0
sg43
I-1
sg44
F-1.0
sa(dp565
g4
F1.8500686346196744
sg5
F340.33279366423267
sg6
I2
sg7
F4.569280979537109
sg8
g9
(g13
S'7\x00\x00\x00'
p566
tp567
Rp568
sg19
S'l'
p569
sg21
g107
sg23
F-37.091524058593755
sg24
g50
sg26
I3
sg27
g9
(g13
S'\x87\x00\x00\x00'
p570
tp571
Rp572
sg31
F347.17518976082647
sg32
g9
(g13
S'K\x00\x00\x00'
p573
tp574
Rp575
sg36
g9
(g13
S'\xb0\xff\xff\xff'
p576
tp577
Rp578
sg40
I1
sg41
I0
sg42
I0
sg43
I1
sg44
F1.0
sa(dp579
g4
F1.408409202027542
sg5
F347.44523498982926
sg6
I1
sg7
F-4.959735011986327
sg8
g9
(g13
S'7\x00\x00\x00'
p580
tp581
Rp582
sg19
S's'
p583
sg21
g107
sg23
F-37.091524058593755
sg24
g22
sg26
I2
sg27
g9
(g13
S'-\x00\x00\x00'
p584
tp585
Rp586
sg31
F353.7914796141631
sg32
g9
(g13
S'K\x00\x00\x00'
p587
tp588
Rp589
sg36
g9
(g13
S'\xb0\xff\xff\xff'
p590
tp591
Rp592
sg40
I1
sg41
I0
sg42
I0
sg43
I-1
sg44
F-1.0
sa(dp593
g4
F0.900122444732915
sg5
F354.05758523022814
sg6
I1
sg7
F4.959735011986327
sg8
g9
(g13
S'7\x00\x00\x00'
p594
tp595
Rp596
sg19
S's'
p597
sg21
g107
sg23
F22.3167671875
sg24
g107
sg26
I0
sg27
g9
(g13
S'-\x00\x00\x00'
p598
tp599
Rp600
sg31
F360.89940288593243
sg32
g9
(g13
S'K\x00\x00\x00'
p601
tp602
Rp603
sg36
g9
(g13
S'P\x00\x00\x00'
p604
tp605
Rp606
sg40
I1
sg41
I0
sg42
I0
sg43
I-1
sg44
F-1.0
sa(dp607
g4
F1.0834434480675554
sg5
F361.1679508396501
sg6
I1
sg7
F4.959735011986327
sg8
g9
(g13
S'7\x00\x00\x00'
p608
tp609
Rp610
sg19
S's'
p611
sg21
g22
sg23
F-33.00416618300782
sg24
g22
sg26
I2
sg27
g9
(g13
S'-\x00\x00\x00'
p612
tp613
Rp614
sg31
F367.50739557630914
sg32
g9
(g13
S'K\x00\x00\x00'
p615
tp616
Rp617
sg36
g9
(g13
S'\xb0\xff\xff\xff'
p618
tp619
Rp620
sg40
I1
sg41
I0
sg42
I0
sg43
I-1
sg44
F-1.0
sa(dp621
g4
F1.7500559482632525
sg5
F367.77379540183574
sg6
I2
sg7
F-4.959735011986327
sg8
g9
(g13
S'7\x00\x00\x00'
p622
tp623
Rp624
sg19
S'l'
p625
sg21
g107
sg23
F22.3167671875
sg24
g107
sg26
I0
sg27
g9
(g13
S'-\x00\x00\x00'
p626
tp627
Rp628
sg31
F374.1153982447213
sg32
g9
(g13
S'K\x00\x00\x00'
p629
tp630
Rp631
sg36
g9
(g13
S'P\x00\x00\x00'
p632
tp633
Rp634
sg40
I0
sg41
I0
sg42
I0
sg43
I1
sg44
F-1.0
sa(dp635
g4
F1.2667519075857854
sg5
F374.3839342247993
sg6
I2
sg7
F-4.3376640332539065
sg8
g9
(g13
S'7\x00\x00\x00'
p636
tp637
Rp638
sg19
S'j'
p639
sg21
g25
sg23
F22.3167671875
sg24
g25
sg26
I1
sg27
g9
(g13
S'\x87\x00\x00\x00'
p640
tp641
Rp642
sg31
F380.72333534319296
sg32
g9
(g13
S'K\x00\x00\x00'
p643
tp644
Rp645
sg36
g9
(g13
S'P\x00\x00\x00'
p646
tp647
Rp648
sg40
I1
sg41
I0
sg42
I0
sg43
I-1
sg44
F-1.0
sa(dp649
g4
F2.233336611829145
sg5
F380.99285088113174
sg6
I1
sg7
F5.15660941632705
sg8
g9
(g13
S'7\x00\x00\x00'
p650
tp651
Rp652
sg19
S's'
p653
sg21
g107
sg23
F22.3167671875
sg24
g107
sg26
I0
sg27
g9
(g13
S'-\x00\x00\x00'
p654
tp655
Rp656
sg31
F387.3396562709804
sg32
g9
(g13
S'K\x00\x00\x00'
p657
tp658
Rp659
sg36
g9
(g13
S'P\x00\x00\x00'
p660
tp661
Rp662
sg40
I1
sg41
I0
sg42
I0
sg43
I-1
sg44
F-1.0
sa(dp663
g4
F1.5000822475085442
sg5
F387.6227775710886
sg6
I1
sg7
F-4.3376640332539065
sg8
g9
(g13
S'7\x00\x00\x00'
p664
tp665
Rp666
sg19
S'f'
p667
sg21
g50
sg23
F-33.00416618300782
sg24
g50
sg26
I3
sg27
g9
(g13
S'\x87\x00\x00\x00'
p668
tp669
Rp670
sg31
F393.96428719062715
sg32
g9
(g13
S'K\x00\x00\x00'
p671
tp672
Rp673
sg36
g9
(g13
S'\xb0\xff\xff\xff'
p674
tp675
Rp676
sg40
I1
sg41
I0
sg42
I0
sg43
I1
sg44
F1.0
sa(dp677
g4
F2.1333886401498603
sg5
F394.25047089193504
sg6
I2
sg7
F-4.3376640332539065
sg8
g9
(g13
S'7\x00\x00\x00'
p678
tp679
Rp680
sg19
S'l'
p681
sg21
g22
sg23
F-33.00416618300782
sg24
g50
sg26
I3
sg27
g9
(g13
S'\x87\x00\x00\x00'
p682
tp683
Rp684
sg31
F401.0972154157771
sg32
g9
(g13
S'K\x00\x00\x00'
p685
tp686
Rp687
sg36
g9
(g13
S'\xb0\xff\xff\xff'
p688
tp689
Rp690
sg40
I0
sg41
I0
sg42
I0
sg43
I1
sg44
F-1.0
sa(dp691
g4
F1.7500126150862343
sg5
F401.3808259246416
sg6
I2
sg7
F-5.15660941632705
sg8
g9
(g13
S'7\x00\x00\x00'
p692
tp693
Rp694
sg19
S'j'
p695
sg21
g22
sg23
F-33.00416618300782
sg24
g22
sg26
I2
sg27
g9
(g13
S'-\x00\x00\x00'
p696
tp697
Rp698
sg31
F407.72188767299303
sg32
g9
(g13
S'K\x00\x00\x00'
p699
tp700
Rp701
sg36
g9
(g13
S'\xb0\xff\xff\xff'
p702
tp703
Rp704
sg40
I1
sg41
I0
sg42
I0
sg43
I-1
sg44
F-1.0
sa(dp705
g4
F1.4083806933595042
sg5
F408.009592026694
sg6
I2
sg7
F-4.569280979537109
sg8
g9
(g13
S'7\x00\x00\x00'
p706
tp707
Rp708
sg19
S'j'
p709
sg21
g50
sg23
F-33.00416618300782
sg24
g50
sg26
I3
sg27
g9
(g13
S'\x87\x00\x00\x00'
p710
tp711
Rp712
sg31
F414.8548044946765
sg32
g9
(g13
S'K\x00\x00\x00'
p713
tp714
Rp715
sg36
g9
(g13
S'\xb0\xff\xff\xff'
p716
tp717
Rp718
sg40
I1
sg41
I0
sg42
I0
sg43
I-1
sg44
F-1.0
sa(dp719
g4
F1.7000816773361294
sg5
F415.1386975244495
sg6
I2
sg7
F4.569280979537109
sg8
g9
(g13
S'7\x00\x00\x00'
p720
tp721
Rp722
sg19
S'l'
p723
sg21
g25
sg23
F16.659524453125
sg24
g25
sg26
I1
sg27
g9
(g13
S'\x87\x00\x00\x00'
p724
tp725
Rp726
sg31
F421.9794634953614
sg32
g9
(g13
S'K\x00\x00\x00'
p727
tp728
Rp729
sg36
g9
(g13
S'P\x00\x00\x00'
p730
tp731
Rp732
sg40
I1
sg41
I0
sg42
I0
sg43
I1
sg44
F1.0
sa(dp733
g4
F1.6750861318159878
sg5
F422.2638195059153
sg6
I1
sg7
F-5.15660941632705
sg8
g9
(g13
S'7\x00\x00\x00'
p734
tp735
Rp736
sg19
S'f'
p737
sg21
g107
sg23
F-33.00416618300782
sg24
g22
sg26
I2
sg27
g9
(g13
S'-\x00\x00\x00'
p738
tp739
Rp740
sg31
F429.1040746014842
sg32
g9
(g13
S'K\x00\x00\x00'
p741
tp742
Rp743
sg36
g9
(g13
S'\xb0\xff\xff\xff'
p744
tp745
Rp746
sg40
I1
sg41
I0
sg42
I0
sg43
I1
sg44
F1.0
sa(dp747
g4
F2.183352933043352
sg5
F429.39615503584173
sg6
I2
sg7
F-4.569280979537109
sg8
g9
(g13
S'7\x00\x00\x00'
p748
tp749
Rp750
sg19
S'l'
p751
sg21
g25
sg23
F16.659524453125
sg24
g25
sg26
I1
sg27
g9
(g13
S'\x87\x00\x00\x00'
p752
tp753
Rp754
sg31
F435.7370411707925
sg32
g9
(g13
S'K\x00\x00\x00'
p755
tp756
Rp757
sg36
g9
(g13
S'P\x00\x00\x00'
p758
tp759
Rp760
sg40
I0
sg41
I0
sg42
I0
sg43
I1
sg44
F-1.0
sa(dp761
g4
F0.9167059373576194
sg5
F436.0220639991094
sg6
I2
sg7
F-5.15660941632705
sg8
g9
(g13
S'7\x00\x00\x00'
p762
tp763
Rp764
sg19
S'j'
p765
sg21
g25
sg23
F-28.91680830742188
sg24
g22
sg26
I2
sg27
g9
(g13
S'-\x00\x00\x00'
p766
tp767
Rp768
sg31
F442.361683208821
sg32
g9
(g13
S'K\x00\x00\x00'
p769
tp770
Rp771
sg36
g9
(g13
S'\xb0\xff\xff\xff'
p772
tp773
Rp774
sg40
I1
sg41
I0
sg42
I0
sg43
I-1
sg44
F-1.0
sa(dp775
g4
F1.308423883992873
sg5
F442.65020832709706
sg6
I1
sg7
F5.15660941632705
sg8
g9
(g13
S'7\x00\x00\x00'
p776
tp777
Rp778
sg19
S'f'
p779
sg21
g25
sg23
F16.659524453125
sg24
g107
sg26
I0
sg27
g9
(g13
S'-\x00\x00\x00'
p780
tp781
Rp782
sg31
F449.4945911928171
sg32
g9
(g13
S'K\x00\x00\x00'
p783
tp784
Rp785
sg36
g9
(g13
S'P\x00\x00\x00'
p786
tp787
Rp788
sg40
I1
sg41
I0
sg42
I0
sg43
I1
sg44
F1.0
sa(dp789
g4
F2.44165401594546
sg5
F449.7809530733048
sg6
I1
sg7
F4.766155383877832
sg8
g9
(g13
S'7\x00\x00\x00'
p790
tp791
Rp792
sg19
S'f'
p793
sg21
g22
sg23
F-28.91680830742188
sg24
g50
sg26
I3
sg27
g9
(g13
S'\x87\x00\x00\x00'
p794
tp795
Rp796
sg31
F456.6275661721829
sg32
g9
(g13
S'K\x00\x00\x00'
p797
tp798
Rp799
sg36
g9
(g13
S'\xb0\xff\xff\xff'
p800
tp801
Rp802
sg40
I1
sg41
I0
sg42
I0
sg43
I1
sg44
F1.0
sa(dp803
g4
F1.6750524915860296
sg5
F456.9200234911423
sg6
I1
sg7
F-5.15660941632705
sg8
g9
(g13
S'7\x00\x00\x00'
p804
tp805
Rp806
sg19
S's'
p807
sg21
g25
sg23
F-28.91680830742188
sg24
g22
sg26
I2
sg27
g9
(g13
S'-\x00\x00\x00'
p808
tp809
Rp810
sg31
F463.76051663409453
sg32
g9
(g13
S'K\x00\x00\x00'
p811
tp812
Rp813
sg36
g9
(g13
S'\xb0\xff\xff\xff'
p814
tp815
Rp816
sg40
I1
sg41
I0
sg42
I0
sg43
I-1
sg44
F-1.0
sa(dp817
g4
F0.9000899448510609
sg5
F464.0475826787024
sg6
I1
sg7
F-4.766155383877832
sg8
g9
(g13
S'7\x00\x00\x00'
p818
tp819
Rp820
sg19
S's'
p821
sg21
g107
sg23
F-28.91680830742188
sg24
g50
sg26
I3
sg27
g9
(g13
S'\x87\x00\x00\x00'
p822
tp823
Rp824
sg31
F470.39349204109203
sg32
g9
(g13
S'K\x00\x00\x00'
p825
tp826
Rp827
sg36
g9
(g13
S'\xb0\xff\xff\xff'
p828
tp829
Rp830
sg40
I1
sg41
I0
sg42
I0
sg43
I-1
sg44
F-1.0
sa(dp831
g4
F1.141739114320444
sg5
F470.6764591093033
sg6
I2
sg7
F-5.15660941632705
sg8
g9
(g13
S'7\x00\x00\x00'
p832
tp833
Rp834
sg19
S'j'
p835
sg21
g22
sg23
F-24.829450431835944
sg24
g22
sg26
I2
sg27
g9
(g13
S'-\x00\x00\x00'
p836
tp837
Rp838
sg31
F477.01815432027433
sg32
g9
(g13
S'K\x00\x00\x00'
p839
tp840
Rp841
sg36
g9
(g13
S'\xb0\xff\xff\xff'
p842
tp843
Rp844
sg40
I1
sg41
I0
sg42
I0
sg43
I-1
sg44
F-1.0
sa(dp845
g4
F0.9167789195489604
sg5
F477.31214283983354
sg6
I2
sg7
F-4.989266172637436
sg8
g9
(g13
S'7\x00\x00\x00'
p846
tp847
Rp848
sg19
S'l'
p849
sg21
g107
sg23
F-24.829450431835944
sg24
g22
sg26
I2
sg27
g9
(g13
S'-\x00\x00\x00'
p850
tp851
Rp852
sg31
F483.65115538507234
sg32
g9
(g13
S'K\x00\x00\x00'
p853
tp854
Rp855
sg36
g9
(g13
S'\xb0\xff\xff\xff'
p856
tp857
Rp858
sg40
I0
sg41
I0
sg42
I0
sg43
I1
sg44
F-1.0
sa(dp859
g4
F0.8167898953888653
sg5
F483.9367672024855
sg6
I1
sg7
F-4.766155383877832
sg8
g9
(g13
S'7\x00\x00\x00'
p860
tp861
Rp862
sg19
S's'
p863
sg21
g25
sg23
F16.659524453125
sg24
g25
sg26
I1
sg27
g9
(g13
S'\x87\x00\x00\x00'
p864
tp865
Rp866
sg31
F490.7757032019508
sg32
g9
(g13
S'K\x00\x00\x00'
p867
tp868
Rp869
sg36
g9
(g13
S'P\x00\x00\x00'
p870
tp871
Rp872
sg40
I1
sg41
I0
sg42
I0
sg43
I-1
sg44
F-1.0
sa(dp873
g4
F0.9000574449673877
sg5
F491.0628351015821
sg6
I1
sg7
F5.15660941632705
sg8
g9
(g13
S'7\x00\x00\x00'
p874
tp875
Rp876
sg19
S'f'
p877
sg21
g107
sg23
F16.659524453125
sg24
g107
sg26
I0
sg27
g9
(g13
S'-\x00\x00\x00'
p878
tp879
Rp880
sg31
F497.4086911527611
sg32
g9
(g13
S'K\x00\x00\x00'
p881
tp882
Rp883
sg36
g9
(g13
S'P\x00\x00\x00'
p884
tp885
Rp886
sg40
I1
sg41
I0
sg42
I0
sg43
I1
sg44
F1.0
sa(dp887
g4
F0.7918023322945373
sg5
F497.6944589125924
sg6
I1
sg7
F-4.766155383877832
sg8
g9
(g13
S'7\x00\x00\x00'
p888
tp889
Rp890
sg19
S's'
p891
sg21
g25
sg23
F11.002281718750002
sg24
g25
sg26
I1
sg27
g9
(g13
S'\x87\x00\x00\x00'
p892
tp893
Rp894
sg31
F504.03330639264095
sg32
g9
(g13
S'K\x00\x00\x00'
p895
tp896
Rp897
sg36
g9
(g13
S'P\x00\x00\x00'
p898
tp899
Rp900
sg40
I1
sg41
I0
sg42
I0
sg43
I-1
sg44
F-1.0
sa(dp901
g4
F0.9167444240592886
sg5
F504.32066180023685
sg6
I2
sg7
F5.15660941632705
sg8
g9
(g13
S'7\x00\x00\x00'
p902
tp903
Rp904
sg19
S'l'
p905
sg21
g22
sg23
F-24.829450431835944
sg24
g22
sg26
I2
sg27
g9
(g13
S'-\x00\x00\x00'
p906
tp907
Rp908
sg31
F511.1662460212574
sg32
g9
(g13
S'K\x00\x00\x00'
p909
tp910
Rp911
sg36
g9
(g13
S'\xb0\xff\xff\xff'
p912
tp913
Rp914
sg40
I1
sg41
I0
sg42
I0
sg43
I1
sg44
F1.0
sa(dp915
g4
F0.8500749065278796
sg5
F511.45527659823165
sg6
I2
sg7
F-5.15660941632705
sg8
g9
(g13
S'7\x00\x00\x00'
p916
tp917
Rp918
sg19
S'j'
p919
sg21
g107
sg23
F11.002281718750002
sg24
g107
sg26
I0
sg27
g9
(g13
S'-\x00\x00\x00'
p920
tp921
Rp922
sg31
F518.2992569215476
sg32
g9
(g13
S'K\x00\x00\x00'
p923
tp924
Rp925
sg36
g9
(g13
S'P\x00\x00\x00'
p926
tp927
Rp928
sg40
I1
sg41
I0
sg42
I0
sg43
I-1
sg44
F-1.0
sa(dp929
g4
F1.5916939993530832
sg5
F518.5897277564673
sg6
I1
sg7
F5.15660941632705
sg8
g9
(g13
S'7\x00\x00\x00'
p930
tp931
Rp932
sg19
S's'
p933
sg21
g22
sg23
F-24.829450431835944
sg24
g22
sg26
I2
sg27
g9
(g13
S'-\x00\x00\x00'
p934
tp935
Rp936
sg31
F525.4321626248493
sg32
g9
(g13
S'K\x00\x00\x00'
p937
tp938
Rp939
sg36
g9
(g13
S'\xb0\xff\xff\xff'
p940
tp941
Rp942
sg40
I0
sg41
I0
sg42
I0
sg43
I-1
sg44
F1.0
sa(dp943
g4
F0.9001113263511797
sg5
F525.7212433770783
sg6
I2
sg7
F-5.15660941632705
sg8
g9
(g13
S'7\x00\x00\x00'
p944
tp945
Rp946
sg19
S'j'
p947
sg21
g107
sg23
F11.002281718750002
sg24
g107
sg26
I0
sg27
g9
(g13
S'-\x00\x00\x00'
p948
tp949
Rp950
sg31
F532.0651520010942
sg32
g9
(g13
S'K\x00\x00\x00'
p951
tp952
Rp953
sg36
g9
(g13
S'P\x00\x00\x00'
p954
tp955
Rp956
sg40
I1
sg41
I0
sg42
I0
sg43
I-1
sg44
F-1.0
sa(dp957
g4
F1.6000604383771133
sg5
F532.3533481293325
sg6
I2
sg7
F4.766155383877832
sg8
g9
(g13
S'7\x00\x00\x00'
p958
tp959
Rp960
sg19
S'l'
p961
sg21
g25
sg23
F-28.91680830742188
sg24
g50
sg26
I3
sg27
g9
(g13
S'\x87\x00\x00\x00'
p962
tp963
Rp964
sg31
F539.1981181427727
sg32
g9
(g13
S'K\x00\x00\x00'
p965
tp966
Rp967
sg36
g9
(g13
S'\xb0\xff\xff\xff'
p968
tp969
Rp970
sg40
I1
sg41
I0
sg42
I0
sg43
I1
sg44
F1.0
sa(dp971
g4
F1.875081000256614
sg5
F539.4979537902982
sg6
I2
sg7
F-4.766155383877832
sg8
g9
(g13
S'7\x00\x00\x00'
p972
tp973
Rp974
sg19
S'j'
p975
sg21
g107
sg23
F11.002281718750002
sg24
g25
sg26
I1
sg27
g9
(g13
S'\x87\x00\x00\x00'
p976
tp977
Rp978
sg31
F546.3393800219801
sg32
g9
(g13
S'K\x00\x00\x00'
p979
tp980
Rp981
sg36
g9
(g13
S'P\x00\x00\x00'
p982
tp983
Rp984
sg40
I1
sg41
I0
sg42
I0
sg43
I-1
sg44
F-1.0
sa(dp985
g4
F2.5000109758384497
sg5
F546.6316748415265
sg6
I1
sg7
F5.014367659190878
sg8
g9
(g13
S'7\x00\x00\x00'
p986
tp987
Rp988
sg19
S's'
p989
sg21
g107
sg23
F11.002281718750002
sg24
g107
sg26
I0
sg27
g9
(g13
S'-\x00\x00\x00'
p990
tp991
Rp992
sg31
F552.9723220738342
sg32
g9
(g13
S'K\x00\x00\x00'
p993
tp994
Rp995
sg36
g9
(g13
S'P\x00\x00\x00'
p996
tp997
Rp998
sg40
I1
sg41
I0
sg42
I0
sg43
I-1
sg44
F-1.0
sa(dp999
g4
F1.8500364198225725
sg5
F553.2618441402556
sg6
I2
sg7
F-5.014367659190878
sg8
g9
(g13
S'7\x00\x00\x00'
p1000
tp1001
Rp1002
sg19
S'j'
p1003
sg21
g22
sg23
F-28.91680830742188
sg24
g22
sg26
I2
sg27
g9
(g13
S'-\x00\x00\x00'
p1004
tp1005
Rp1006
sg31
F560.1052765269596
sg32
g9
(g13
S'K\x00\x00\x00'
p1007
tp1008
Rp1009
sg36
g9
(g13
S'\xb0\xff\xff\xff'
p1010
tp1011
Rp1012
sg40
I1
sg41
I0
sg42
I0
sg43
I-1
sg44
F-1.0
sa(dp1013
g4
F0.9583767734184221
sg5
F560.3928571530378
sg6
I1
sg7
F-4.766155383877832
sg8
g9
(g13
S'7\x00\x00\x00'
p1014
tp1015
Rp1016
sg19
S's'
p1017
sg21
g50
sg23
F-28.91680830742188
sg24
g50
sg26
I3
sg27
g9
(g13
S'\x87\x00\x00\x00'
p1018
tp1019
Rp1020
sg31
F566.7382807277118
sg32
g9
(g13
S'K\x00\x00\x00'
p1021
tp1022
Rp1023
sg36
g9
(g13
S'\xb0\xff\xff\xff'
p1024
tp1025
Rp1026
sg40
I0
sg41
I0
sg42
I0
sg43
I-1
sg44
F1.0
sa(dp1027
g4
F2.483369895700889
sg5
F567.0279282322772
sg6
I1
sg7
F-5.014367659190878
sg8
g9
(g13
S'7\x00\x00\x00'
p1028
tp1029
Rp1030
sg19
S'f'
p1031
sg21
g107
sg23
F11.002281718750002
sg24
g107
sg26
I0
sg27
g9
(g13
S'-\x00\x00\x00'
p1032
tp1033
Rp1034
sg31
F573.8712049616479
sg32
g9
(g13
S'K\x00\x00\x00'
p1035
tp1036
Rp1037
sg36
g9
(g13
S'P\x00\x00\x00'
p1038
tp1039
Rp1040
sg40
I1
sg41
I0
sg42
I0
sg43
I1
sg44
F1.0
sa(dp1041
g4
F2.300008410056762
sg5
F574.1617835593352
sg6
I2
sg7
F-5.014367659190878
sg8
g9
(g13
S'7\x00\x00\x00'
p1042
tp1043
Rp1044
sg19
S'f'
p1045
sg21
g50
sg23
F5.345038984375002
sg24
g107
sg26
I0
sg27
g9
(g13
S'-\x00\x00\x00'
p1046
tp1047
Rp1048
sg31
F580.5041644037901
sg32
g9
(g13
S'K\x00\x00\x00'
p1049
tp1050
Rp1051
sg36
g9
(g13
S'P\x00\x00\x00'
p1052
tp1053
Rp1054
sg40
I0
sg41
I0
sg42
I0
sg43
I1
sg44
F-1.0
sa(dp1055
g4
F1.6417127438035095
sg5
F580.8007819927843
sg6
I2
sg7
F-5.014367659190878
sg8
g9
(g13
S'7\x00\x00\x00'
p1056
tp1057
Rp1058
sg19
S'j'
p1059
sg21
g50
sg23
F-33.00416618300782
sg24
g22
sg26
I2
sg27
g9
(g13
S'-\x00\x00\x00'
p1060
tp1061
Rp1062
sg31
F587.6454470943245
sg32
g9
(g13
S'K\x00\x00\x00'
p1063
tp1064
Rp1065
sg36
g9
(g13
S'\xb0\xff\xff\xff'
p1066
tp1067
Rp1068
sg40
I1
sg41
I0
sg42
I0
sg43
I-1
sg44
F-1.0
sa(dp1069
g4
F1.5667497694375925
sg5
F587.9369599210877
sg6
I2
sg7
F-5.014367659190878
sg8
g9
(g13
S'7\x00\x00\x00'
p1070
tp1071
Rp1072
sg19
S'j'
p1073
sg21
g22
sg23
F5.345038984375002
sg24
g107
sg26
I0
sg27
g9
(g13
S'-\x00\x00\x00'
p1074
tp1075
Rp1076
sg31
F594.2783996943872
sg32
g9
(g13
S'K\x00\x00\x00'
p1077
tp1078
Rp1079
sg36
g9
(g13
S'P\x00\x00\x00'
p1080
tp1081
Rp1082
sg40
I1
sg41
I0
sg42
I0
sg43
I-1
sg44
F-1.0
sa(dp1083
g4
F1.3417519432223344
sg5
F594.569678464979
sg6
I2
sg7
F-4.766155383877832
sg8
g9
(g13
S'7\x00\x00\x00'
p1084
tp1085
Rp1086
sg19
S'l'
p1087
sg21
g25
sg23
F5.345038984375002
sg24
g25
sg26
I1
sg27
g9
(g13
S'\x87\x00\x00\x00'
p1088
tp1089
Rp1090
sg31
F601.4113615597653
sg32
g9
(g13
S'K\x00\x00\x00'
p1091
tp1092
Rp1093
sg36
g9
(g13
S'P\x00\x00\x00'
p1094
tp1095
Rp1096
sg40
I0
sg41
I0
sg42
I0
sg43
I1
sg44
F-1.0
sa(dp1097
g4
F1.1584004356118385
sg5
F601.705373741519
sg6
I2
sg7
F-4.872125902054706
sg8
g9
(g13
S'7\x00\x00\x00'
p1098
tp1099
Rp1100
sg19
S'j'
p1101
sg21
g107
sg23
F5.345038984375002
sg24
g107
sg26
I0
sg27
g9
(g13
S'-\x00\x00\x00'
p1102
tp1103
Rp1104
sg31
F608.5443185786717
sg32
g9
(g13
S'K\x00\x00\x00'
p1105
tp1106
Rp1107
sg36
g9
(g13
S'P\x00\x00\x00'
p1108
tp1109
Rp1110
sg40
I1
sg41
I0
sg42
I0
sg43
I-1
sg44
F-1.0
sa(dp1111
g4
F1.825044580429676
sg5
F608.8322706727049
sg6
I2
sg7
F-4.933498627567446
sg8
g9
(g13
S'7\x00\x00\x00'
p1112
tp1113
Rp1114
sg19
S'j'
p1115
sg21
g50
sg23
F5.345038984375002
sg24
g25
sg26
I1
sg27
g9
(g13
S'\x87\x00\x00\x00'
p1116
tp1117
Rp1118
sg31
F615.6772830098307
sg32
g9
(g13
S'K\x00\x00\x00'
p1119
tp1120
Rp1121
sg36
g9
(g13
S'P\x00\x00\x00'
p1122
tp1123
Rp1124
sg40
I1
sg41
I0
sg42
I0
sg43
I-1
sg44
F-1.0
sa(dp1125
g4
F1.4667462058532692
sg5
F615.9750101562131
sg6
I2
sg7
F4.933498627567446
sg8
g9
(g13
S'7\x00\x00\x00'
p1126
tp1127
Rp1128
sg19
S'l'
p1129
sg21
g107
sg23
F-33.00416618300782
sg24
g50
sg26
I3
sg27
g9
(g13
S'\x87\x00\x00\x00'
p1130
tp1131
Rp1132
sg31
F622.318604899785
sg32
g9
(g13
S'K\x00\x00\x00'
p1133
tp1134
Rp1135
sg36
g9
(g13
S'\xb0\xff\xff\xff'
p1136
tp1137
Rp1138
sg40
I1
sg41
I0
sg42
I0
sg43
I1
sg44
F1.0
sa(dp1139
g4
F1.0917294926439354
sg5
F622.6092134315732
sg6
I1
sg7
F4.933498627567446
sg8
g9
(g13
S'7\x00\x00\x00'
p1140
tp1141
Rp1142
sg19
S's'
p1143
sg21
g50
sg23
F-33.00416618300782
sg24
g50
sg26
I3
sg27
g9
(g13
S'\x87\x00\x00\x00'
p1144
tp1145
Rp1146
sg31
F629.4515214363801
sg32
g9
(g13
S'K\x00\x00\x00'
p1147
tp1148
Rp1149
sg36
g9
(g13
S'\xb0\xff\xff\xff'
p1150
tp1151
Rp1152
sg40
I1
sg41
I0
sg42
I0
sg43
I-1
sg44
F-1.0
sa(dp1153
g5
F629.7428746145979
sg6
I1
sg7
F4.933498627567446
sg8
g9
(g13
S'7\x00\x00\x00'
p1154
tp1155
Rp1156
sg21
g22
sg23
F5.345038984375002
sg24
g25
sg26
I1
sg27
g9
(g13
S'\x87\x00\x00\x00'
p1157
tp1158
Rp1159
sg31
F636.5844556483498
sg32
g9
(g13
S'K\x00\x00\x00'
p1160
tp1161
Rp1162
sg36
g9
(g13
S'P\x00\x00\x00'
p1163
tp1164
Rp1165
sg41
I0
sg42
I0
sa(dp1166
g4
F1.366733234408457
sg5
F636.8854715547623
sg6
I2
sg7
F-4.933498627567446
sg8
g9
(g13
S'7\x00\x00\x00'
p1167
tp1168
Rp1169
sg19
S'j'
p1170
sg21
g50
sg23
F-33.00416618300782
sg24
g50
sg26
I3
sg27
g9
(g13
S'\x87\x00\x00\x00'
p1171
tp1172
Rp1173
sg31
F643.7257580098667
sg32
g9
(g13
S'K\x00\x00\x00'
p1174
tp1175
Rp1176
sg36
g9
(g13
S'\xb0\xff\xff\xff'
p1177
tp1178
Rp1179
sg40
I1
sg41
I0
sg42
I0
sg43
I-1
sg44
F-1.0
sa(dp1180
g4
F1.908417041911889
sg5
F644.0240946715858
sg6
I1
sg7
F4.872125902054706
sg8
g9
(g13
S'7\x00\x00\x00'
p1181
tp1182
Rp1183
sg19
S'f'
p1184
sg21
g22
sg23
F-33.00416618300782
sg24
g22
sg26
I2
sg27
g9
(g13
S'-\x00\x00\x00'
p1185
tp1186
Rp1187
sg31
F650.367096149761
sg32
g9
(g13
S'K\x00\x00\x00'
p1188
tp1189
Rp1190
sg36
g9
(g13
S'\xb0\xff\xff\xff'
p1191
tp1192
Rp1193
sg40
I1
sg41
I0
sg42
I0
sg43
I1
sg44
F1.0
sa(dp1194
g4
F0.9335021046517795
sg5
F650.6695018537757
sg6
I1
sg7
F-4.872125902054706
sg8
g9
(g13
S'7\x00\x00\x00'
p1195
tp1196
Rp1197
sg19
S's'
p1198
sg21
g50
sg23
F-33.00416618300782
sg24
g22
sg26
I2
sg27
g9
(g13
S'-\x00\x00\x00'
p1199
tp1200
Rp1201
sg31
F657.5083905288502
sg32
g9
(g13
S'K\x00\x00\x00'
p1202
tp1203
Rp1204
sg36
g9
(g13
S'\xb0\xff\xff\xff'
p1205
tp1206
Rp1207
sg40
I1
sg41
I0
sg42
I0
sg43
I-1
sg44
F-1.0
sa(dp1208
g4
F1.558412694339495
sg5
F657.8090532128554
sg6
I1
sg7
F-4.872125902054706
sg8
g9
(g13
S'7\x00\x00\x00'
p1209
tp1210
Rp1211
sg19
S's'
p1212
sg21
g22
sg23
F-29.52991198875977
sg24
g22
sg26
I2
sg27
g9
(g13
S'-\x00\x00\x00'
p1213
tp1214
Rp1215
sg31
F664.6496524080558
sg32
g9
(g13
S'K\x00\x00\x00'
p1216
tp1217
Rp1218
sg36
g9
(g13
S'\xb0\xff\xff\xff'
p1219
tp1220
Rp1221
sg40
I1
sg41
I0
sg42
I0
sg43
I-1
sg44
F-1.0
sa(dp1222
g4
F1.9833221436801978
sg5
F664.9504958370217
sg6
I1
sg7
F-4.791256870431274
sg8
g9
(g13
S'7\x00\x00\x00'
p1223
tp1224
Rp1225
sg19
S'f'
p1226
sg21
g25
sg23
F-29.52991198875977
sg24
g50
sg26
I3
sg27
g9
(g13
S'\x87\x00\x00\x00'
p1227
tp1228
Rp1229
sg31
F671.7909744405515
sg32
g9
(g13
S'K\x00\x00\x00'
p1230
tp1231
Rp1232
sg36
g9
(g13
S'\xb0\xff\xff\xff'
p1233
tp1234
Rp1235
sg40
I1
sg41
I0
sg42
I0
sg43
I1
sg44
F1.0
sa(dp1236
g4
F2.2500255865306826
sg5
F672.0958469996749
sg6
I2
sg7
F-4.872125902054706
sg8
g9
(g13
S'7\x00\x00\x00'
p1237
tp1238
Rp1239
sg19
S'l'
p1240
sg21
g25
sg23
F-29.52991198875977
sg24
g22
sg26
I2
sg27
g9
(g13
S'-\x00\x00\x00'
p1241
tp1242
Rp1243
sg31
F678.9405215090774
sg32
g9
(g13
S'K\x00\x00\x00'
p1244
tp1245
Rp1246
sg36
g9
(g13
S'\xb0\xff\xff\xff'
p1247
tp1248
Rp1249
sg40
I0
sg41
I0
sg42
I0
sg43
I1
sg44
F-1.0
sa(dp1250
g4
F1.5083965156700287
sg5
F679.2388308024747
sg6
I1
sg7
F-4.791256870431274
sg8
g9
(g13
S'7\x00\x00\x00'
p1251
tp1252
Rp1253
sg19
S'f'
p1254
sg21
g25
sg23
F5.345038984375002
sg24
g25
sg26
I1
sg27
g9
(g13
S'\x87\x00\x00\x00'
p1255
tp1256
Rp1257
sg31
F686.0818369845801
sg32
g9
(g13
S'K\x00\x00\x00'
p1258
tp1259
Rp1260
sg36
g9
(g13
S'P\x00\x00\x00'
p1261
tp1262
Rp1263
sg40
I0
sg41
I0
sg42
I0
sg43
I1
sg44
F-1.0
sa(dp1264
g4
F1.3083888183300587
sg5
F686.3875807686218
sg6
I2
sg7
F-5.014367659190878
sg8
g9
(g13
S'7\x00\x00\x00'
p1265
tp1266
Rp1267
sg19
S'l'
p1268
sg21
g107
sg23
F11.002281718750002
sg24
g107
sg26
I0
sg27
g9
(g13
S'-\x00\x00\x00'
p1269
tp1270
Rp1271
sg31
F693.2314345134491
sg32
g9
(g13
S'K\x00\x00\x00'
p1272
tp1273
Rp1274
sg36
g9
(g13
S'P\x00\x00\x00'
p1275
tp1276
Rp1277
sg40
I0
sg41
I0
sg42
I0
sg43
I1
sg44
F-1.0
sa(dp1278
g4
F1.1084429848015134
sg5
F693.5329339268828
sg6
I1
sg7
F-5.135273152756624
sg8
g9
(g13
S'7\x00\x00\x00'
p1279
tp1280
Rp1281
sg19
S's'
p1282
sg21
g50
sg23
F-29.52991198875977
sg24
g22
sg26
I2
sg27
g9
(g13
S'-\x00\x00\x00'
p1283
tp1284
Rp1285
sg31
F700.372703234736
sg32
g9
(g13
S'K\x00\x00\x00'
p1286
tp1287
Rp1288
sg36
g9
(g13
S'\xb0\xff\xff\xff'
p1289
tp1290
Rp1291
sg40
I1
sg41
I0
sg42
I0
sg43
I-1
sg44
F-1.0
sa(dp1292
g4
F1.7250267625131528
sg5
F700.6734468833602
sg6
I2
sg7
F-5.135273152756624
sg8
g9
(g13
S'7\x00\x00\x00'
p1293
tp1294
Rp1295
sg19
S'l'
p1296
sg21
g25
sg23
F11.002281718750002
sg24
g107
sg26
I0
sg27
g9
(g13
S'-\x00\x00\x00'
p1297
tp1298
Rp1299
sg31
F707.0140351027239
sg32
g9
(g13
S'K\x00\x00\x00'
p1300
tp1301
Rp1302
sg36
g9
(g13
S'P\x00\x00\x00'
p1303
tp1304
Rp1305
sg40
I0
sg41
I0
sg42
I0
sg43
I1
sg44
F-1.0
sa(dp1306
g4
F2.1416963513183873
sg5
F707.317148962069
sg6
I1
sg7
F5.25617864632237
sg8
g9
(g13
S'7\x00\x00\x00'
p1307
tp1308
Rp1309
sg19
S'f'
p1310
sg21
g107
sg23
F11.002281718750002
sg24
g107
sg26
I0
sg27
g9
(g13
S'-\x00\x00\x00'
p1311
tp1312
Rp1313
sg31
F713.6636629933237
sg32
g9
(g13
S'K\x00\x00\x00'
p1314
tp1315
Rp1316
sg36
g9
(g13
S'P\x00\x00\x00'
p1317
tp1318
Rp1319
sg40
I1
sg41
I0
sg42
I0
sg43
I1
sg44
F1.0
sa(dp1320
g4
F1.891728637385313
sg5
F713.9670647902258
sg6
I2
sg7
F4.791256870431274
sg8
g9
(g13
S'7\x00\x00\x00'
p1321
tp1322
Rp1323
sg19
S'l'
p1324
sg21
g25
sg23
F11.002281718750002
sg24
g25
sg26
I1
sg27
g9
(g13
S'\x87\x00\x00\x00'
p1325
tp1326
Rp1327
sg31
F720.3132868927114
sg32
g9
(g13
S'K\x00\x00\x00'
p1328
tp1329
Rp1330
sg36
g9
(g13
S'P\x00\x00\x00'
p1331
tp1332
Rp1333
sg40
I1
sg41
I0
sg42
I0
sg43
I1
sg44
F1.0
sa(dp1334
g4
F1.491732343512922
sg5
F720.617539103203
sg6
I1
sg7
F-4.791256870431274
sg8
g9
(g13
S'7\x00\x00\x00'
p1335
tp1336
Rp1337
sg19
S'f'
p1338
sg21
g50
sg23
F-26.055657794511724
sg24
g50
sg26
I3
sg27
g9
(g13
S'\x87\x00\x00\x00'
p1339
tp1340
Rp1341
sg31
F726.962986625158
sg32
g9
(g13
S'K\x00\x00\x00'
p1342
tp1343
Rp1344
sg36
g9
(g13
S'\xb0\xff\xff\xff'
p1345
tp1346
Rp1347
sg40
I1
sg41
I0
sg42
I0
sg43
I1
sg44
F1.0
sa(dp1348
g4
F1.7667979490852304
sg5
F727.2654322413073
sg6
I2
sg7
F-4.791256870431274
sg8
g9
(g13
S'7\x00\x00\x00'
p1349
tp1350
Rp1351
sg19
S'j'
p1352
sg21
g50
sg23
F-26.055657794511724
sg24
g50
sg26
I3
sg27
g9
(g13
S'\x87\x00\x00\x00'
p1353
tp1354
Rp1355
sg31
F733.6042090198571
sg32
g9
(g13
S'K\x00\x00\x00'
p1356
tp1357
Rp1358
sg36
g9
(g13
S'\xb0\xff\xff\xff'
p1359
tp1360
Rp1361
sg40
I1
sg41
I0
sg42
I0
sg43
I-1
sg44
F-1.0
sa(dp1362
g4
F1.9666659539507236
sg5
F733.9110019229083
sg6
I2
sg7
F4.791256870431274
sg8
g9
(g13
S'7\x00\x00\x00'
p1363
tp1364
Rp1365
sg19
S'l'
p1366
sg21
g25
sg23
F11.002281718750002
sg24
g25
sg26
I1
sg27
g9
(g13
S'\x87\x00\x00\x00'
p1367
tp1368
Rp1369
sg31
F740.2539269978515
sg32
g9
(g13
S'K\x00\x00\x00'
p1370
tp1371
Rp1372
sg36
g9
(g13
S'P\x00\x00\x00'
p1373
tp1374
Rp1375
sg40
I1
sg41
I0
sg42
I0
sg43
I1
sg44
F1.0
sa(dp1376
g4
F1.958356247176198
sg5
F740.5563771753896
sg6
I1
sg7
F-5.25617864632237
sg8
g9
(g13
S'7\x00\x00\x00'
p1377
tp1378
Rp1379
sg19
S'f'
p1380
sg21
g25
sg23
F11.002281718750002
sg24
g107
sg26
I0
sg27
g9
(g13
S'-\x00\x00\x00'
p1381
tp1382
Rp1383
sg31
F746.8951864538194
sg32
g9
(g13
S'K\x00\x00\x00'
p1384
tp1385
Rp1386
sg36
g9
(g13
S'P\x00\x00\x00'
p1387
tp1388
Rp1389
sg40
I1
sg41
I0
sg42
I0
sg43
I1
sg44
F1.0
sa(dp1390
g4
F2.075068456440931
sg5
F747.1988493901281
sg6
I1
sg7
F-4.6490151132951025
sg8
g9
(g13
S'7\x00\x00\x00'
p1391
tp1392
Rp1393
sg19
S's'
p1394
sg21
g22
sg23
F11.002281718750002
sg24
g25
sg26
I1
sg27
g9
(g13
S'\x87\x00\x00\x00'
p1395
tp1396
Rp1397
sg31
F754.0448449912401
sg32
g9
(g13
S'K\x00\x00\x00'
p1398
tp1399
Rp1400
sg36
g9
(g13
S'P\x00\x00\x00'
p1401
tp1402
Rp1403
sg40
I1
sg41
I0
sg42
I0
sg43
I-1
sg44
F-1.0
sa(dp1404
g4
F1.983387143445725
sg5
F754.3492736703902
sg6
I1
sg7
F5.25617864632237
sg8
g9
(g13
S'7\x00\x00\x00'
p1405
tp1406
Rp1407
sg19
S'f'
p1408
sg21
g22
sg23
F-26.055657794511724
sg24
g22
sg26
I2
sg27
g9
(g13
S'-\x00\x00\x00'
p1409
tp1410
Rp1411
sg31
F760.6944725967533
sg32
g9
(g13
S'K\x00\x00\x00'
p1412
tp1413
Rp1414
sg36
g9
(g13
S'\xb0\xff\xff\xff'
p1415
tp1416
Rp1417
sg40
I1
sg41
I0
sg42
I0
sg43
I1
sg44
F1.0
sa(dp1418
g4
F1.466757894406328
sg5
F760.9992550684838
sg6
I1
sg7
F5.25617864632237
sg8
g9
(g13
S'7\x00\x00\x00'
p1419
tp1420
Rp1421
sg19
S'f'
p1422
sg21
g107
sg23
F6.193625394531252
sg24
g107
sg26
I0
sg27
g9
(g13
S'-\x00\x00\x00'
p1423
tp1424
Rp1425
sg31
F767.3440879435402
sg32
g9
(g13
S'K\x00\x00\x00'
p1426
tp1427
Rp1428
sg36
g9
(g13
S'P\x00\x00\x00'
p1429
tp1430
Rp1431
sg40
I0
sg41
I0
sg42
I0
sg43
I1
sg44
F-1.0
sasS'eventArray'
p1432
(lp1433
(lp1434
S'trial 0 started at 80.8102138008'
p1435
aS'trial 0 phase 6 started at 84.0058759217'
p1436
aS'trial 0 event j at 85.9558389317'
p1437
aS'staircase 3 updated from 3.830681 to 4.207830 after response 0 at 85.955858'
p1438
aa(lp1439
S'trial 1 started at 87.4190828476'
p1440
aS'trial 1 phase 6 started at 91.1138134478'
p1441
aS'trial 1 event l at 92.4722458131'
p1442
aa(lp1443
S'trial 2 started at 94.5208787512'
p1444
aS'trial 2 phase 6 started at 98.213450675'
p1445
aS'trial 2 event s at 99.8052065382'
p1446
aS'staircase 0 updated from 15.045531 to 15.045531 after response 1 at 99.805220'
p1447
aa(lp1448
S'trial 3 started at 101.621973912'
p1449
aS'trial 3 phase 6 started at 104.813093746'
p1450
aS'trial 3 event j at 107.063130166'
p1451
aS'staircase 3 updated from 4.207830 to 4.207830 after response 1 at 107.063146'
p1452
aa(lp1453
S'trial 4 started at 108.21943664'
p1454
aS'trial 4 phase 6 started at 111.412710875'
p1455
aS'trial 4 event s at 112.654438443'
p1456
aS'staircase 0 updated from 15.045531 to 15.045531 after response 1 at 112.654451'
p1457
aa(lp1458
S'trial 5 started at 114.821196765'
p1459
aS'trial 5 phase 6 started at 118.012349955'
p1460
aS'trial 5 event f at 119.720735923'
p1461
aS'staircase 0 updated from 15.045531 to 7.215437 after response 1 at 119.720752'
p1462
aa(lp1463
S'trial 6 started at 121.421610426'
p1464
aS'trial 6 phase 6 started at 124.612012983'
p1465
aS'trial 6 event f at 126.778691481'
p1466
aS'staircase 1 updated from 19.970045 to 26.625625 after response 0 at 126.778707'
p1467
aa(lp1468
S'trial 7 started at 128.019953787'
p1469
aS'trial 7 phase 6 started at 131.211645506'
p1470
aS'trial 7 event f at 133.803318694'
p1471
aS'staircase 1 updated from 26.625625 to 26.625625 after response 1 at 133.803334'
p1472
aa(lp1473
S'trial 8 started at 134.62956349'
p1474
aS'trial 8 phase 6 started at 138.319581037'
p1475
aS'trial 8 event l at 140.302960483'
p1476
aS'staircase 2 updated from 3.862560 to 4.183137 after response 0 at 140.302978'
p1477
aa(lp1478
S'trial 9 started at 141.728593197'
p1479
aS'trial 9 phase 6 started at 145.419211992'
p1480
aS'trial 9 event j at 146.51097655'
p1481
aS'staircase 3 updated from 4.207830 to 4.528407 after response 0 at 146.510992'
p1482
aa(lp1483
S'trial 10 started at 148.830100593'
p1484
aS'trial 10 phase 6 started at 152.518825842'
p1485
aS'trial 10 event j at 153.693996502'
p1486
aS'staircase 3 updated from 4.528407 to 4.528407 after response 1 at 153.694032'
p1487
aa(lp1488
S'trial 11 started at 155.92723875'
p1489
aS'trial 11 phase 6 started at 159.618443398'
p1490
aS'trial 11 event f at 161.143487836'
p1491
aS'staircase 0 updated from 7.215437 to 7.215437 after response 1 at 161.143501'
p1492
aa(lp1493
S'trial 12 started at 163.026427821'
p1494
aS'trial 12 phase 6 started at 166.718086327'
p1495
aS'trial 12 event s at 168.593158205'
p1496
aS'staircase 0 updated from 7.215437 to 7.215437 after response 1 at 168.593171'
p1497
aa(lp1498
S'trial 13 started at 170.129408545'
p1499
aS'trial 13 phase 6 started at 173.317705166'
p1500
aS'trial 13 event j at 174.492784313'
p1501
aS'staircase 3 updated from 4.528407 to 4.528407 after response 1 at 174.492808'
p1502
aa(lp1503
S'trial 14 started at 176.737057136'
p1504
aS'trial 14 phase 6 started at 180.425656947'
p1505
aS'trial 14 event f at 183.342290757'
p1506
aS'staircase 0 updated from 7.215437 to 0.001000 after response 1 at 183.342306'
p1507
aa(lp1508
S'trial 15 started at 183.834156521'
p1509
aS'trial 15 phase 6 started at 187.525270227'
p1510
aS'trial 15 event l at 188.892075873'
p1511
aS'staircase 2 updated from 4.183137 to 4.455628 after response 0 at 188.892091'
p1512
aa(lp1513
S'trial 16 started at 190.934744798'
p1514
aS'trial 16 phase 6 started at 194.124906741'
p1515
aS'trial 16 event j at 195.991608473'
p1516
aS'staircase 3 updated from 4.528407 to 4.800898 after response 0 at 195.991625'
p1517
aa(lp1518
S'trial 17 started at 197.5373197'
p1519
aS'trial 17 phase 6 started at 200.732879475'
p1520
aS'trial 17 event j at 201.657956698'
p1521
aS'staircase 3 updated from 4.800898 to 4.800898 after response 1 at 201.657972'
p1522
aa(lp1523
S'trial 18 started at 204.15098134'
p1524
aS'trial 18 phase 6 started at 207.34086903'
p1525
aS'trial 18 event l at 208.299263193'
p1526
aS'staircase 2 updated from 4.455628 to 4.455628 after response 1 at 208.299277'
p1527
aa(lp1528
S'trial 19 started at 210.755336039'
p1529
aS'trial 19 phase 6 started at 214.448814823'
p1530
aS'trial 19 event f at 215.440593493'
p1531
aS'staircase 1 updated from 26.625625 to 32.282868 after response 0 at 215.440611'
p1532
aa(lp1533
S'trial 20 started at 217.860696096'
p1534
aS'trial 20 phase 6 started at 221.056784137'
p1535
aS'trial 20 event f at 222.073583155'
p1536
aS'staircase 0 updated from 0.001000 to 7.831094 after response 0 at 222.073600'
p1537
aa(lp1538
S'trial 21 started at 224.469585384'
p1539
aS'trial 21 phase 6 started at 228.164748461'
p1540
aS'trial 21 event l at 229.873142126'
p1541
aS'staircase 2 updated from 4.455628 to 4.728118 after response 0 at 229.873160'
p1542
aa(lp1543
S'trial 22 started at 231.575878815'
p1544
aS'trial 22 phase 6 started at 235.264381697'
p1545
aS'trial 22 event j at 236.639403542'
p1546
aS'staircase 2 updated from 4.728118 to 4.728118 after response 1 at 236.639418'
p1547
aa(lp1548
S'trial 23 started at 238.685482958'
p1549
aS'trial 23 phase 6 started at 242.380624939'
p1550
aS'trial 23 event f at 244.7555547'
p1551
aS'staircase 0 updated from 7.831094 to 15.661188 after response 0 at 244.755581'
p1552
aa(lp1553
S'trial 24 started at 245.795735103'
p1554
aS'trial 24 phase 6 started at 249.488578429'
p1555
aS'trial 24 event s at 250.388650699'
p1556
aS'staircase 0 updated from 15.661188 to 15.661188 after response 1 at 250.388666'
p1557
aa(lp1558
S'trial 25 started at 252.907970026'
p1559
aS'trial 25 phase 6 started at 256.596525363'
p1560
aS'trial 25 event l at 258.888212378'
p1561
aS'staircase 2 updated from 4.728118 to 4.959735 after response 0 at 258.888229'
p1562
aa(lp1563
S'trial 26 started at 260.01252956'
p1564
aS'trial 26 phase 6 started at 263.204495247'
p1565
aS'trial 26 event s at 264.087892796'
p1566
aS'staircase 1 updated from 32.282868 to 32.282868 after response 1 at 264.087908'
p1567
aa(lp1568
S'trial 27 started at 266.614621811'
p1569
aS'trial 27 phase 6 started at 269.804137178'
p1570
aS'trial 27 event s at 271.962508535'
p1571
aS'staircase 0 updated from 15.661188 to 22.316767 after response 0 at 271.962526'
p1572
aa(lp1573
S'trial 28 started at 273.219070874'
p1574
aS'trial 28 phase 6 started at 276.412109057'
p1575
aS'trial 28 event j at 278.145448947'
p1576
aS'staircase 2 updated from 4.959735 to 4.959735 after response 1 at 278.145463'
p1577
aa(lp1578
S'trial 29 started at 279.823695265'
p1579
aS'trial 29 phase 6 started at 283.020094905'
p1580
aS'trial 29 event j at 285.20348718'
p1581
aS'staircase 3 updated from 4.800898 to 4.800898 after response 1 at 285.203501'
p1582
aa(lp1583
S'trial 30 started at 286.435585661'
p1584
aS'trial 30 phase 6 started at 290.128041554'
p1585
aS'trial 30 event l at 291.9947373'
p1586
aS'staircase 3 updated from 4.800898 to 4.569281 after response 1 at 291.994753'
p1587
aa(lp1588
S'trial 31 started at 293.543341587'
p1589
aS'trial 31 phase 6 started at 296.736042512'
p1590
aS'trial 31 event s at 298.711052098'
p1591
aS'staircase 1 updated from 32.282868 to 37.091524 after response 0 at 298.711069'
p1592
aa(lp1593
S'trial 32 started at 300.150377241'
p1594
aS'trial 32 phase 6 started at 303.344001847'
p1595
aS'trial 32 event j at 305.227321853'
p1596
aS'staircase 3 updated from 4.569281 to 4.569281 after response 1 at 305.227336'
p1597
aa(lp1598
S'trial 33 started at 306.759672207'
p1599
aS'trial 33 phase 6 started at 309.951978573'
p1600
aS'trial 33 event j at 311.452105009'
p1601
aS'staircase 2 updated from 4.959735 to 4.959735 after response 1 at 311.452119'
p1602
aa(lp1603
S'trial 34 started at 313.368573184'
p1604
aS'trial 34 phase 6 started at 317.059908402'
p1605
aS'trial 34 event s at 318.435016343'
p1606
aS'staircase 0 updated from 22.316767 to 22.316767 after response 1 at 318.435031'
p1607
aa(lp1608
S'trial 35 started at 320.47697027'
p1609
aS'trial 35 phase 6 started at 323.66787743'
p1610
aS'trial 35 event l at 325.61790658'
p1611
aS'staircase 3 updated from 4.569281 to 4.569281 after response 1 at 325.617920'
p1612
aa(lp1613
S'trial 36 started at 327.115580985'
p1614
aS'trial 36 phase 6 started at 330.309189627'
p1615
aS'trial 36 event s at 331.475912028'
p1616
aS'staircase 1 updated from 37.091524 to 37.091524 after response 1 at 331.475927'
p1617
aa(lp1618
S'trial 37 started at 333.725837549'
p1619
aS'trial 37 phase 6 started at 336.917169488'
p1620
aS'trial 37 event s at 337.683910135'
p1621
aS'staircase 1 updated from 37.091524 to 37.091524 after response 1 at 337.683923'
p1622
aa(lp1623
S'trial 38 started at 340.332793664'
p1624
aS'trial 38 phase 6 started at 344.025118988'
p1625
aS'trial 38 event l at 345.875185342'
p1626
aS'staircase 3 updated from 4.569281 to 4.337664 after response 1 at 345.875202'
p1627
aa(lp1628
S'trial 39 started at 347.44523499'
p1629
aS'trial 39 phase 6 started at 350.641405135'
p1630
aS'trial 39 event s at 352.049812342'
p1631
aS'staircase 1 updated from 37.091524 to 33.004166 after response 1 at 352.049827'
p1632
aa(lp1633
S'trial 40 started at 354.05758523'
p1634
aS'trial 40 phase 6 started at 357.749362617'
p1635
aS'trial 40 event s at 358.649483352'
p1636
aS'staircase 0 updated from 22.316767 to 22.316767 after response 1 at 358.649496'
p1637
aa(lp1638
S'trial 41 started at 361.16795084'
p1639
aS'trial 41 phase 6 started at 364.357341339'
p1640
aS'trial 41 event s at 365.440782791'
p1641
aS'staircase 1 updated from 33.004166 to 33.004166 after response 1 at 365.440797'
p1642
aa(lp1643
S'trial 42 started at 367.773795402'
p1644
aS'trial 42 phase 6 started at 370.965344862'
p1645
aS'trial 42 event l at 372.715398245'
p1646
aS'staircase 2 updated from 4.959735 to 5.156609 after response 0 at 372.715426'
p1647
aa(lp1648
S'trial 43 started at 374.383934225'
p1649
aS'trial 43 phase 6 started at 377.573315031'
p1650
aS'trial 43 event j at 378.840065513'
p1651
aS'staircase 3 updated from 4.337664 to 4.337664 after response 1 at 378.840080'
p1652
aa(lp1653
S'trial 44 started at 380.992850881'
p1654
aS'trial 44 phase 6 started at 384.181294037'
p1655
aS'trial 44 event s at 386.414627798'
p1656
aS'staircase 0 updated from 22.316767 to 16.659524 after response 1 at 386.414644'
p1657
aa(lp1658
S'trial 45 started at 387.622777571'
p1659
aS'trial 45 phase 6 started at 390.814227536'
p1660
aS'trial 45 event f at 392.314307503'
p1661
aS'staircase 1 updated from 33.004166 to 33.004166 after response 1 at 392.314321'
p1662
aa(lp1663
S'trial 46 started at 394.250470892'
p1664
aS'trial 46 phase 6 started at 397.938836077'
p1665
aS'trial 46 event l at 400.072222151'
p1666
aS'staircase 3 updated from 4.337664 to 4.569281 after response 0 at 400.072241'
p1667
aa(lp1668
S'trial 47 started at 401.380825925'
p1669
aS'trial 47 phase 6 started at 404.571825738'
p1670
aS'trial 47 event j at 406.321836642'
p1671
aS'staircase 2 updated from 5.156609 to 5.156609 after response 1 at 406.321851'
p1672
aa(lp1673
S'trial 48 started at 408.009592027'
p1674
aS'trial 48 phase 6 started at 411.704773634'
p1675
aS'trial 48 event j at 413.113153187'
p1676
aS'staircase 3 updated from 4.569281 to 4.569281 after response 1 at 413.113169'
p1677
aa(lp1678
S'trial 49 started at 415.138697524'
p1679
aS'trial 49 phase 6 started at 418.829386451'
p1680
aS'trial 49 event l at 420.529465562'
p1681
aS'staircase 3 updated from 4.569281 to 4.569281 after response 1 at 420.529479'
p1682
aa(lp1683
S'trial 50 started at 422.263819506'
p1684
aS'trial 50 phase 6 started at 425.953989859'
p1685
aS'trial 50 event f at 427.62907314'
p1686
aS'staircase 1 updated from 33.004166 to 28.916808 after response 1 at 427.629089'
p1687
aa(lp1688
S'trial 51 started at 429.396155036'
p1689
aS'trial 51 phase 6 started at 432.58697781'
p1690
aS'trial 51 event l at 434.770328178'
p1691
aS'staircase 3 updated from 4.569281 to 4.766155 after response 0 at 434.770345'
p1692
aa(lp1693
S'trial 52 started at 436.022063999'
p1694
aS'trial 52 phase 6 started at 439.211605594'
p1695
aS'trial 52 event j at 440.128309536'
p1696
aS'staircase 2 updated from 5.156609 to 5.156609 after response 1 at 440.128323'
p1697
aa(lp1698
S'trial 53 started at 442.650208327'
p1699
aS'trial 53 phase 6 started at 446.34457031'
p1700
aS'trial 53 event f at 447.652992484'
p1701
aS'staircase 0 updated from 16.659524 to 16.659524 after response 1 at 447.653005'
p1702
aa(lp1703
S'trial 54 started at 449.780953073'
p1704
aS'trial 54 phase 6 started at 453.477502241'
p1705
aS'trial 54 event f at 455.919154547'
p1706
aS'staircase 1 updated from 28.916808 to 28.916808 after response 1 at 455.919168'
p1707
aa(lp1708
S'trial 55 started at 456.920023491'
p1709
aS'trial 55 phase 6 started at 460.610454414'
p1710
aS'trial 55 event s at 462.285505195'
p1711
aS'staircase 1 updated from 28.916808 to 28.916808 after response 1 at 462.285519'
p1712
aa(lp1713
S'trial 56 started at 464.047582679'
p1714
aS'trial 56 phase 6 started at 467.243433242'
p1715
aS'trial 56 event s at 468.143521191'
p1716
aS'staircase 1 updated from 28.916808 to 24.829450 after response 1 at 468.143536'
p1717
aa(lp1718
S'trial 57 started at 470.676459109'
p1719
aS'trial 57 phase 6 started at 473.86805789'
p1720
aS'trial 57 event j at 475.009794153'
p1721
aS'staircase 2 updated from 5.156609 to 4.989266 after response 1 at 475.009811'
p1722
aa(lp1723
S'trial 58 started at 477.31214284'
p1724
aS'trial 58 phase 6 started at 480.501034152'
p1725
aS'trial 58 event l at 481.417810791'
p1726
aS'staircase 2 updated from 4.989266 to 5.156609 after response 0 at 481.417827'
p1727
aa(lp1728
S'trial 59 started at 483.936767202'
p1729
aS'trial 59 phase 6 started at 487.625646113'
p1730
aS'trial 59 event s at 488.442433443'
p1731
aS'staircase 0 updated from 16.659524 to 16.659524 after response 1 at 488.442447'
p1732
aa(lp1733
S'trial 60 started at 491.062835102'
p1734
aS'trial 60 phase 6 started at 494.258633494'
p1735
aS'trial 60 event f at 495.158698636'
p1736
aS'staircase 0 updated from 16.659524 to 11.002282 after response 1 at 495.158714'
p1737
aa(lp1738
S'trial 61 started at 497.694458913'
p1739
aS'trial 61 phase 6 started at 500.883286935'
p1740
aS'trial 61 event s at 501.675086987'
p1741
aS'staircase 0 updated from 11.002282 to 11.002282 after response 1 at 501.675100'
p1742
aa(lp1743
S'trial 62 started at 504.3206618'
p1744
aS'trial 62 phase 6 started at 508.016271893'
p1745
aS'trial 62 event l at 508.933014321'
p1746
aS'staircase 2 updated from 5.156609 to 5.156609 after response 1 at 508.933028'
p1747
aa(lp1748
S'trial 63 started at 511.455276598'
p1749
aS'trial 63 phase 6 started at 515.149166193'
p1750
aS'trial 63 event j at 515.999238819'
p1751
aS'staircase 2 updated from 5.156609 to 5.156609 after response 1 at 515.999253'
p1752
aa(lp1753
S'trial 64 started at 518.589727756'
p1754
aS'trial 64 phase 6 started at 522.282148014'
p1755
aS'trial 64 event s at 523.873840303'
p1756
aS'staircase 1 updated from 24.829450 to 28.916808 after response 0 at 523.873867'
p1757
aa(lp1758
S'trial 65 started at 525.721243377'
p1759
aS'trial 65 phase 6 started at 528.915064123'
p1760
aS'trial 65 event j at 529.815172884'
p1761
aS'staircase 2 updated from 5.156609 to 5.014368 after response 1 at 529.815189'
p1762
aa(lp1763
S'trial 66 started at 532.353348129'
p1764
aS'trial 66 phase 6 started at 536.048041953'
p1765
aS'trial 66 event l at 537.648100111'
p1766
aS'staircase 3 updated from 4.766155 to 4.766155 after response 1 at 537.648116'
p1767
aa(lp1768
S'trial 67 started at 539.49795379'
p1769
aS'trial 67 phase 6 started at 543.189309534'
p1770
aS'trial 67 event j at 545.064388539'
p1771
aS'staircase 3 updated from 4.766155 to 4.766155 after response 1 at 545.064403'
p1772
aa(lp1773
S'trial 68 started at 546.631674842'
p1774
aS'trial 68 phase 6 started at 549.822277244'
p1775
aS'trial 68 event s at 552.322286224'
p1776
aS'staircase 0 updated from 11.002282 to 11.002282 after response 1 at 552.322299'
p1777
aa(lp1778
S'trial 69 started at 553.26184414'
p1779
aS'trial 69 phase 6 started at 556.955233408'
p1780
aS'trial 69 event j at 558.805267832'
p1781
aS'staircase 2 updated from 5.014368 to 5.014368 after response 1 at 558.805281'
p1782
aa(lp1783
S'trial 70 started at 560.392857153'
p1784
aS'trial 70 phase 6 started at 563.588235328'
p1785
aS'trial 70 event s at 564.546610105'
p1786
aS'staircase 1 updated from 28.916808 to 33.004166 after response 0 at 564.546625'
p1787
aa(lp1788
S'trial 71 started at 567.027928232'
p1789
aS'trial 71 phase 6 started at 570.721145877'
p1790
aS'trial 71 event f at 573.204513207'
p1791
aS'staircase 0 updated from 11.002282 to 5.345039 after response 1 at 573.204539'
p1792
aa(lp1793
S'trial 72 started at 574.161783559'
p1794
aS'trial 72 phase 6 started at 577.354128412'
p1795
aS'trial 72 event f at 579.654135396'
p1796
aa(lp1797
S'trial 73 started at 580.800781993'
p1798
aS'trial 73 phase 6 started at 584.495409962'
p1799
aS'trial 73 event j at 586.137120425'
p1800
aS'staircase 2 updated from 5.014368 to 5.014368 after response 1 at 586.137134'
p1801
aa(lp1802
S'trial 74 started at 587.936959921'
p1803
aS'trial 74 phase 6 started at 591.12837425'
p1804
aS'trial 74 event j at 592.695122594'
p1805
aS'staircase 2 updated from 5.014368 to 4.872126 after response 1 at 592.695139'
p1806
aa(lp1807
S'trial 75 started at 594.569678465'
p1808
aS'trial 75 phase 6 started at 598.261328989'
p1809
aS'trial 75 event l at 599.603078366'
p1810
aS'staircase 3 updated from 4.766155 to 4.933499 after response 0 at 599.603097'
p1811
aa(lp1812
S'trial 76 started at 601.705373742'
p1813
aS'trial 76 phase 6 started at 605.394288858'
p1814
aS'trial 76 event j at 606.552686728'
p1815
aS'staircase 2 updated from 4.872126 to 4.872126 after response 1 at 606.552702'
p1816
aa(lp1817
S'trial 77 started at 608.832270673'
p1818
aS'trial 77 phase 6 started at 612.527248728'
p1819
aS'trial 77 event j at 614.352290173'
p1820
aS'staircase 3 updated from 4.933499 to 4.933499 after response 1 at 614.352306'
p1821
aa(lp1822
S'trial 78 started at 615.975010156'
p1823
aS'trial 78 phase 6 started at 619.168540399'
p1824
aS'trial 78 event l at 620.635284609'
p1825
aS'staircase 3 updated from 4.933499 to 4.933499 after response 1 at 620.635298'
p1826
aa(lp1827
S'trial 79 started at 622.609213432'
p1828
aS'trial 79 phase 6 started at 626.301500269'
p1829
aS'trial 79 event s at 627.39322691'
p1830
aS'staircase 1 updated from 33.004166 to 33.004166 after response 1 at 627.393242'
p1831
aa(lp1832
S'trial 80 started at 629.742874615'
p1833
aS'trial 80 phase 6 started at 633.434419941'
p1834
aa(lp1835
S'trial 81 started at 636.885471555'
p1836
aS'trial 81 phase 6 started at 640.575726294'
p1837
aS'trial 81 event j at 641.942458103'
p1838
aS'staircase 3 updated from 4.933499 to 4.791257 after response 1 at 641.942473'
p1839
aa(lp1840
S'trial 82 started at 644.024094672'
p1841
aS'trial 82 phase 6 started at 647.217017395'
p1842
aS'trial 82 event f at 649.125431871'
p1843
aS'staircase 1 updated from 33.004166 to 33.004166 after response 1 at 649.125446'
p1844
aa(lp1845
S'trial 83 started at 650.669501854'
p1846
aS'trial 83 phase 6 started at 654.358278704'
p1847
aS'trial 83 event s at 655.291778528'
p1848
aS'staircase 1 updated from 33.004166 to 29.529912 after response 1 at 655.291794'
p1849
aa(lp1850
S'trial 84 started at 657.809053213'
p1851
aS'trial 84 phase 6 started at 661.499592183'
p1852
aS'trial 84 event s at 663.058003167'
p1853
aS'staircase 1 updated from 29.529912 to 29.529912 after response 1 at 663.058016'
p1854
aa(lp1855
S'trial 85 started at 664.950495837'
p1856
aS'trial 85 phase 6 started at 668.640916497'
p1857
aS'trial 85 event f at 670.624236645'
p1858
aS'staircase 1 updated from 29.529912 to 29.529912 after response 1 at 670.624252'
p1859
aa(lp1860
S'trial 86 started at 672.095847'
p1861
aS'trial 86 phase 6 started at 675.790490078'
p1862
aS'trial 86 event l at 678.040513384'
p1863
aS'staircase 2 updated from 4.872126 to 5.014368 after response 0 at 678.040530'
p1864
aa(lp1865
S'trial 87 started at 679.238830802'
p1866
aS'trial 87 phase 6 started at 682.931757659'
p1867
aS'trial 87 event f at 684.440151894'
p1868
aS'staircase 0 updated from 5.345039 to 11.002282 after response 0 at 684.440169'
p1869
aa(lp1870
S'trial 88 started at 686.387580769'
p1871
aS'trial 88 phase 6 started at 690.081382841'
p1872
aS'trial 88 event l at 691.389769949'
p1873
aS'staircase 2 updated from 5.014368 to 5.135273 after response 0 at 691.389795'
p1874
aa(lp1875
S'trial 89 started at 693.532933927'
p1876
aS'trial 89 phase 6 started at 697.222658975'
p1877
aS'trial 89 event s at 698.331099964'
p1878
aS'staircase 1 updated from 29.529912 to 26.055658 after response 1 at 698.331116'
p1879
aa(lp1880
S'trial 90 started at 700.673446883'
p1881
aS'trial 90 phase 6 started at 703.863972883'
p1882
aS'trial 90 event l at 705.588997649'
p1883
aS'staircase 2 updated from 5.135273 to 5.256179 after response 0 at 705.589013'
p1884
aa(lp1885
S'trial 91 started at 707.317148962'
p1886
aS'trial 91 phase 6 started at 710.513601628'
p1887
aS'trial 91 event f at 712.655295129'
p1888
aS'staircase 0 updated from 11.002282 to 11.002282 after response 1 at 712.655311'
p1889
aa(lp1890
S'trial 92 started at 713.96706479'
p1891
aS'trial 92 phase 6 started at 717.16326658'
p1892
aS'trial 92 event l at 719.054986665'
p1893
aS'staircase 3 updated from 4.791257 to 4.791257 after response 1 at 719.055007'
p1894
aa(lp1895
S'trial 93 started at 720.617539103'
p1896
aS'trial 93 phase 6 started at 723.812894471'
p1897
aS'trial 93 event f at 725.304624249'
p1898
aS'staircase 1 updated from 26.055658 to 26.055658 after response 1 at 725.304638'
p1899
aa(lp1900
S'trial 94 started at 727.265432241'
p1901
aS'trial 94 phase 6 started at 730.454190703'
p1902
aS'trial 94 event j at 732.220987512'
p1903
aS'staircase 3 updated from 4.791257 to 4.791257 after response 1 at 732.221002'
p1904
aa(lp1905
S'trial 95 started at 733.911001923'
p1906
aS'trial 95 phase 6 started at 737.103869339'
p1907
aS'trial 95 event l at 739.070532727'
p1908
aS'staircase 3 updated from 4.791257 to 4.649015 after response 1 at 739.070550'
p1909
aa(lp1910
S'trial 96 started at 740.556377175'
p1911
aS'trial 96 phase 6 started at 743.745151317'
p1912
aS'trial 96 event f at 745.703505568'
p1913
aS'staircase 0 updated from 11.002282 to 11.002282 after response 1 at 745.703520'
p1914
aa(lp1915
S'trial 97 started at 747.19884939'
p1916
aS'trial 97 phase 6 started at 750.894757969'
p1917
aS'trial 97 event s at 752.969824714'
p1918
aS'staircase 0 updated from 11.002282 to 6.193625 after response 1 at 752.969843'
p1919
aa(lp1920
S'trial 98 started at 754.34927367'
p1921
aS'trial 98 phase 6 started at 757.544396978'
p1922
aS'trial 98 event f at 759.52778013'
p1923
aS'staircase 1 updated from 26.055658 to 26.055658 after response 1 at 759.527805'
p1924
aa(lp1925
S'trial 99 started at 760.999255068'
p1926
aS'trial 99 phase 6 started at 764.194026294'
p1927
aS'trial 99 event f at 765.660781622'
p1928
aS'staircase 0 updated from 6.193625 to 11.002282 after response 0 at 765.660808'
p1929
aasS'trialResponses'
p1930
(lp1931
s.