(dp0
S'parameterArray'
p1
(lp2
(dp3
S'reaction_time'
p4
F1.5250977490977675
sS'trial_start'
p5
F58.722135698411876
sS'task'
p6
I2
sS'trial_orientation'
p7
F5.25617864632237
sS'base_color_lum'
p8
cnumpy.core.multiarray
scalar
p9
(cnumpy
dtype
p10
(S'i4'
p11
I0
I1
tp12
Rp13
(I3
S'<'
p14
NNNI-1
I-1
I0
tp15
bS'7\x00\x00\x00'
p16
tp17
Rp18
sS'button'
p19
S'l'
p20
sS'trial_cue'
p21
S'green135'
p22
sS'trial_color'
p23
F11.002281718750002
sS'trial_stimulus_label'
p24
S'red45'
p25
sS'trial_stimulus'
p26
I0
sS'base_ori'
p27
g9
(g13
S'-\x00\x00\x00'
p28
tp29
Rp30
sS'trial_end'
p31
F65.5687265605302
sS'base_color_b'
p32
g9
(g13
S'K\x00\x00\x00'
p33
tp34
Rp35
sS'base_color_a'
p36
g9
(g13
S'P\x00\x00\x00'
p37
tp38
Rp39
sS'correct_answer'
p40
I1
sS'trial_position_y'
p41
I0
sS'trial_position_x'
p42
I0
sS'response'
p43
I1
sS'trial_direction'
p44
F1.0
sa(dp45
g4
F1.9833580646009068
sg5
F65.82887956655395
sg6
I1
sg7
F-5.25617864632237
sg8
g9
(g13
S'7\x00\x00\x00'
p46
tp47
Rp48
sg19
S'f'
p49
sg21
S'green45'
p50
sg23
F-26.055657794511724
sg24
g50
sg26
I2
sg27
g9
(g13
S'-\x00\x00\x00'
p51
tp52
Rp53
sg31
F72.16838702228415
sg32
g9
(g13
S'K\x00\x00\x00'
p54
tp55
Rp56
sg36
g9
(g13
S'\xb0\xff\xff\xff'
p57
tp58
Rp59
sg40
I1
sg41
I0
sg42
I0
sg43
I1
sg44
F1.0
sa(dp60
g4
F1.4750388074244256
sg5
F72.43535787644578
sg6
I2
sg7
F-5.25617864632237
sg8
g9
(g13
S'7\x00\x00\x00'
p61
tp62
Rp63
sg19
S'j'
p64
sg21
S'red135'
p65
sg23
F-22.581403600263677
sg24
g50
sg26
I2
sg27
g9
(g13
S'-\x00\x00\x00'
p66
tp67
Rp68
sg31
F79.2763450746279
sg32
g9
(g13
S'K\x00\x00\x00'
p69
tp70
Rp71
sg36
g9
(g13
S'\xb0\xff\xff\xff'
p72
tp73
Rp74
sg40
I1
sg41
I0
sg42
I0
sg43
I-1
sg44
F-1.0
sa(dp75
g4
F1.9833329769753618
sg5
F79.53323298281975
sg6
I2
sg7
F4.6490151132951025
sg8
g9
(g13
S'7\x00\x00\x00'
p76
tp77
Rp78
sg19
S'l'
p79
sg21
g65
sg23
F11.002281718750002
sg24
g65
sg26
I1
sg27
g9
(g13
S'\x87\x00\x00\x00'
p80
tp81
Rp82
sg31
F86.37597061326596
sg32
g9
(g13
S'K\x00\x00\x00'
p83
tp84
Rp85
sg36
g9
(g13
S'P\x00\x00\x00'
p86
tp87
Rp88
sg40
I1
sg41
I0
sg42
I0
sg43
I1
sg44
F1.0
sa(dp89
g4
F2.141680671549693
sg5
F86.63100260711872
sg6
I2
sg7
F4.6490151132951025
sg8
g9
(g13
S'7\x00\x00\x00'
p90
tp91
Rp92
sg19
S'l'
p93
sg21
g65
sg23
F11.002281718750002
sg24
g65
sg26
I1
sg27
g9
(g13
S'\x87\x00\x00\x00'
p94
tp95
Rp96
sg31
F93.47555367398309
sg32
g9
(g13
S'K\x00\x00\x00'
p97
tp98
Rp99
sg36
g9
(g13
S'P\x00\x00\x00'
p100
tp101
Rp102
sg40
I1
sg41
I0
sg42
I0
sg43
I1
sg44
F1.0
sa(dp103
g4
F1.475039377597568
sg5
F93.731801277474
sg6
I2
sg7
F-4.6490151132951025
sg8
g9
(g13
S'7\x00\x00\x00'
p104
tp105
Rp106
sg19
S'j'
p107
sg21
g25
sg23
F11.002281718750002
sg24
g65
sg26
I1
sg27
g9
(g13
S'\x87\x00\x00\x00'
p108
tp109
Rp110
sg31
F100.07518021042415
sg32
g9
(g13
S'K\x00\x00\x00'
p111
tp112
Rp113
sg36
g9
(g13
S'P\x00\x00\x00'
p114
tp115
Rp116
sg40
I1
sg41
I0
sg42
I0
sg43
I-1
sg44
F-1.0
sa(dp117
g4
F1.7500741938092688
sg5
F100.33479126665407
sg6
I1
sg7
F4.506773356158931
sg8
g9
(g13
S'7\x00\x00\x00'
p118
tp119
Rp120
sg19
S'f'
p121
sg21
g65
sg23
F11.002281718750002
sg24
g65
sg26
I1
sg27
g9
(g13
S'\x87\x00\x00\x00'
p122
tp123
Rp124
sg31
F107.17484965240874
sg32
g9
(g13
S'K\x00\x00\x00'
p125
tp126
Rp127
sg36
g9
(g13
S'P\x00\x00\x00'
p128
tp129
Rp130
sg40
I1
sg41
I0
sg42
I0
sg43
I1
sg44
F1.0
sa(dp131
g4
F1.9833700382478128
sg5
F107.4324306063354
sg6
I1
sg7
F4.506773356158931
sg8
g9
(g13
S'7\x00\x00\x00'
p132
tp133
Rp134
sg19
S's'
p135
sg21
g22
sg23
F-22.581403600263677
sg24
g22
sg26
I3
sg27
g9
(g13
S'\x87\x00\x00\x00'
p136
tp137
Rp138
sg31
F113.77443428110564
sg32
g9
(g13
S'K\x00\x00\x00'
p139
tp140
Rp141
sg36
g9
(g13
S'\xb0\xff\xff\xff'
p142
tp143
Rp144
sg40
I1
sg41
I0
sg42
I0
sg43
I-1
sg44
F-1.0
sa(dp145
g4
F1.091737475071568
sg5
F114.03477230839053
sg6
I2
sg7
F4.506773356158931
sg8
g9
(g13
S'7\x00\x00\x00'
p146
tp147
Rp148
sg19
S'j'
p149
sg21
g22
sg23
F-22.581403600263677
sg24
g22
sg26
I3
sg27
g9
(g13
S'\x87\x00\x00\x00'
p150
tp151
Rp152
sg31
F120.37408875603796
sg32
g9
(g13
S'K\x00\x00\x00'
p153
tp154
Rp155
sg36
g9
(g13
S'\xb0\xff\xff\xff'
p156
tp157
Rp158
sg40
I0
sg41
I0
sg42
I0
sg43
I-1
sg44
F1.0
sa(dp159
g4
F1.791731345707376
sg5
F120.6311383083812
sg6
I2
sg7
F-5.25617864632237
sg8
g9
(g13
S'7\x00\x00\x00'
p160
tp161
Rp162
sg19
S'j'
p163
sg21
g65
sg23
F-22.581403600263677
sg24
g50
sg26
I2
sg27
g9
(g13
S'-\x00\x00\x00'
p164
tp165
Rp166
sg31
F127.4737111587201
sg32
g9
(g13
S'K\x00\x00\x00'
p167
tp168
Rp169
sg36
g9
(g13
S'\xb0\xff\xff\xff'
p170
tp171
Rp172
sg40
I1
sg41
I0
sg42
I0
sg43
I-1
sg44
F-1.0
sa(dp173
g5
F127.72918332642075
sg6
I1
sg7
F-5.135273152756624
sg8
g9
(g13
S'7\x00\x00\x00'
p174
tp175
Rp176
sg21
g50
sg23
F11.002281718750002
sg24
g25
sg26
I0
sg27
g9
(g13
S'-\x00\x00\x00'
p177
tp178
Rp179
sg31
F134.573253452043
sg32
g9
(g13
S'K\x00\x00\x00'
p180
tp181
Rp182
sg36
g9
(g13
S'P\x00\x00\x00'
p183
tp184
Rp185
sg41
I0
sg42
I0
sa(dp186
g4
F1.7083950902342622
sg5
F134.83629609673517
sg6
I1
sg7
F4.6490151132951025
sg8
g9
(g13
S'7\x00\x00\x00'
p187
tp188
Rp189
sg19
S'f'
p190
sg21
g22
sg23
F11.002281718750002
sg24
g65
sg26
I1
sg27
g9
(g13
S'\x87\x00\x00\x00'
p191
tp192
Rp193
sg31
F141.6812690918996
sg32
g9
(g13
S'K\x00\x00\x00'
p194
tp195
Rp196
sg36
g9
(g13
S'P\x00\x00\x00'
p197
tp198
Rp199
sg40
I1
sg41
I0
sg42
I0
sg43
I1
sg44
F1.0
sa(dp200
g4
F1.3250783632029197
sg5
F141.9396579815002
sg6
I1
sg7
F-4.6490151132951025
sg8
g9
(g13
S'7\x00\x00\x00'
p201
tp202
Rp203
sg19
S's'
p204
sg21
g65
sg23
F11.002281718750002
sg24
g65
sg26
I1
sg27
g9
(g13
S'\x87\x00\x00\x00'
p205
tp206
Rp207
sg31
F148.78090774452357
sg32
g9
(g13
S'K\x00\x00\x00'
p208
tp209
Rp210
sg36
g9
(g13
S'P\x00\x00\x00'
p211
tp212
Rp213
sg40
I1
sg41
I0
sg42
I0
sg43
I-1
sg44
F-1.0
sa(dp214
g4
F1.0917300628170779
sg5
F149.04178601108288
sg6
I2
sg7
F-4.6490151132951025
sg8
g9
(g13
S'7\x00\x00\x00'
p215
tp216
Rp217
sg19
S'j'
p218
sg21
g22
sg23
F-22.581403600263677
sg24
g22
sg26
I3
sg27
g9
(g13
S'\x87\x00\x00\x00'
p219
tp220
Rp221
sg31
F155.38050121090782
sg32
g9
(g13
S'K\x00\x00\x00'
p222
tp223
Rp224
sg36
g9
(g13
S'\xb0\xff\xff\xff'
p225
tp226
Rp227
sg40
I1
sg41
I0
sg42
I0
sg43
I-1
sg44
F-1.0
sa(dp228
g4
F1.7917099642072571
sg5
F155.6416990596408
sg6
I1
sg7
F-4.6490151132951025
sg8
g9
(g13
S'7\x00\x00\x00'
p229
tp230
Rp231
sg19
S'f'
p232
sg21
g22
sg23
F-22.581403600263677
sg24
g22
sg26
I3
sg27
g9
(g13
S'\x87\x00\x00\x00'
p233
tp234
Rp235
sg31
F161.98849874775624
sg32
g9
(g13
S'K\x00\x00\x00'
p236
tp237
Rp238
sg36
g9
(g13
S'\xb0\xff\xff\xff'
p239
tp240
Rp241
sg40
I1
sg41
I0
sg42
I0
sg43
I1
sg44
F1.0
sa(dp242
g4
F1.4083464829564036
sg5
F162.24973479810797
sg6
I2
sg7
F5.135273152756624
sg8
g9
(g13
S'7\x00\x00\x00'
p243
tp244
Rp245
sg19
S'l'
p246
sg21
g65
sg23
F6.914923843164065
sg24
g25
sg26
I0
sg27
g9
(g13
S'-\x00\x00\x00'
p247
tp248
Rp249
sg31
F168.59647290749854
sg32
g9
(g13
S'K\x00\x00\x00'
p250
tp251
Rp252
sg36
g9
(g13
S'P\x00\x00\x00'
p253
tp254
Rp255
sg40
I1
sg41
I0
sg42
I0
sg43
I1
sg44
F1.0
sa(dp256
g4
F1.6667162717494648
sg5
F168.86163317610772
sg6
I2
sg7
F-4.6490151132951025
sg8
g9
(g13
S'7\x00\x00\x00'
p257
tp258
Rp259
sg19
S'j'
p260
sg21
g65
sg23
F6.914923843164065
sg24
g65
sg26
I1
sg27
g9
(g13
S'\x87\x00\x00\x00'
p261
tp262
Rp263
sg31
F175.70441699059666
sg32
g9
(g13
S'K\x00\x00\x00'
p264
tp265
Rp266
sg36
g9
(g13
S'P\x00\x00\x00'
p267
tp268
Rp269
sg40
I1
sg41
I0
sg42
I0
sg43
I-1
sg44
F-1.0
sa(dp270
g4
F1.3167301697249059
sg5
F175.96544521275428
sg6
I1
sg7
F4.6490151132951025
sg8
g9
(g13
S'7\x00\x00\x00'
p271
tp272
Rp273
sg19
S'f'
p274
sg21
g22
sg23
F-22.581403600263677
sg24
g22
sg26
I3
sg27
g9
(g13
S'\x87\x00\x00\x00'
p275
tp276
Rp277
sg31
F182.80405222218178
sg32
g9
(g13
S'K\x00\x00\x00'
p278
tp279
Rp280
sg36
g9
(g13
S'\xb0\xff\xff\xff'
p281
tp282
Rp283
sg40
I1
sg41
I0
sg42
I0
sg43
I1
sg44
F1.0
sa(dp284
g4
F1.1584306548029417
sg5
F183.0685576466676
sg6
I2
sg7
F5.135273152756624
sg8
g9
(g13
S'7\x00\x00\x00'
p285
tp286
Rp287
sg19
S'l'
p288
sg21
g50
sg23
F-19.10714940601563
sg24
g50
sg26
I2
sg27
g9
(g13
S'-\x00\x00\x00'
p289
tp290
Rp291
sg31
F189.41201754423673
sg32
g9
(g13
S'K\x00\x00\x00'
p292
tp293
Rp294
sg36
g9
(g13
S'\xb0\xff\xff\xff'
p295
tp296
Rp297
sg40
I1
sg41
I0
sg42
I0
sg43
I1
sg44
F1.0
sa(dp298
g4
F2.191683451143035
sg5
F189.67578003281233
sg6
I1
sg7
F4.6490151132951025
sg8
g9
(g13
S'7\x00\x00\x00'
p299
tp300
Rp301
sg19
S's'
p302
sg21
g65
sg23
F6.914923843164065
sg24
g65
sg26
I1
sg27
g9
(g13
S'\x87\x00\x00\x00'
p303
tp304
Rp305
sg31
F196.02000567322466
sg32
g9
(g13
S'K\x00\x00\x00'
p306
tp307
Rp308
sg36
g9
(g13
S'P\x00\x00\x00'
p309
tp310
Rp311
sg40
I0
sg41
I0
sg42
I0
sg43
I-1
sg44
F1.0
sa(dp312
g4
F2.658340424863127
sg5
F196.28054041032738
sg6
I1
sg7
F-5.135273152756624
sg8
g9
(g13
S'7\x00\x00\x00'
p313
tp314
Rp315
sg19
S's'
p316
sg21
g50
sg23
F-19.10714940601563
sg24
g50
sg26
I2
sg27
g9
(g13
S'-\x00\x00\x00'
p317
tp318
Rp319
sg31
F202.61959885452234
sg32
g9
(g13
S'K\x00\x00\x00'
p320
tp321
Rp322
sg36
g9
(g13
S'\xb0\xff\xff\xff'
p323
tp324
Rp325
sg40
I0
sg41
I0
sg42
I0
sg43
I-1
sg44
F1.0
sa(dp326
g4
F1.0584034290259297
sg5
F202.88428873009616
sg6
I1
sg7
F-4.6490151132951025
sg8
g9
(g13
S'7\x00\x00\x00'
p327
tp328
Rp329
sg19
S's'
p330
sg21
g22
sg23
F-22.581403600263677
sg24
g22
sg26
I3
sg27
g9
(g13
S'\x87\x00\x00\x00'
p331
tp332
Rp333
sg31
F209.2276086501006
sg32
g9
(g13
S'K\x00\x00\x00'
p334
tp335
Rp336
sg36
g9
(g13
S'\xb0\xff\xff\xff'
p337
tp338
Rp339
sg40
I0
sg41
I0
sg42
I0
sg43
I-1
sg44
F1.0
sa(dp340
g4
F2.358342848103348
sg5
F209.49913518953326
sg6
I1
sg7
F4.6490151132951025
sg8
g9
(g13
S'7\x00\x00\x00'
p341
tp342
Rp343
sg19
S's'
p344
sg21
g25
sg23
F11.002281718750002
sg24
g65
sg26
I1
sg27
g9
(g13
S'\x87\x00\x00\x00'
p345
tp346
Rp347
sg31
F215.8438928017058
sg32
g9
(g13
S'K\x00\x00\x00'
p348
tp349
Rp350
sg36
g9
(g13
S'P\x00\x00\x00'
p351
tp352
Rp353
sg40
I1
sg41
I0
sg42
I0
sg43
I-1
sg44
F-1.0
sa(dp354
g4
F2.391642968836095
sg5
F216.10847776537776
sg6
I1
sg7
F-5.135273152756624
sg8
g9
(g13
S'7\x00\x00\x00'
p355
tp356
Rp357
sg19
S'f'
p358
sg21
g65
sg23
F11.002281718750002
sg24
g25
sg26
I0
sg27
g9
(g13
S'-\x00\x00\x00'
p359
tp360
Rp361
sg31
F222.95188620479894
sg32
g9
(g13
S'K\x00\x00\x00'
p362
tp363
Rp364
sg36
g9
(g13
S'P\x00\x00\x00'
p365
tp366
Rp367
sg40
I1
sg41
I0
sg42
I0
sg43
I1
sg44
F1.0
sa(dp368
g4
F2.2333588485926157
sg5
F223.21920286911336
sg6
I1
sg7
F5.135273152756624
sg8
g9
(g13
S'7\x00\x00\x00'
p369
tp370
Rp371
sg19
S's'
p372
sg21
g25
sg23
F11.002281718750002
sg24
g25
sg26
I0
sg27
g9
(g13
S'-\x00\x00\x00'
p373
tp374
Rp375
sg31
F230.05983342384934
sg32
g9
(g13
S'K\x00\x00\x00'
p376
tp377
Rp378
sg36
g9
(g13
S'P\x00\x00\x00'
p379
tp380
Rp381
sg40
I0
sg41
I0
sg42
I0
sg43
I-1
sg44
F1.0
sa(dp382
g4
F1.1001113263519073
sg5
F230.3245478168792
sg6
I2
sg7
F-4.6490151132951025
sg8
g9
(g13
S'7\x00\x00\x00'
p383
tp384
Rp385
sg19
S'j'
p386
sg21
g22
sg23
F-26.055657794511724
sg24
g22
sg26
I3
sg27
g9
(g13
S'\x87\x00\x00\x00'
p387
tp388
Rp389
sg31
F237.16774557723693
sg32
g9
(g13
S'K\x00\x00\x00'
p390
tp391
Rp392
sg36
g9
(g13
S'\xb0\xff\xff\xff'
p393
tp394
Rp395
sg40
I1
sg41
I0
sg42
I0
sg43
I-1
sg44
F-1.0
sa(dp396
g4
F1.7500539526554348
sg5
F237.4364517540671
sg6
I2
sg7
F4.528109619729356
sg8
g9
(g13
S'7\x00\x00\x00'
p397
tp398
Rp399
sg19
S'l'
p400
sg21
g65
sg23
F-26.055657794511724
sg24
g22
sg26
I3
sg27
g9
(g13
S'\x87\x00\x00\x00'
p401
tp402
Rp403
sg31
F244.27574610749798
sg32
g9
(g13
S'K\x00\x00\x00'
p404
tp405
Rp406
sg36
g9
(g13
S'\xb0\xff\xff\xff'
p407
tp408
Rp409
sg40
I1
sg41
I0
sg42
I0
sg43
I1
sg44
F1.0
sa(dp410
g4
F0.9334294075451908
sg5
F244.54270897923197
sg6
I2
sg7
F5.135273152756624
sg8
g9
(g13
S'7\x00\x00\x00'
p411
tp412
Rp413
sg19
S'l'
p414
sg21
g50
sg23
F-26.055657794511724
sg24
g50
sg26
I2
sg27
g9
(g13
S'-\x00\x00\x00'
p415
tp416
Rp417
sg31
F251.38365227406757
sg32
g9
(g13
S'K\x00\x00\x00'
p418
tp419
Rp420
sg36
g9
(g13
S'\xb0\xff\xff\xff'
p421
tp422
Rp423
sg40
I1
sg41
I0
sg42
I0
sg43
I1
sg44
F1.0
sa(dp424
g4
F0.8834750926871493
sg5
F251.65079703110678
sg6
I2
sg7
F4.528109619729356
sg8
g9
(g13
S'7\x00\x00\x00'
p425
tp426
Rp427
sg19
S'l'
p428
sg21
g22
sg23
F-26.055657794511724
sg24
g22
sg26
I3
sg27
g9
(g13
S'\x87\x00\x00\x00'
p429
tp430
Rp431
sg31
F257.9916392627092
sg32
g9
(g13
S'K\x00\x00\x00'
p432
tp433
Rp434
sg36
g9
(g13
S'\xb0\xff\xff\xff'
p435
tp436
Rp437
sg40
I1
sg41
I0
sg42
I0
sg43
I1
sg44
F1.0
sa(dp438
g4
F2.200062719068228
sg5
F258.2584581656665
sg6
I1
sg7
F-5.014367659190878
sg8
g9
(g13
S'7\x00\x00\x00'
p439
tp440
Rp441
sg19
S's'
p442
sg21
g22
sg23
F-26.055657794511724
sg24
g50
sg26
I2
sg27
g9
(g13
S'-\x00\x00\x00'
p443
tp444
Rp445
sg31
F265.0995938940141
sg32
g9
(g13
S'K\x00\x00\x00'
p446
tp447
Rp448
sg36
g9
(g13
S'\xb0\xff\xff\xff'
p449
tp450
Rp451
sg40
I0
sg41
I0
sg42
I0
sg43
I-1
sg44
F1.0
sa(dp452
g4
F2.191674898545898
sg5
F265.3646538121102
sg6
I1
sg7
F-5.014367659190878
sg8
g9
(g13
S'7\x00\x00\x00'
p453
tp454
Rp455
sg19
S's'
p456
sg21
g25
sg23
F14.476535912998049
sg24
g25
sg26
I0
sg27
g9
(g13
S'-\x00\x00\x00'
p457
tp458
Rp459
sg31
F272.2074832404687
sg32
g9
(g13
S'K\x00\x00\x00'
p460
tp461
Rp462
sg36
g9
(g13
S'P\x00\x00\x00'
p463
tp464
Rp465
sg40
I0
sg41
I0
sg42
I0
sg43
I-1
sg44
F1.0
sa(dp466
g4
F0.9750988181731373
sg5
F272.47803307290815
sg6
I2
sg7
F4.528109619729356
sg8
g9
(g13
S'7\x00\x00\x00'
p467
tp468
Rp469
sg19
S'l'
p470
sg21
g22
sg23
F-29.52991198875977
sg24
g22
sg26
I3
sg27
g9
(g13
S'\x87\x00\x00\x00'
p471
tp472
Rp473
sg31
F279.3238656044341
sg32
g9
(g13
S'K\x00\x00\x00'
p474
tp475
Rp476
sg36
g9
(g13
S'\xb0\xff\xff\xff'
p477
tp478
Rp479
sg40
I1
sg41
I0
sg42
I0
sg43
I1
sg44
F1.0
sa(dp480
g4
F1.1917624201560102
sg5
F279.5939892322749
sg6
I1
sg7
F-5.014367659190878
sg8
g9
(g13
S'7\x00\x00\x00'
p481
tp482
Rp483
sg19
S's'
p484
sg21
g25
sg23
F17.950790107246096
sg24
g25
sg26
I0
sg27
g9
(g13
S'-\x00\x00\x00'
p485
tp486
Rp487
sg31
F285.9401272341893
sg32
g9
(g13
S'K\x00\x00\x00'
p488
tp489
Rp490
sg36
g9
(g13
S'P\x00\x00\x00'
p491
tp492
Rp493
sg40
I1
sg41
I0
sg42
I0
sg43
I-1
sg44
F-1.0
sa(dp494
g4
F1.7584218171141401
sg5
F286.20905007690453
sg6
I2
sg7
F-4.40720412616361
sg8
g9
(g13
S'7\x00\x00\x00'
p495
tp496
Rp497
sg19
S'l'
p498
sg21
g65
sg23
F17.950790107246096
sg24
g65
sg26
I1
sg27
g9
(g13
S'\x87\x00\x00\x00'
p499
tp500
Rp501
sg31
F292.54809312641737
sg32
g9
(g13
S'K\x00\x00\x00'
p502
tp503
Rp504
sg36
g9
(g13
S'P\x00\x00\x00'
p505
tp506
Rp507
sg40
I0
sg41
I0
sg42
I0
sg43
I1
sg44
F-1.0
sa(dp508
g4
F1.841701910507254
sg5
F292.84802798410965
sg6
I2
sg7
F5.014367659190878
sg8
g9
(g13
S'7\x00\x00\x00'
p509
tp510
Rp511
sg19
S'l'
p512
sg21
g50
sg23
F-29.52991198875977
sg24
g50
sg26
I2
sg27
g9
(g13
S'-\x00\x00\x00'
p513
tp514
Rp515
sg31
F299.68934331706987
sg32
g9
(g13
S'K\x00\x00\x00'
p516
tp517
Rp518
sg36
g9
(g13
S'\xb0\xff\xff\xff'
p519
tp520
Rp521
sg40
I1
sg41
I0
sg42
I0
sg43
I1
sg44
F1.0
sa(dp522
g4
F1.291748593452212
sg5
F299.95661066138564
sg6
I1
sg7
F4.528109619729356
sg8
g9
(g13
S'7\x00\x00\x00'
p523
tp524
Rp525
sg19
S's'
p526
sg21
g22
sg23
F-29.52991198875977
sg24
g22
sg26
I3
sg27
g9
(g13
S'\x87\x00\x00\x00'
p527
tp528
Rp529
sg31
F306.79735696131684
sg32
g9
(g13
S'K\x00\x00\x00'
p530
tp531
Rp532
sg36
g9
(g13
S'\xb0\xff\xff\xff'
p533
tp534
Rp535
sg40
I1
sg41
I0
sg42
I0
sg43
I-1
sg44
F-1.0
sa(dp536
g4
F2.0917021243258205
sg5
F307.0667322366062
sg6
I1
sg7
F-5.014367659190878
sg8
g9
(g13
S'7\x00\x00\x00'
p537
tp538
Rp539
sg19
S's'
p540
sg21
g22
sg23
F17.950790107246096
sg24
g25
sg26
I0
sg27
g9
(g13
S'-\x00\x00\x00'
p541
tp542
Rp543
sg31
F313.4135795341972
sg32
g9
(g13
S'K\x00\x00\x00'
p544
tp545
Rp546
sg36
g9
(g13
S'P\x00\x00\x00'
p547
tp548
Rp549
sg40
I1
sg41
I0
sg42
I0
sg43
I-1
sg44
F-1.0
sa(dp550
g4
F1.4083670092004468
sg5
F313.6841957918368
sg6
I2
sg7
F-4.528109619729356
sg8
g9
(g13
S'7\x00\x00\x00'
p551
tp552
Rp553
sg19
S'l'
p554
sg21
g25
sg23
F17.950790107246096
sg24
g65
sg26
I1
sg27
g9
(g13
S'\x87\x00\x00\x00'
p555
tp556
Rp557
sg31
F320.0299628959692
sg32
g9
(g13
S'K\x00\x00\x00'
p558
tp559
Rp560
sg36
g9
(g13
S'P\x00\x00\x00'
p561
tp562
Rp563
sg40
I0
sg41
I0
sg42
I0
sg43
I1
sg44
F-1.0
sa(dp564
g4
F1.708451252314262
sg5
F320.29896955416916
sg6
I2
sg7
F4.6490151132951025
sg8
g9
(g13
S'7\x00\x00\x00'
p565
tp566
Rp567
sg19
S'l'
p568
sg21
g22
sg23
F-29.52991198875977
sg24
g22
sg26
I3
sg27
g9
(g13
S'\x87\x00\x00\x00'
p569
tp570
Rp571
sg31
F326.63795102495715
sg32
g9
(g13
S'K\x00\x00\x00'
p572
tp573
Rp574
sg36
g9
(g13
S'\xb0\xff\xff\xff'
p575
tp576
Rp577
sg40
I1
sg41
I0
sg42
I0
sg43
I1
sg44
F1.0
sa(dp578
g4
F0.7584526064747479
sg5
F326.90991830841085
sg6
I1
sg7
F-4.6490151132951025
sg8
g9
(g13
S'7\x00\x00\x00'
p579
tp580
Rp581
sg19
S's'
p582
sg21
g65
sg23
F17.950790107246096
sg24
g65
sg26
I1
sg27
g9
(g13
S'\x87\x00\x00\x00'
p583
tp584
Rp585
sg31
F333.7541734552942
sg32
g9
(g13
S'K\x00\x00\x00'
p586
tp587
Rp588
sg36
g9
(g13
S'P\x00\x00\x00'
p589
tp590
Rp591
sg40
I1
sg41
I0
sg42
I0
sg43
I-1
sg44
F-1.0
sa(dp592
g4
F2.383338963798451
sg5
F334.02058610972017
sg6
I1
sg7
F5.014367659190878
sg8
g9
(g13
S'7\x00\x00\x00'
p593
tp594
Rp595
sg19
S'f'
p596
sg21
g50
sg23
F-29.52991198875977
sg24
g50
sg26
I2
sg27
g9
(g13
S'-\x00\x00\x00'
p597
tp598
Rp599
sg31
F340.86212694625283
sg32
g9
(g13
S'K\x00\x00\x00'
p600
tp601
Rp602
sg36
g9
(g13
S'\xb0\xff\xff\xff'
p603
tp604
Rp605
sg40
I1
sg41
I0
sg42
I0
sg43
I1
sg44
F1.0
sa(dp606
g4
F0.8667895390281046
sg5
F341.13100702596057
sg6
I2
sg7
F-5.014367659190878
sg8
g9
(g13
S'7\x00\x00\x00'
p607
tp608
Rp609
sg19
S'j'
p610
sg21
g50
sg23
F-29.52991198875977
sg24
g50
sg26
I2
sg27
g9
(g13
S'-\x00\x00\x00'
p611
tp612
Rp613
sg31
F347.9700810073846
sg32
g9
(g13
S'K\x00\x00\x00'
p614
tp615
Rp616
sg36
g9
(g13
S'\xb0\xff\xff\xff'
p617
tp618
Rp619
sg40
I1
sg41
I0
sg42
I0
sg43
I-1
sg44
F-1.0
sa(dp620
g4
F1.5167515512293903
sg5
F348.24105904002863
sg6
I2
sg7
F5.014367659190878
sg8
g9
(g13
S'7\x00\x00\x00'
p621
tp622
Rp623
sg19
S'j'
p624
sg21
g25
sg23
F14.997674042135257
sg24
g25
sg26
I0
sg27
g9
(g13
S'-\x00\x00\x00'
p625
tp626
Rp627
sg31
F354.58637969840856
sg32
g9
(g13
S'K\x00\x00\x00'
p628
tp629
Rp630
sg36
g9
(g13
S'P\x00\x00\x00'
p631
tp632
Rp633
sg40
I0
sg41
I0
sg42
I0
sg43
I-1
sg44
F1.0
sa(dp634
g4
F1.6166875492635882
sg5
F354.85647738336047
sg6
I1
sg7
F4.6490151132951025
sg8
g9
(g13
S'7\x00\x00\x00'
p635
tp636
Rp637
sg19
S's'
p638
sg21
g65
sg23
F14.997674042135257
sg24
g65
sg26
I1
sg27
g9
(g13
S'\x87\x00\x00\x00'
p639
tp640
Rp641
sg31
F361.2026946393744
sg32
g9
(g13
S'K\x00\x00\x00'
p642
tp643
Rp644
sg36
g9
(g13
S'P\x00\x00\x00'
p645
tp646
Rp647
sg40
I1
sg41
I0
sg42
I0
sg43
I-1
sg44
F-1.0
sa(dp648
g4
F1.325076367596921
sg5
F361.47807868677774
sg6
I2
sg7
F4.6490151132951025
sg8
g9
(g13
S'7\x00\x00\x00'
p649
tp650
Rp651
sg19
S'l'
p652
sg21
g50
sg23
F-29.52991198875977
sg24
g22
sg26
I3
sg27
g9
(g13
S'\x87\x00\x00\x00'
p653
tp654
Rp655
sg31
F367.8190104355999
sg32
g9
(g13
S'K\x00\x00\x00'
p656
tp657
Rp658
sg36
g9
(g13
S'\xb0\xff\xff\xff'
p659
tp660
Rp661
sg40
I1
sg41
I0
sg42
I0
sg43
I1
sg44
F1.0
sa(dp662
g4
F1.0667370830778964
sg5
F368.1059228184822
sg6
I1
sg7
F4.6490151132951025
sg8
g9
(g13
S'7\x00\x00\x00'
p663
tp664
Rp665
sg19
S's'
p666
sg21
g50
sg23
F14.997674042135257
sg24
g65
sg26
I1
sg27
g9
(g13
S'\x87\x00\x00\x00'
p667
tp668
Rp669
sg31
F374.9520076517256
sg32
g9
(g13
S'K\x00\x00\x00'
p670
tp671
Rp672
sg36
g9
(g13
S'P\x00\x00\x00'
p673
tp674
Rp675
sg40
I1
sg41
I0
sg42
I0
sg43
I-1
sg44
F-1.0
sa(dp676
g4
F1.2750909782880626
sg5
F375.2370735281329
sg6
I2
sg7
F4.6490151132951025
sg8
g9
(g13
S'7\x00\x00\x00'
p677
tp678
Rp679
sg19
S'l'
p680
sg21
g50
sg23
F14.997674042135257
sg24
g65
sg26
I1
sg27
g9
(g13
S'\x87\x00\x00\x00'
p681
tp682
Rp683
sg31
F382.07656288085855
sg32
g9
(g13
S'K\x00\x00\x00'
p684
tp685
Rp686
sg36
g9
(g13
S'P\x00\x00\x00'
p687
tp688
Rp689
sg40
I1
sg41
I0
sg42
I0
sg43
I1
sg44
F1.0
sa(dp690
g4
F1.8667271050435374
sg5
F382.36468403129766
sg6
I1
sg7
F4.546245443764218
sg8
g9
(g13
S'7\x00\x00\x00'
p691
tp692
Rp693
sg19
S'f'
p694
sg21
g22
sg23
F-29.52991198875977
sg24
g22
sg26
I3
sg27
g9
(g13
S'\x87\x00\x00\x00'
p695
tp696
Rp697
sg31
F389.20951134716233
sg32
g9
(g13
S'K\x00\x00\x00'
p698
tp699
Rp700
sg36
g9
(g13
S'\xb0\xff\xff\xff'
p701
tp702
Rp703
sg40
I0
sg41
I0
sg42
I0
sg43
I1
sg44
F-1.0
sa(dp704
g4
F2.150037417628482
sg5
F389.49772258499434
sg6
I2
sg7
F-5.135273152756624
sg8
g9
(g13
S'7\x00\x00\x00'
p705
tp706
Rp707
sg19
S'j'
p708
sg21
g25
sg23
F14.997674042135257
sg24
g25
sg26
I0
sg27
g9
(g13
S'-\x00\x00\x00'
p709
tp710
Rp711
sg31
F395.8424930260662
sg32
g9
(g13
S'K\x00\x00\x00'
p712
tp713
Rp714
sg36
g9
(g13
S'P\x00\x00\x00'
p715
tp716
Rp717
sg40
I1
sg41
I0
sg42
I0
sg43
I-1
sg44
F-1.0
sa(dp718
g4
F0.9500987112660368
sg5
F396.1350529762349
sg6
I1
sg7
F-4.546245443764218
sg8
g9
(g13
S'7\x00\x00\x00'
p719
tp720
Rp721
sg19
S'f'
p722
sg21
g25
sg23
F-32.48302805387061
sg24
g22
sg26
I3
sg27
g9
(g13
S'\x87\x00\x00\x00'
p723
tp724
Rp725
sg31
F402.4754670076327
sg32
g9
(g13
S'K\x00\x00\x00'
p726
tp727
Rp728
sg36
g9
(g13
S'\xb0\xff\xff\xff'
p729
tp730
Rp731
sg40
I1
sg41
I0
sg42
I0
sg43
I1
sg44
F1.0
sa(dp732
g4
F1.3917669815455156
sg5
F402.76050123941604
sg6
I2
sg7
F5.135273152756624
sg8
g9
(g13
S'7\x00\x00\x00'
p733
tp734
Rp735
sg19
S'l'
p736
sg21
g22
sg23
F-32.48302805387061
sg24
g50
sg26
I2
sg27
g9
(g13
S'-\x00\x00\x00'
p737
tp738
Rp739
sg31
F409.1000999228854
sg32
g9
(g13
S'K\x00\x00\x00'
p740
tp741
Rp742
sg36
g9
(g13
S'\xb0\xff\xff\xff'
p743
tp744
Rp745
sg40
I1
sg41
I0
sg42
I0
sg43
I1
sg44
F1.0
sa(dp746
g4
F1.0917748214269523
sg5
F409.39158652167316
sg6
I2
sg7
F-4.546245443764218
sg8
g9
(g13
S'7\x00\x00\x00'
p747
tp748
Rp749
sg19
S'l'
p750
sg21
g65
sg23
F14.997674042135257
sg24
g65
sg26
I1
sg27
g9
(g13
S'\x87\x00\x00\x00'
p751
tp752
Rp753
sg31
F416.2330652093042
sg32
g9
(g13
S'K\x00\x00\x00'
p754
tp755
Rp756
sg36
g9
(g13
S'P\x00\x00\x00'
p757
tp758
Rp759
sg40
I0
sg41
I0
sg42
I0
sg43
I1
sg44
F-1.0
sa(dp760
g4
F2.1500280097679934
sg5
F416.5192269589388
sg6
I2
sg7
F-4.6490151132951025
sg8
g9
(g13
S'7\x00\x00\x00'
p761
tp762
Rp763
sg19
S'l'
p764
sg21
g22
sg23
F-32.48302805387061
sg24
g22
sg26
I3
sg27
g9
(g13
S'\x87\x00\x00\x00'
p765
tp766
Rp767
sg31
F423.3660581491313
sg32
g9
(g13
S'K\x00\x00\x00'
p768
tp769
Rp770
sg36
g9
(g13
S'\xb0\xff\xff\xff'
p771
tp772
Rp773
sg40
I0
sg41
I0
sg42
I0
sg43
I1
sg44
F-1.0
sa(dp774
g4
F0.8751152106560767
sg5
F423.65760347577816
sg6
I1
sg7
F-4.751784782825987
sg8
g9
(g13
S'7\x00\x00\x00'
p775
tp776
Rp777
sg19
S's'
p778
sg21
g50
sg23
F-32.48302805387061
sg24
g22
sg26
I3
sg27
g9
(g13
S'\x87\x00\x00\x00'
p779
tp780
Rp781
sg31
F430.49899350144915
sg32
g9
(g13
S'K\x00\x00\x00'
p782
tp783
Rp784
sg36
g9
(g13
S'\xb0\xff\xff\xff'
p785
tp786
Rp787
sg40
I1
sg41
I0
sg42
I0
sg43
I-1
sg44
F-1.0
sa(dp788
g4
F0.7167737879899505
sg5
F430.78608719946715
sg6
I2
sg7
F5.135273152756624
sg8
g9
(g13
S'7\x00\x00\x00'
p789
tp790
Rp791
sg19
S'l'
p792
sg21
g50
sg23
F-32.48302805387061
sg24
g50
sg26
I2
sg27
g9
(g13
S'-\x00\x00\x00'
p793
tp794
Rp795
sg31
F437.1319372638245
sg32
g9
(g13
S'K\x00\x00\x00'
p796
tp797
Rp798
sg36
g9
(g13
S'\xb0\xff\xff\xff'
p799
tp800
Rp801
sg40
I1
sg41
I0
sg42
I0
sg43
I1
sg44
F1.0
sa(dp802
g4
F1.7749653976025002
sg5
F437.42254322983354
sg6
I2
sg7
F5.03250348322574
sg8
g9
(g13
S'7\x00\x00\x00'
p803
tp804
Rp805
sg19
S'l'
p806
sg21
g25
sg23
F14.997674042135257
sg24
g25
sg26
I0
sg27
g9
(g13
S'-\x00\x00\x00'
p807
tp808
Rp809
sg31
F443.76492664006946
sg32
g9
(g13
S'K\x00\x00\x00'
p810
tp811
Rp812
sg36
g9
(g13
S'P\x00\x00\x00'
p813
tp814
Rp815
sg40
I1
sg41
I0
sg42
I0
sg43
I1
sg44
F1.0
sa(dp816
g4
F2.783373459282302
sg5
F444.05468846439544
sg6
I1
sg7
F-5.03250348322574
sg8
g9
(g13
S'7\x00\x00\x00'
p817
tp818
Rp819
sg19
S'f'
p820
sg21
g25
sg23
F14.997674042135257
sg24
g25
sg26
I0
sg27
g9
(g13
S'-\x00\x00\x00'
p821
tp822
Rp823
sg31
F450.3979060382808
sg32
g9
(g13
S'K\x00\x00\x00'
p824
tp825
Rp826
sg36
g9
(g13
S'P\x00\x00\x00'
p827
tp828
Rp829
sg40
I1
sg41
I0
sg42
I0
sg43
I1
sg44
F1.0
sa(dp830
g4
F0.9001053395331837
sg5
F450.69199718904565
sg6
I2
sg7
F5.03250348322574
sg8
g9
(g13
S'7\x00\x00\x00'
p831
tp832
Rp833
sg19
S'f'
p834
sg21
g50
sg23
F12.044557977024418
sg24
g25
sg26
I0
sg27
g9
(g13
S'-\x00\x00\x00'
p835
tp836
Rp837
sg31
F457.03088543648846
sg32
g9
(g13
S'K\x00\x00\x00'
p838
tp839
Rp840
sg36
g9
(g13
S'P\x00\x00\x00'
p841
tp842
Rp843
sg40
I0
sg41
I0
sg42
I0
sg43
I1
sg44
F1.0
sa(dp844
g4
F1.0251235494433786
sg5
F457.3214161396136
sg6
I2
sg7
F5.03250348322574
sg8
g9
(g13
S'7\x00\x00\x00'
p845
tp846
Rp847
sg19
S'l'
p848
sg21
g25
sg23
F12.044557977024418
sg24
g25
sg26
I0
sg27
g9
(g13
S'-\x00\x00\x00'
p849
tp850
Rp851
sg31
F463.6638682557423
sg32
g9
(g13
S'K\x00\x00\x00'
p852
tp853
Rp854
sg36
g9
(g13
S'P\x00\x00\x00'
p855
tp856
Rp857
sg40
I1
sg41
I0
sg42
I0
sg43
I1
sg44
F1.0
sa(dp858
g4
F0.8334509315900505
sg5
F463.95551450307175
sg6
I1
sg7
F4.751784782825987
sg8
g9
(g13
S'7\x00\x00\x00'
p859
tp860
Rp861
sg19
S'f'
p862
sg21
g65
sg23
F-32.48302805387061
sg24
g22
sg26
I3
sg27
g9
(g13
S'\x87\x00\x00\x00'
p863
tp864
Rp865
sg31
F470.2968527855119
sg32
g9
(g13
S'K\x00\x00\x00'
p866
tp867
Rp868
sg36
g9
(g13
S'\xb0\xff\xff\xff'
p869
tp870
Rp871
sg40
I1
sg41
I0
sg42
I0
sg43
I1
sg44
F1.0
sa(dp872
g4
F0.9917384728760226
sg5
F470.58368448886176
sg6
I1
sg7
F5.03250348322574
sg8
g9
(g13
S'7\x00\x00\x00'
p873
tp874
Rp875
sg19
S's'
p876
sg21
g50
sg23
F-29.9728793985264
sg24
g50
sg26
I2
sg27
g9
(g13
S'-\x00\x00\x00'
p877
tp878
Rp879
sg31
F476.92982220568956
sg32
g9
(g13
S'K\x00\x00\x00'
p880
tp881
Rp882
sg36
g9
(g13
S'\xb0\xff\xff\xff'
p883
tp884
Rp885
sg40
I1
sg41
I0
sg42
I0
sg43
I-1
sg44
F-1.0
sa(dp886
g4
F1.458396301855828
sg5
F477.225861638879
sg6
I2
sg7
F4.751784782825987
sg8
g9
(g13
S'7\x00\x00\x00'
p887
tp888
Rp889
sg19
S'l'
p890
sg21
g22
sg23
F12.044557977024418
sg24
g65
sg26
I1
sg27
g9
(g13
S'\x87\x00\x00\x00'
p891
tp892
Rp893
sg31
F483.57109420547204
sg32
g9
(g13
S'K\x00\x00\x00'
p894
tp895
Rp896
sg36
g9
(g13
S'P\x00\x00\x00'
p897
tp898
Rp899
sg40
I1
sg41
I0
sg42
I0
sg43
I1
sg44
F1.0
sa(dp900
g4
F2.0832735364019754
sg5
F483.861025656377
sg6
I1
sg7
F4.751784782825987
sg8
g9
(g13
S'7\x00\x00\x00'
p901
tp902
Rp903
sg19
S'f'
p904
sg21
g65
sg23
F12.044557977024418
sg24
g65
sg26
I1
sg27
g9
(g13
S'\x87\x00\x00\x00'
p905
tp906
Rp907
sg31
F490.2041112351253
sg32
g9
(g13
S'K\x00\x00\x00'
p908
tp909
Rp910
sg36
g9
(g13
S'P\x00\x00\x00'
p911
tp912
Rp913
sg40
I1
sg41
I0
sg42
I0
sg43
I1
sg44
F1.0
sa(dp914
g4
F1.5000745501711208
sg5
F490.5006860611138
sg6
I2
sg7
F-5.03250348322574
sg8
g9
(g13
S'7\x00\x00\x00'
p915
tp916
Rp917
sg19
S'l'
p918
sg21
g25
sg23
F12.044557977024418
sg24
g25
sg26
I0
sg27
g9
(g13
S'-\x00\x00\x00'
p919
tp920
Rp921
sg31
F497.34536598716295
sg32
g9
(g13
S'K\x00\x00\x00'
p922
tp923
Rp924
sg36
g9
(g13
S'P\x00\x00\x00'
p925
tp926
Rp927
sg40
I0
sg41
I0
sg42
I0
sg43
I1
sg44
F-1.0
sa(dp928
g4
F1.0417458138581424
sg5
F497.6370347563425
sg6
I1
sg7
F-4.751784782825987
sg8
g9
(g13
S'7\x00\x00\x00'
p929
tp930
Rp931
sg19
S's'
p932
sg21
g50
sg23
F12.044557977024418
sg24
g65
sg26
I1
sg27
g9
(g13
S'\x87\x00\x00\x00'
p933
tp934
Rp935
sg31
F504.47829478248605
sg32
g9
(g13
S'K\x00\x00\x00'
p936
tp937
Rp938
sg36
g9
(g13
S'P\x00\x00\x00'
p939
tp940
Rp941
sg40
I1
sg41
I0
sg42
I0
sg43
I-1
sg44
F-1.0
sa(dp942
g4
F1.7834108056413243
sg5
F504.77134023528197
sg6
I1
sg7
F-4.751784782825987
sg8
g9
(g13
S'7\x00\x00\x00'
p943
tp944
Rp945
sg19
S'f'
p946
sg21
g65
sg23
F-29.9728793985264
sg24
g22
sg26
I3
sg27
g9
(g13
S'\x87\x00\x00\x00'
p947
tp948
Rp949
sg31
F511.11129898324
sg32
g9
(g13
S'K\x00\x00\x00'
p950
tp951
Rp952
sg36
g9
(g13
S'\xb0\xff\xff\xff'
p953
tp954
Rp955
sg40
I1
sg41
I0
sg42
I0
sg43
I1
sg44
F1.0
sa(dp956
g4
F1.9750705945916707
sg5
F511.4100552925629
sg6
I2
sg7
F-5.135273152756624
sg8
g9
(g13
S'7\x00\x00\x00'
p957
tp958
Rp959
sg19
S'j'
p960
sg21
g50
sg23
F-29.9728793985264
sg24
g50
sg26
I2
sg27
g9
(g13
S'-\x00\x00\x00'
p961
tp962
Rp963
sg31
F518.2526013447532
sg32
g9
(g13
S'K\x00\x00\x00'
p964
tp965
Rp966
sg36
g9
(g13
S'\xb0\xff\xff\xff'
p967
tp968
Rp969
sg40
I1
sg41
I0
sg42
I0
sg43
I-1
sg44
F-1.0
sa(dp970
g4
F2.0083755617997667
sg5
F518.5476635007799
sg6
I1
sg7
F5.135273152756624
sg8
g9
(g13
S'7\x00\x00\x00'
p971
tp972
Rp973
sg19
S'f'
p974
sg21
g25
sg23
F12.044557977024418
sg24
g25
sg26
I0
sg27
g9
(g13
S'-\x00\x00\x00'
p975
tp976
Rp977
sg31
F525.3938344302042
sg32
g9
(g13
S'K\x00\x00\x00'
p978
tp979
Rp980
sg36
g9
(g13
S'P\x00\x00\x00'
p981
tp982
Rp983
sg40
I1
sg41
I0
sg42
I0
sg43
I1
sg44
F1.0
sa(dp984
g4
F1.0917671240895288
sg5
F525.6849737934062
sg6
I2
sg7
F5.135273152756624
sg8
g9
(g13
S'7\x00\x00\x00'
p985
tp986
Rp987
sg19
S'l'
p988
sg21
g50
sg23
F9.091441911913579
sg24
g25
sg26
I0
sg27
g9
(g13
S'-\x00\x00\x00'
p989
tp990
Rp991
sg31
F532.5268116902662
sg32
g9
(g13
S'K\x00\x00\x00'
p992
tp993
Rp994
sg36
g9
(g13
S'P\x00\x00\x00'
p995
tp996
Rp997
sg40
I1
sg41
I0
sg42
I0
sg43
I1
sg44
F1.0
sa(dp998
g4
F2.1000400546799938
sg5
F532.8226983169916
sg6
I1
sg7
F-5.135273152756624
sg8
g9
(g13
S'7\x00\x00\x00'
p999
tp1000
Rp1001
sg19
S'f'
p1002
sg21
g50
sg23
F-29.9728793985264
sg24
g50
sg26
I2
sg27
g9
(g13
S'-\x00\x00\x00'
p1003
tp1004
Rp1005
sg31
F539.6763858420272
sg32
g9
(g13
S'K\x00\x00\x00'
p1006
tp1007
Rp1008
sg36
g9
(g13
S'\xb0\xff\xff\xff'
p1009
tp1010
Rp1011
sg40
I1
sg41
I0
sg42
I0
sg43
I1
sg44
F1.0
sa(dp1012
g4
F0.8084816140471958
sg5
F539.9687667577527
sg6
I1
sg7
F-5.135273152756624
sg8
g9
(g13
S'7\x00\x00\x00'
p1013
tp1014
Rp1015
sg19
S's'
p1016
sg21
g22
sg23
F9.091441911913579
sg24
g25
sg26
I0
sg27
g9
(g13
S'-\x00\x00\x00'
p1017
tp1018
Rp1019
sg31
F546.3093646700618
sg32
g9
(g13
S'K\x00\x00\x00'
p1020
tp1021
Rp1022
sg36
g9
(g13
S'P\x00\x00\x00'
p1023
tp1024
Rp1025
sg40
I1
sg41
I0
sg42
I0
sg43
I-1
sg44
F-1.0
sa(dp1026
g4
F1.3917250738013536
sg5
F546.6069755010758
sg6
I2
sg7
F5.135273152756624
sg8
g9
(g13
S'7\x00\x00\x00'
p1027
tp1028
Rp1029
sg19
S'l'
p1030
sg21
g25
sg23
F9.091441911913579
sg24
g25
sg26
I0
sg27
g9
(g13
S'-\x00\x00\x00'
p1031
tp1032
Rp1033
sg31
F553.4506730184003
sg32
g9
(g13
S'K\x00\x00\x00'
p1034
tp1035
Rp1036
sg36
g9
(g13
S'P\x00\x00\x00'
p1037
tp1038
Rp1039
sg40
I1
sg41
I0
sg42
I0
sg43
I1
sg44
F1.0
sa(dp1040
g4
F1.908389388503565
sg5
F553.7422722264273
sg6
I2
sg7
F-4.751784782825987
sg8
g9
(g13
S'7\x00\x00\x00'
p1041
tp1042
Rp1043
sg19
S'j'
p1044
sg21
g22
sg23
F-27.462730743182185
sg24
g22
sg26
I3
sg27
g9
(g13
S'\x87\x00\x00\x00'
p1045
tp1046
Rp1047
sg31
F560.5835844234352
sg32
g9
(g13
S'K\x00\x00\x00'
p1048
tp1049
Rp1050
sg36
g9
(g13
S'\xb0\xff\xff\xff'
p1051
tp1052
Rp1053
sg40
I1
sg41
I0
sg42
I0
sg43
I-1
sg44
F-1.0
sa(dp1054
g4
F1.7917131001595408
sg5
F560.8784059662939
sg6
I2
sg7
F5.047918933655373
sg8
g9
(g13
S'7\x00\x00\x00'
p1055
tp1056
Rp1057
sg19
S'j'
p1058
sg21
g50
sg23
F-27.462730743182185
sg24
g50
sg26
I2
sg27
g9
(g13
S'-\x00\x00\x00'
p1059
tp1060
Rp1061
sg31
F567.7249586267935
sg32
g9
(g13
S'K\x00\x00\x00'
p1062
tp1063
Rp1064
sg36
g9
(g13
S'\xb0\xff\xff\xff'
p1065
tp1066
Rp1067
sg40
I0
sg41
I0
sg42
I0
sg43
I-1
sg44
F1.0
sa(dp1068
g4
F2.2250462909505586
sg5
F568.0156578161514
sg6
I2
sg7
F4.751784782825987
sg8
g9
(g13
S'7\x00\x00\x00'
p1069
tp1070
Rp1071
sg19
S'l'
p1072
sg21
g22
sg23
F9.091441911913579
sg24
g65
sg26
I1
sg27
g9
(g13
S'\x87\x00\x00\x00'
p1073
tp1074
Rp1075
sg31
F574.8578808651255
sg32
g9
(g13
S'K\x00\x00\x00'
p1076
tp1077
Rp1078
sg36
g9
(g13
S'P\x00\x00\x00'
p1079
tp1080
Rp1081
sg40
I1
sg41
I0
sg42
I0
sg43
I1
sg44
F1.0
sa(dp1082
g4
F0.8251323871299974
sg5
F575.155005908422
sg6
I2
sg7
F5.135273152756624
sg8
g9
(g13
S'7\x00\x00\x00'
p1083
tp1084
Rp1085
sg19
S'l'
p1086
sg21
g50
sg23
F-27.462730743182185
sg24
g50
sg26
I2
sg27
g9
(g13
S'-\x00\x00\x00'
p1087
tp1088
Rp1089
sg31
F581.9991053979757
sg32
g9
(g13
S'K\x00\x00\x00'
p1090
tp1091
Rp1092
sg36
g9
(g13
S'\xb0\xff\xff\xff'
p1093
tp1094
Rp1095
sg40
I1
sg41
I0
sg42
I0
sg43
I1
sg44
F1.0
sa(dp1096
g4
F1.5167270337733498
sg5
F582.2967008343076
sg6
I2
sg7
F4.664430563724736
sg8
g9
(g13
S'7\x00\x00\x00'
p1097
tp1098
Rp1099
sg19
S'l'
p1100
sg21
g65
sg23
F9.091441911913579
sg24
g65
sg26
I1
sg27
g9
(g13
S'\x87\x00\x00\x00'
p1101
tp1102
Rp1103
sg31
F588.6403890863112
sg32
g9
(g13
S'K\x00\x00\x00'
p1104
tp1105
Rp1106
sg36
g9
(g13
S'P\x00\x00\x00'
p1107
tp1108
Rp1109
sg40
I1
sg41
I0
sg42
I0
sg43
I1
sg44
F1.0
sa(dp1110
g4
F1.0084114827186568
sg5
F588.9372535603761
sg6
I2
sg7
F4.664430563724736
sg8
g9
(g13
S'7\x00\x00\x00'
p1111
tp1112
Rp1113
sg19
S'l'
p1114
sg21
g65
sg23
F9.091441911913579
sg24
g65
sg26
I1
sg27
g9
(g13
S'\x87\x00\x00\x00'
p1115
tp1116
Rp1117
sg31
F595.281786239153
sg32
g9
(g13
S'K\x00\x00\x00'
p1118
tp1119
Rp1120
sg36
g9
(g13
S'P\x00\x00\x00'
p1121
tp1122
Rp1123
sg40
I1
sg41
I0
sg42
I0
sg43
I1
sg44
F1.0
sa(dp1124
g4
F0.9667491992622672
sg5
F595.5764005239907
sg6
I2
sg7
F4.664430563724736
sg8
g9
(g13
S'7\x00\x00\x00'
p1125
tp1126
Rp1127
sg19
S'l'
p1128
sg21
g25
sg23
F-27.462730743182185
sg24
g22
sg26
I3
sg27
g9
(g13
S'\x87\x00\x00\x00'
p1129
tp1130
Rp1131
sg31
F601.9230821862147
sg32
g9
(g13
S'K\x00\x00\x00'
p1132
tp1133
Rp1134
sg36
g9
(g13
S'\xb0\xff\xff\xff'
p1135
tp1136
Rp1137
sg40
I1
sg41
I0
sg42
I0
sg43
I1
sg44
F1.0
sa(dp1138
g4
F0.8834559918796003
sg5
F602.2238956810797
sg6
I1
sg7
F-5.135273152756624
sg8
g9
(g13
S'7\x00\x00\x00'
p1139
tp1140
Rp1141
sg19
S's'
p1142
sg21
g50
sg23
F-27.462730743182185
sg24
g50
sg26
I2
sg27
g9
(g13
S'-\x00\x00\x00'
p1143
tp1144
Rp1145
sg31
F608.5643325194105
sg32
g9
(g13
S'K\x00\x00\x00'
p1146
tp1147
Rp1148
sg36
g9
(g13
S'\xb0\xff\xff\xff'
p1149
tp1150
Rp1151
sg40
I1
sg41
I0
sg42
I0
sg43
I-1
sg44
F-1.0
sa(dp1152
g4
F1.2417372612580948
sg5
F608.8573252311689
sg6
I1
sg7
F-5.135273152756624
sg8
g9
(g13
S'7\x00\x00\x00'
p1153
tp1154
Rp1155
sg19
S'f'
p1156
sg21
g50
sg23
F-27.462730743182185
sg24
g50
sg26
I2
sg27
g9
(g13
S'-\x00\x00\x00'
p1157
tp1158
Rp1159
sg31
F615.6973243188913
sg32
g9
(g13
S'K\x00\x00\x00'
p1160
tp1161
Rp1162
sg36
g9
(g13
S'\xb0\xff\xff\xff'
p1163
tp1164
Rp1165
sg40
I1
sg41
I0
sg42
I0
sg43
I1
sg44
F1.0
sa(dp1166
g4
F1.1167569678764266
sg5
F616.0001257232288
sg6
I2
sg7
F-5.135273152756624
sg8
g9
(g13
S'7\x00\x00\x00'
p1167
tp1168
Rp1169
sg19
S'j'
p1170
sg21
g25
sg23
F9.091441911913579
sg24
g25
sg26
I0
sg27
g9
(g13
S'-\x00\x00\x00'
p1171
tp1172
Rp1173
sg31
F622.3469125824449
sg32
g9
(g13
S'K\x00\x00\x00'
p1174
tp1175
Rp1176
sg36
g9
(g13
S'P\x00\x00\x00'
p1177
tp1178
Rp1179
sg40
I1
sg41
I0
sg42
I0
sg43
I-1
sg44
F-1.0
sa(dp1180
g4
F1.4584068500626017
sg5
F622.6429947786382
sg6
I1
sg7
F-4.577076344623484
sg8
g9
(g13
S'7\x00\x00\x00'
p1181
tp1182
Rp1183
sg19
S'f'
p1184
sg21
g65
sg23
F9.091441911913579
sg24
g65
sg26
I1
sg27
g9
(g13
S'\x87\x00\x00\x00'
p1185
tp1186
Rp1187
sg31
F629.4882100974864
sg32
g9
(g13
S'K\x00\x00\x00'
p1188
tp1189
Rp1190
sg36
g9
(g13
S'P\x00\x00\x00'
p1191
tp1192
Rp1193
sg40
I0
sg41
I0
sg42
I0
sg43
I1
sg44
F-1.0
sa(dp1194
g4
F0.8083769872318953
sg5
F629.7901813293865
sg6
I1
sg7
F5.135273152756624
sg8
g9
(g13
S'7\x00\x00\x00'
p1195
tp1196
Rp1197
sg19
S's'
p1198
sg21
g50
sg23
F-27.462730743182185
sg24
g50
sg26
I2
sg27
g9
(g13
S'-\x00\x00\x00'
p1199
tp1200
Rp1201
sg31
F636.6295073274414
sg32
g9
(g13
S'K\x00\x00\x00'
p1202
tp1203
Rp1204
sg36
g9
(g13
S'\xb0\xff\xff\xff'
p1205
tp1206
Rp1207
sg40
I1
sg41
I0
sg42
I0
sg43
I-1
sg44
F-1.0
sa(dp1208
g4
F2.20010234611982
sg5
F636.9273550654907
sg6
I1
sg7
F-5.135273152756624
sg8
g9
(g13
S'7\x00\x00\x00'
p1209
tp1210
Rp1211
sg19
S'f'
p1212
sg21
g65
sg23
F12.044557977024418
sg24
g25
sg26
I0
sg27
g9
(g13
S'-\x00\x00\x00'
p1213
tp1214
Rp1215
sg31
F643.7708088336949
sg32
g9
(g13
S'K\x00\x00\x00'
p1216
tp1217
Rp1218
sg36
g9
(g13
S'P\x00\x00\x00'
p1219
tp1220
Rp1221
sg40
I0
sg41
I0
sg42
I0
sg43
I1
sg44
F-1.0
sa(dp1222
g4
F1.4334343965638254
sg5
F644.0697772475178
sg6
I1
sg7
F-5.135273152756624
sg8
g9
(g13
S'7\x00\x00\x00'
p1223
tp1224
Rp1225
sg19
S'f'
p1226
sg21
g25
sg23
F14.997674042135257
sg24
g25
sg26
I0
sg27
g9
(g13
S'-\x00\x00\x00'
p1227
tp1228
Rp1229
sg31
F650.412068004578
sg32
g9
(g13
S'K\x00\x00\x00'
p1230
tp1231
Rp1232
sg36
g9
(g13
S'P\x00\x00\x00'
p1233
tp1234
Rp1235
sg40
I0
sg41
I0
sg42
I0
sg43
I1
sg44
F-1.0
sa(dp1236
g4
F0.7751190593298816
sg5
F650.7126813685863
sg6
I1
sg7
F4.577076344623484
sg8
g9
(g13
S'7\x00\x00\x00'
p1237
tp1238
Rp1239
sg19
S's'
p1240
sg21
g65
sg23
F17.950790107246096
sg24
g65
sg26
I1
sg27
g9
(g13
S'\x87\x00\x00\x00'
p1241
tp1242
Rp1243
sg31
F657.55337606783
sg32
g9
(g13
S'K\x00\x00\x00'
p1244
tp1245
Rp1246
sg36
g9
(g13
S'P\x00\x00\x00'
p1247
tp1248
Rp1249
sg40
I1
sg41
I0
sg42
I0
sg43
I-1
sg44
F-1.0
sa(dp1250
g4
F1.966691611753049
sg5
F657.8560982180679
sg6
I1
sg7
F-5.135273152756624
sg8
g9
(g13
S'7\x00\x00\x00'
p1251
tp1252
Rp1253
sg19
S'f'
p1254
sg21
g25
sg23
F-24.95258208783797
sg24
g50
sg26
I2
sg27
g9
(g13
S'-\x00\x00\x00'
p1255
tp1256
Rp1257
sg31
F664.1946885499201
sg32
g9
(g13
S'K\x00\x00\x00'
p1258
tp1259
Rp1260
sg36
g9
(g13
S'\xb0\xff\xff\xff'
p1261
tp1262
Rp1263
sg40
I1
sg41
I0
sg42
I0
sg43
I1
sg44
F1.0
sa(dp1264
g4
F1.5417727545500384
sg5
F664.4921534165514
sg6
I1
sg7
F4.577076344623484
sg8
g9
(g13
S'7\x00\x00\x00'
p1265
tp1266
Rp1267
sg19
S's'
p1268
sg21
g22
sg23
F-24.95258208783797
sg24
g22
sg26
I3
sg27
g9
(g13
S'\x87\x00\x00\x00'
p1269
tp1270
Rp1271
sg31
F671.3359498589525
sg32
g9
(g13
S'K\x00\x00\x00'
p1272
tp1273
Rp1274
sg36
g9
(g13
S'\xb0\xff\xff\xff'
p1275
tp1276
Rp1277
sg40
I1
sg41
I0
sg42
I0
sg43
I-1
sg44
F-1.0
sa(dp1278
g4
F2.70832182295635
sg5
F671.636526161692
sg6
I1
sg7
F4.577076344623484
sg8
g9
(g13
S'7\x00\x00\x00'
p1279
tp1280
Rp1281
sg19
S'f'
p1282
sg21
g22
sg23
F-24.95258208783797
sg24
g22
sg26
I3
sg27
g9
(g13
S'\x87\x00\x00\x00'
p1283
tp1284
Rp1285
sg31
F678.4772362556141
sg32
g9
(g13
S'K\x00\x00\x00'
p1286
tp1287
Rp1288
sg36
g9
(g13
S'\xb0\xff\xff\xff'
p1289
tp1290
Rp1291
sg40
I1
sg41
I0
sg42
I0
sg43
I1
sg44
F1.0
sa(dp1292
g4
F0.8750975352813839
sg5
F678.7729703609621
sg6
I1
sg7
F-5.135273152756624
sg8
g9
(g13
S'7\x00\x00\x00'
p1293
tp1294
Rp1295
sg19
S's'
p1296
sg21
g22
sg23
F-22.442433432493758
sg24
g50
sg26
I2
sg27
g9
(g13
S'-\x00\x00\x00'
p1297
tp1298
Rp1299
sg31
F685.1185441763228
sg32
g9
(g13
S'K\x00\x00\x00'
p1300
tp1301
Rp1302
sg36
g9
(g13
S'\xb0\xff\xff\xff'
p1303
tp1304
Rp1305
sg40
I1
sg41
I0
sg42
I0
sg43
I-1
sg44
F-1.0
sa(dp1306
g4
F0.9500747639831388
sg5
F685.4256027801675
sg6
I2
sg7
F4.577076344623484
sg8
g9
(g13
S'7\x00\x00\x00'
p1307
tp1308
Rp1309
sg19
S'l'
p1310
sg21
g65
sg23
F17.950790107246096
sg24
g65
sg26
I1
sg27
g9
(g13
S'\x87\x00\x00\x00'
p1311
tp1312
Rp1313
sg31
F692.2681773410259
sg32
g9
(g13
S'K\x00\x00\x00'
p1314
tp1315
Rp1316
sg36
g9
(g13
S'P\x00\x00\x00'
p1317
tp1318
Rp1319
sg40
I1
sg41
I0
sg42
I0
sg43
I1
sg44
F1.0
sa(dp1320
g4
F1.558451181041164
sg5
F692.5681749177893
sg6
I2
sg7
F4.577076344623484
sg8
g9
(g13
S'7\x00\x00\x00'
p1321
tp1322
Rp1323
sg19
S'j'
p1324
sg21
g25
sg23
F-22.442433432493758
sg24
g22
sg26
I3
sg27
g9
(g13
S'\x87\x00\x00\x00'
p1325
tp1326
Rp1327
sg31
F698.9094678714428
sg32
g9
(g13
S'K\x00\x00\x00'
p1328
tp1329
Rp1330
sg36
g9
(g13
S'\xb0\xff\xff\xff'
p1331
tp1332
Rp1333
sg40
I0
sg41
I0
sg42
I0
sg43
I-1
sg44
F1.0
sa(dp1334
g4
F0.8168112768871651
sg5
F699.2165604006041
sg6
I1
sg7
F-5.135273152756624
sg8
g9
(g13
S'7\x00\x00\x00'
p1335
tp1336
Rp1337
sg19
S'f'
p1338
sg21
g65
sg23
F-22.442433432493758
sg24
g50
sg26
I2
sg27
g9
(g13
S'-\x00\x00\x00'
p1339
tp1340
Rp1341
sg31
F706.0591036019287
sg32
g9
(g13
S'K\x00\x00\x00'
p1342
tp1343
Rp1344
sg36
g9
(g13
S'\xb0\xff\xff\xff'
p1345
tp1346
Rp1347
sg40
I1
sg41
I0
sg42
I0
sg43
I1
sg44
F1.0
sa(dp1348
g4
F1.275093829157413
sg5
F706.3660316360692
sg6
I1
sg7
F5.135273152756624
sg8
g9
(g13
S'7\x00\x00\x00'
p1349
tp1350
Rp1351
sg19
S'f'
p1352
sg21
g25
sg23
F-22.442433432493758
sg24
g50
sg26
I2
sg27
g9
(g13
S'-\x00\x00\x00'
p1353
tp1354
Rp1355
sg31
F713.2087133895257
sg32
g9
(g13
S'K\x00\x00\x00'
p1356
tp1357
Rp1358
sg36
g9
(g13
S'\xb0\xff\xff\xff'
p1359
tp1360
Rp1361
sg40
I1
sg41
I0
sg42
I0
sg43
I1
sg44
F1.0
sa(dp1362
g4
F1.4250545584654901
sg5
F713.5098253701508
sg6
I2
sg7
F-4.664430563724736
sg8
g9
(g13
S'7\x00\x00\x00'
p1363
tp1364
Rp1365
sg19
S'j'
p1366
sg21
g50
sg23
F-19.932284777149544
sg24
g22
sg26
I3
sg27
g9
(g13
S'\x87\x00\x00\x00'
p1367
tp1368
Rp1369
sg31
F719.8499990734672
sg32
g9
(g13
S'K\x00\x00\x00'
p1370
tp1371
Rp1372
sg36
g9
(g13
S'\xb0\xff\xff\xff'
p1373
tp1374
Rp1375
sg40
I1
sg41
I0
sg42
I0
sg43
I-1
sg44
F-1.0
sa(dp1376
g4
F0.8667376532503113
sg5
F720.1536568782176
sg6
I2
sg7
F-5.135273152756624
sg8
g9
(g13
S'7\x00\x00\x00'
p1377
tp1378
Rp1379
sg19
S'j'
p1380
sg21
g25
sg23
F-19.932284777149544
sg24
g50
sg26
I2
sg27
g9
(g13
S'-\x00\x00\x00'
p1381
tp1382
Rp1383
sg31
F726.4997236084564
sg32
g9
(g13
S'K\x00\x00\x00'
p1384
tp1385
Rp1386
sg36
g9
(g13
S'\xb0\xff\xff\xff'
p1387
tp1388
Rp1389
sg40
I1
sg41
I0
sg42
I0
sg43
I-1
sg44
F-1.0
sa(dp1390
g4
F2.4917103918378416
sg5
F726.8014838762101
sg6
I1
sg7
F5.06102206652056
sg8
g9
(g13
S'7\x00\x00\x00'
p1391
tp1392
Rp1393
sg19
S'f'
p1394
sg21
g25
sg23
F17.950790107246096
sg24
g25
sg26
I0
sg27
g9
(g13
S'-\x00\x00\x00'
p1395
tp1396
Rp1397
sg31
F733.1409659592246
sg32
g9
(g13
S'K\x00\x00\x00'
p1398
tp1399
Rp1400
sg36
g9
(g13
S'P\x00\x00\x00'
p1401
tp1402
Rp1403
sg40
I1
sg41
I0
sg42
I0
sg43
I1
sg44
F1.0
sa(dp1404
g4
F2.6333403179596644
sg5
F733.4451828189667
sg6
I1
sg7
F-5.06102206652056
sg8
g9
(g13
S'7\x00\x00\x00'
p1405
tp1406
Rp1407
sg19
S'f'
p1408
sg21
g25
sg23
F17.950790107246096
sg24
g25
sg26
I0
sg27
g9
(g13
S'-\x00\x00\x00'
p1409
tp1410
Rp1411
sg31
F739.7906061085523
sg32
g9
(g13
S'K\x00\x00\x00'
p1412
tp1413
Rp1414
sg36
g9
(g13
S'P\x00\x00\x00'
p1415
tp1416
Rp1417
sg40
I0
sg41
I0
sg42
I0
sg43
I1
sg44
F-1.0
sa(dp1418
g4
F0.8834397419414017
sg5
F740.0928242255286
sg6
I2
sg7
F5.06102206652056
sg8
g9
(g13
S'7\x00\x00\x00'
p1419
tp1420
Rp1421
sg19
S'l'
p1422
sg21
g25
sg23
F20.46093876259031
sg24
g25
sg26
I0
sg27
g9
(g13
S'-\x00\x00\x00'
p1423
tp1424
Rp1425
sg31
F746.9318699833675
sg32
g9
(g13
S'K\x00\x00\x00'
p1426
tp1427
Rp1428
sg36
g9
(g13
S'P\x00\x00\x00'
p1429
tp1430
Rp1431
sg40
I1
sg41
I0
sg42
I0
sg43
I1
sg44
F1.0
sasS'eventArray'
p1432
(lp1433
(lp1434
S'trial 0 started at 58.7221356984'
p1435
aS'trial 0 phase 6 started at 62.418669757'
p1436
aS'trial 0 event l at 63.9437652254'
p1437
aS'staircase 2 updated from 5.256179 to 5.256179 after response 1 at 63.943780'
p1438
aa(lp1439
S'trial 1 started at 65.8288795666'
p1440
aS'trial 1 phase 6 started at 69.0183401968'
p1441
aS'trial 1 event f at 71.0016965509'
p1442
aS'staircase 1 updated from 26.055658 to 22.581404 after response 1 at 71.001713'
p1443
aa(lp1444
S'trial 2 started at 72.4353578764'
p1445
aS'trial 2 phase 6 started at 76.1262834246'
p1446
aS'trial 2 event j at 77.6013199514'
p1447
aS'staircase 2 updated from 5.256179 to 5.256179 after response 1 at 77.601334'
p1448
aa(lp1449
S'trial 3 started at 79.5332329828'
p1450
aS'trial 3 phase 6 started at 83.2259220773'
p1451
aS'trial 3 event l at 85.2092527735'
p1452
aS'staircase 3 updated from 4.649015 to 4.649015 after response 1 at 85.209268'
p1453
aa(lp1454
S'trial 4 started at 86.6310026071'
p1455
aS'trial 4 phase 6 started at 90.3255162564'
p1456
aS'trial 4 event l at 92.4671946472'
p1457
aS'staircase 3 updated from 4.649015 to 4.649015 after response 1 at 92.467208'
p1458
aa(lp1459
S'trial 5 started at 93.7318012775'
p1460
aS'trial 5 phase 6 started at 96.9251824198'
p1461
aS'trial 5 event j at 98.4002195167'
p1462
aS'staircase 3 updated from 4.649015 to 4.506773 after response 1 at 98.400235'
p1463
aa(lp1464
S'trial 6 started at 100.334791267'
p1465
aS'trial 6 phase 6 started at 104.024764055'
p1466
aS'trial 6 event f at 105.774836253'
p1467
aS'staircase 0 updated from 11.002282 to 11.002282 after response 1 at 105.774860'
p1468
aa(lp1469
S'trial 7 started at 107.432430606'
p1470
aS'trial 7 phase 6 started at 110.624416534'
p1471
aS'trial 7 event s at 112.607784292'
p1472
aS'staircase 1 updated from 22.581404 to 22.581404 after response 1 at 112.607798'
p1473
aa(lp1474
S'trial 8 started at 114.034772308'
p1475
aS'trial 8 phase 6 started at 117.224050198'
p1476
aS'trial 8 event j at 118.315786533'
p1477
aS'staircase 3 updated from 4.506773 to 4.649015 after response 0 at 118.315802'
p1478
aa(lp1479
S'trial 9 started at 120.631138308'
p1480
aS'trial 9 phase 6 started at 124.32367146'
p1481
aS'trial 9 event j at 126.115400811'
p1482
aS'staircase 2 updated from 5.256179 to 5.135273 after response 1 at 126.115416'
p1483
aa(lp1484
S'trial 10 started at 127.729183326'
p1485
aS'trial 10 phase 6 started at 131.42326621'
p1486
aa(lp1487
S'trial 11 started at 134.836296097'
p1488
aS'trial 11 phase 6 started at 138.531214569'
p1489
aS'trial 11 event f at 140.239607094'
p1490
aS'staircase 0 updated from 11.002282 to 11.002282 after response 1 at 140.239620'
p1491
aa(lp1492
S'trial 12 started at 141.939657982'
p1493
aS'trial 12 phase 6 started at 145.630860919'
p1494
aS'trial 12 event s at 146.955937572'
p1495
aS'staircase 0 updated from 11.002282 to 6.914924 after response 1 at 146.955953'
p1496
aa(lp1497
S'trial 13 started at 149.041786011'
p1498
aS'trial 13 phase 6 started at 152.230489451'
p1499
aS'trial 13 event j at 153.322217233'
p1500
aS'staircase 3 updated from 4.649015 to 4.649015 after response 1 at 153.322232'
p1501
aa(lp1502
S'trial 14 started at 155.64169906'
p1503
aS'trial 14 phase 6 started at 158.830120834'
p1504
aS'trial 14 event f at 160.621828232'
p1505
aS'staircase 1 updated from 22.581404 to 22.581404 after response 1 at 160.621851'
p1506
aa(lp1507
S'trial 15 started at 162.249734798'
p1508
aS'trial 15 phase 6 started at 165.438105542'
p1509
aS'trial 15 event l at 166.846449459'
p1510
aS'staircase 2 updated from 5.135273 to 5.135273 after response 1 at 166.846463'
p1511
aa(lp1512
S'trial 16 started at 168.861633176'
p1513
aS'trial 16 phase 6 started at 172.554373586'
p1514
aS'trial 16 event j at 174.221087862'
p1515
aS'staircase 3 updated from 4.649015 to 4.649015 after response 1 at 174.221101'
p1516
aa(lp1517
S'trial 17 started at 175.965445213'
p1518
aS'trial 17 phase 6 started at 179.653978028'
p1519
aS'trial 17 event f at 180.970706202'
p1520
aS'staircase 1 updated from 22.581404 to 19.107149 after response 1 at 180.970722'
p1521
aa(lp1522
S'trial 18 started at 183.068557647'
p1523
aS'trial 18 phase 6 started at 186.261971004'
p1524
aS'trial 18 event l at 187.420399663'
p1525
aS'staircase 2 updated from 5.135273 to 5.135273 after response 1 at 187.420412'
p1526
aa(lp1527
S'trial 19 started at 189.675780033'
p1528
aS'trial 19 phase 6 started at 192.869939747'
p1529
aS'trial 19 event s at 195.061621202'
p1530
aS'staircase 0 updated from 6.914924 to 11.002282 after response 0 at 195.061637'
p1531
aa(lp1532
S'trial 20 started at 196.28054041'
p1533
aS'trial 20 phase 6 started at 199.469580538'
p1534
aS'trial 20 event s at 202.127918397'
p1535
aS'staircase 1 updated from 19.107149 to 22.581404 after response 0 at 202.127946'
p1536
aa(lp1537
S'trial 21 started at 202.88428873'
p1538
aS'trial 21 phase 6 started at 206.077570092'
p1539
aS'trial 21 event s at 207.13597124'
p1540
aS'staircase 1 updated from 22.581404 to 26.055658 after response 0 at 207.135987'
p1541
aa(lp1542
S'trial 22 started at 209.49913519'
p1543
aS'trial 22 phase 6 started at 212.69387648'
p1544
aS'trial 22 event s at 215.052217618'
p1545
aS'staircase 0 updated from 11.002282 to 11.002282 after response 1 at 215.052233'
p1546
aa(lp1547
S'trial 23 started at 216.108477765'
p1548
aS'trial 23 phase 6 started at 219.801826835'
p1549
aS'trial 23 event f at 222.193466953'
p1550
aS'staircase 0 updated from 11.002282 to 11.002282 after response 1 at 222.193481'
p1551
aa(lp1552
S'trial 24 started at 223.219202869'
p1553
aS'trial 24 phase 6 started at 226.90977719'
p1554
aS'trial 24 event s at 229.143135469'
p1555
aS'staircase 0 updated from 11.002282 to 14.476536 after response 0 at 229.143151'
p1556
aa(lp1557
S'trial 25 started at 230.324547817'
p1558
aS'trial 25 phase 6 started at 234.017710155'
p1559
aS'trial 25 event j at 235.117809793'
p1560
aS'staircase 3 updated from 4.649015 to 4.528110 after response 1 at 235.117835'
p1561
aa(lp1562
S'trial 26 started at 237.436451754'
p1563
aS'trial 26 phase 6 started at 241.125661651'
p1564
aS'trial 26 event l at 242.875713323'
p1565
aS'staircase 3 updated from 4.528110 to 4.528110 after response 1 at 242.875727'
p1566
aa(lp1567
S'trial 27 started at 244.542708979'
p1568
aS'trial 27 phase 6 started at 248.233604308'
p1569
aS'trial 27 event l at 249.167031435'
p1570
aS'staircase 2 updated from 5.135273 to 5.014368 after response 1 at 249.167046'
p1571
aa(lp1572
S'trial 28 started at 251.650797031'
p1573
aS'trial 28 phase 6 started at 254.841561363'
p1574
aS'trial 28 event l at 255.725033605'
p1575
aS'staircase 3 updated from 4.528110 to 4.528110 after response 1 at 255.725047'
p1576
aa(lp1577
S'trial 29 started at 258.258458166'
p1578
aS'trial 29 phase 6 started at 261.949495468'
p1579
aS'trial 29 event s at 264.149555336'
p1580
aS'staircase 1 updated from 26.055658 to 29.529912 after response 0 at 264.149572'
p1581
aa(lp1582
S'trial 30 started at 265.364653812'
p1583
aS'trial 30 phase 6 started at 269.057481459'
p1584
aS'trial 30 event s at 271.249154362'
p1585
aS'staircase 0 updated from 14.476536 to 17.950790 after response 0 at 271.249169'
p1586
aa(lp1587
S'trial 31 started at 272.478033073'
p1588
aS'trial 31 phase 6 started at 276.173730117'
p1589
aS'trial 31 event l at 277.148827225'
p1590
aS'staircase 3 updated from 4.528110 to 4.407204 after response 1 at 277.148842'
p1591
aa(lp1592
S'trial 32 started at 279.593989232'
p1593
aS'trial 32 phase 6 started at 282.790064159'
p1594
aS'trial 32 event s at 283.981824013'
p1595
aS'staircase 0 updated from 17.950790 to 17.950790 after response 1 at 283.981840'
p1596
aa(lp1597
S'trial 33 started at 286.209050077'
p1598
aS'trial 33 phase 6 started at 289.39801038'
p1599
aS'trial 33 event l at 291.156429631'
p1600
aS'staircase 3 updated from 4.407204 to 4.528110 after response 0 at 291.156446'
p1601
aa(lp1602
S'trial 34 started at 292.848027984'
p1603
aS'trial 34 phase 6 started at 296.53930647'
p1604
aS'trial 34 event l at 298.381005529'
p1605
aS'staircase 2 updated from 5.014368 to 5.014368 after response 1 at 298.381019'
p1606
aa(lp1607
S'trial 35 started at 299.956610661'
p1608
aS'trial 35 phase 6 started at 303.647254544'
p1609
aS'trial 35 event s at 304.939000857'
p1610
aS'staircase 1 updated from 29.529912 to 29.529912 after response 1 at 304.939015'
p1611
aa(lp1612
S'trial 36 started at 307.066732237'
p1613
aS'trial 36 phase 6 started at 310.255224712'
p1614
aS'trial 36 event s at 312.346925126'
p1615
aS'staircase 0 updated from 17.950790 to 17.950790 after response 1 at 312.346939'
p1616
aa(lp1617
S'trial 37 started at 313.684195792'
p1618
aS'trial 37 phase 6 started at 316.87988186'
p1619
aS'trial 37 event l at 318.288247159'
p1620
aS'staircase 3 updated from 4.528110 to 4.649015 after response 0 at 318.288263'
p1621
aa(lp1622
S'trial 38 started at 320.298969554'
p1623
aS'trial 38 phase 6 started at 323.487822665'
p1624
aS'trial 38 event l at 325.196271351'
p1625
aS'staircase 3 updated from 4.649015 to 4.649015 after response 1 at 325.196286'
p1626
aa(lp1627
S'trial 39 started at 326.909918308'
p1628
aS'trial 39 phase 6 started at 330.604120358'
p1629
aS'trial 39 event s at 331.362570114'
p1630
aS'staircase 0 updated from 17.950790 to 14.997674 after response 1 at 331.362586'
p1631
aa(lp1632
S'trial 40 started at 334.02058611'
p1633
aS'trial 40 phase 6 started at 337.712100077'
p1634
aS'trial 40 event f at 340.09543619'
p1635
aS'staircase 1 updated from 29.529912 to 29.529912 after response 1 at 340.095450'
p1636
aa(lp1637
S'trial 41 started at 341.131007026'
p1638
aS'trial 41 phase 6 started at 344.820043875'
p1639
aS'trial 41 event j at 345.686830848'
p1640
aS'staircase 2 updated from 5.014368 to 5.014368 after response 1 at 345.686845'
p1641
aa(lp1642
S'trial 42 started at 348.24105904'
p1643
aS'trial 42 phase 6 started at 351.436342281'
p1644
aS'trial 42 event j at 352.953091836'
p1645
aS'staircase 2 updated from 5.014368 to 5.135273 after response 0 at 352.953109'
p1646
aa(lp1647
S'trial 43 started at 354.856477383'
p1648
aS'trial 43 phase 6 started at 358.052660928'
p1649
aS'trial 43 event s at 359.669346196'
p1650
aS'staircase 0 updated from 14.997674 to 14.997674 after response 1 at 359.669360'
p1651
aa(lp1652
S'trial 44 started at 361.478078687'
p1653
aS'trial 44 phase 6 started at 364.668944794'
p1654
aS'trial 44 event l at 365.994020022'
p1655
aS'staircase 3 updated from 4.649015 to 4.649015 after response 1 at 365.994033'
p1656
aa(lp1657
S'trial 45 started at 368.105922818'
p1658
aS'trial 45 phase 6 started at 371.801914072'
p1659
aS'trial 45 event s at 372.868648874'
p1660
aS'staircase 0 updated from 14.997674 to 14.997674 after response 1 at 372.868662'
p1661
aa(lp1662
S'trial 46 started at 375.237073528'
p1663
aS'trial 46 phase 6 started at 378.926518336'
p1664
aS'trial 46 event l at 380.201606749'
p1665
aS'staircase 3 updated from 4.649015 to 4.546245 after response 1 at 380.201623'
p1666
aa(lp1667
S'trial 47 started at 382.364684031'
p1668
aS'trial 47 phase 6 started at 386.059465947'
p1669
aS'trial 47 event f at 387.926190486'
p1670
aS'staircase 1 updated from 29.529912 to 32.483028 after response 0 at 387.926208'
p1671
aa(lp1672
S'trial 48 started at 389.497722585'
p1673
aS'trial 48 phase 6 started at 392.692449337'
p1674
aS'trial 48 event j at 394.842484188'
p1675
aS'staircase 2 updated from 5.135273 to 5.135273 after response 1 at 394.842499'
p1676
aa(lp1677
S'trial 49 started at 396.135052976'
p1678
aS'trial 49 phase 6 started at 399.325417901'
p1679
aS'trial 49 event f at 400.275514902'
p1680
aS'staircase 1 updated from 32.483028 to 32.483028 after response 1 at 400.275531'
p1681
aa(lp1682
S'trial 50 started at 402.760501239'
p1683
aS'trial 50 phase 6 started at 405.950092439'
p1684
aS'trial 50 event l at 407.341857425'
p1685
aS'staircase 2 updated from 5.135273 to 5.135273 after response 1 at 407.341872'
p1686
aa(lp1687
S'trial 51 started at 409.391586522'
p1688
aS'trial 51 phase 6 started at 413.083030643'
p1689
aS'trial 51 event l at 414.174803468'
p1690
aS'staircase 3 updated from 4.546245 to 4.649015 after response 0 at 414.174820'
p1691
aa(lp1692
S'trial 52 started at 416.519226959'
p1693
aS'trial 52 phase 6 started at 420.207626354'
p1694
aS'trial 52 event l at 422.357652368'
p1695
aS'staircase 3 updated from 4.649015 to 4.751785 after response 0 at 422.357670'
p1696
aa(lp1697
S'trial 53 started at 423.657603476'
p1698
aS'trial 53 phase 6 started at 427.348887663'
p1699
aS'trial 53 event s at 428.224000878'
p1700
aS'staircase 1 updated from 32.483028 to 32.483028 after response 1 at 428.224014'
p1701
aa(lp1702
S'trial 54 started at 430.786087199'
p1703
aS'trial 54 phase 6 started at 433.981888158'
p1704
aS'trial 54 event l at 434.698660805'
p1705
aS'staircase 2 updated from 5.135273 to 5.032503 after response 1 at 434.698676'
p1706
aa(lp1707
S'trial 55 started at 437.42254323'
p1708
aS'trial 55 phase 6 started at 440.614870977'
p1709
aS'trial 55 event l at 442.389834664'
p1710
aS'staircase 2 updated from 5.032503 to 5.032503 after response 1 at 442.389847'
p1711
aa(lp1712
S'trial 56 started at 444.054688464'
p1713
aS'trial 56 phase 6 started at 447.247811318'
p1714
aS'trial 56 event f at 450.031182212'
p1715
aS'staircase 0 updated from 14.997674 to 12.044558 after response 1 at 450.031198'
p1716
aa(lp1717
S'trial 57 started at 450.691997189'
p1718
aS'trial 57 phase 6 started at 453.880789576'
p1719
aS'trial 57 event f at 454.78089292'
p1720
aa(lp1721
S'trial 58 started at 457.32141614'
p1722
aS'trial 58 phase 6 started at 460.513785509'
p1723
aS'trial 58 event l at 461.538906778'
p1724
aS'staircase 2 updated from 5.032503 to 5.032503 after response 1 at 461.538920'
p1725
aa(lp1726
S'trial 59 started at 463.955514503'
p1727
aS'trial 59 phase 6 started at 467.146764337'
p1728
aS'trial 59 event f at 467.980213273'
p1729
aS'staircase 1 updated from 32.483028 to 29.972879 after response 1 at 467.980230'
p1730
aa(lp1731
S'trial 60 started at 470.583684489'
p1732
aS'trial 60 phase 6 started at 473.779751148'
p1733
aS'trial 60 event s at 474.77148734'
p1734
aS'staircase 1 updated from 29.972879 to 29.972879 after response 1 at 474.771500'
p1735
aa(lp1736
S'trial 61 started at 477.225861639'
p1737
aS'trial 61 phase 6 started at 480.4210317'
p1738
aS'trial 61 event l at 481.879425436'
p1739
aS'staircase 3 updated from 4.751785 to 4.751785 after response 1 at 481.879440'
p1740
aa(lp1741
S'trial 62 started at 483.861025656'
p1742
aS'trial 62 phase 6 started at 487.054057568'
p1743
aS'trial 62 event f at 489.137329393'
p1744
aS'staircase 0 updated from 12.044558 to 12.044558 after response 1 at 489.137353'
p1745
aa(lp1746
S'trial 63 started at 490.500686061'
p1747
aS'trial 63 phase 6 started at 494.195289513'
p1748
aS'trial 63 event l at 495.695362067'
p1749
aS'staircase 2 updated from 5.032503 to 5.135273 after response 0 at 495.695378'
p1750
aa(lp1751
S'trial 64 started at 497.637034756'
p1752
aS'trial 64 phase 6 started at 501.328247957'
p1753
aS'trial 64 event s at 502.369991775'
p1754
aS'staircase 0 updated from 12.044558 to 12.044558 after response 1 at 502.370005'
p1755
aa(lp1756
S'trial 65 started at 504.771340235'
p1757
aS'trial 65 phase 6 started at 507.961197706'
p1758
aS'trial 65 event f at 509.744606516'
p1759
aS'staircase 1 updated from 29.972879 to 29.972879 after response 1 at 509.744620'
p1760
aa(lp1761
S'trial 66 started at 511.410055293'
p1762
aS'trial 66 phase 6 started at 515.102478971'
p1763
aS'trial 66 event j at 517.077546715'
p1764
aS'staircase 2 updated from 5.135273 to 5.135273 after response 1 at 517.077562'
p1765
aa(lp1766
S'trial 67 started at 518.547663501'
p1767
aS'trial 67 phase 6 started at 522.243761662'
p1768
aS'trial 67 event f at 524.252134943'
p1769
aS'staircase 0 updated from 12.044558 to 9.091442 after response 1 at 524.252150'
p1770
aa(lp1771
S'trial 68 started at 525.684973793'
p1772
aS'trial 68 phase 6 started at 529.376718681'
p1773
aS'trial 68 event l at 530.468483524'
p1774
aS'staircase 2 updated from 5.135273 to 5.135273 after response 1 at 530.468497'
p1775
aa(lp1776
S'trial 69 started at 532.822698317'
p1777
aS'trial 69 phase 6 started at 536.518023893'
p1778
aS'trial 69 event f at 538.618062522'
p1779
aS'staircase 1 updated from 29.972879 to 27.462731 after response 1 at 538.618078'
p1780
aa(lp1781
S'trial 70 started at 539.968766758'
p1782
aS'trial 70 phase 6 started at 543.159331529'
p1783
aS'trial 70 event s at 543.967811147'
p1784
aS'staircase 0 updated from 9.091442 to 9.091442 after response 1 at 543.967824'
p1785
aa(lp1786
S'trial 71 started at 546.606975501'
p1787
aS'trial 71 phase 6 started at 550.30059968'
p1788
aS'trial 71 event l at 551.692322758'
p1789
aS'staircase 2 updated from 5.135273 to 5.047919 after response 1 at 551.692338'
p1790
aa(lp1791
S'trial 72 started at 553.742272226'
p1792
aS'trial 72 phase 6 started at 557.433543585'
p1793
aS'trial 72 event j at 559.341930407'
p1794
aS'staircase 3 updated from 4.751785 to 4.751785 after response 1 at 559.341944'
p1795
aa(lp1796
S'trial 73 started at 560.878405966'
p1797
aS'trial 73 phase 6 started at 564.574839389'
p1798
aS'trial 73 event j at 566.366550209'
p1799
aS'staircase 2 updated from 5.047919 to 5.135273 after response 0 at 566.366568'
p1800
aa(lp1801
S'trial 74 started at 568.015657816'
p1802
aS'trial 74 phase 6 started at 571.707790421'
p1803
aS'trial 74 event l at 573.932834717'
p1804
aS'staircase 3 updated from 4.751785 to 4.664431 after response 1 at 573.932850'
p1805
aa(lp1806
S'trial 75 started at 575.155005908'
p1807
aS'trial 75 phase 6 started at 578.849064274'
p1808
aS'trial 75 event l at 579.67419381'
p1809
aS'staircase 2 updated from 5.135273 to 5.135273 after response 1 at 579.674209'
p1810
aa(lp1811
S'trial 76 started at 582.296700834'
p1812
aS'trial 76 phase 6 started at 585.490381888'
p1813
aS'trial 76 event l at 587.007106926'
p1814
aS'staircase 3 updated from 4.664431 to 4.664431 after response 1 at 587.007120'
p1815
aa(lp1816
S'trial 77 started at 588.93725356'
p1817
aS'trial 77 phase 6 started at 592.131690664'
p1818
aS'trial 77 event l at 593.140100436'
p1819
aS'staircase 3 updated from 4.664431 to 4.664431 after response 1 at 593.140114'
p1820
aa(lp1821
S'trial 78 started at 595.576400524'
p1822
aS'trial 78 phase 6 started at 598.773011128'
p1823
aS'trial 78 event l at 599.739758047'
p1824
aS'staircase 3 updated from 4.664431 to 4.577076 after response 1 at 599.739774'
p1825
aa(lp1826
S'trial 79 started at 602.223895681'
p1827
aS'trial 79 phase 6 started at 605.414302229'
p1828
aS'trial 79 event s at 606.297756225'
p1829
aS'staircase 1 updated from 27.462731 to 27.462731 after response 1 at 606.297770'
p1830
aa(lp1831
S'trial 80 started at 608.857325231'
p1832
aS'trial 80 phase 6 started at 612.547252691'
p1833
aS'trial 80 event f at 613.788987671'
p1834
aS'staircase 1 updated from 27.462731 to 27.462731 after response 1 at 613.789001'
p1835
aa(lp1836
S'trial 81 started at 616.000125723'
p1837
aS'trial 81 phase 6 started at 619.188549208'
p1838
aS'trial 81 event j at 620.30530361'
p1839
aS'staircase 2 updated from 5.135273 to 5.135273 after response 1 at 620.305316'
p1840
aa(lp1841
S'trial 82 started at 622.642994779'
p1842
aS'trial 82 phase 6 started at 626.338162417'
p1843
aS'trial 82 event f at 627.796567841'
p1844
aS'staircase 0 updated from 9.091442 to 12.044558 after response 0 at 627.796584'
p1845
aa(lp1846
S'trial 83 started at 629.790181329'
p1847
aS'trial 83 phase 6 started at 633.479481883'
p1848
aS'trial 83 event s at 634.287846897'
p1849
aS'staircase 1 updated from 27.462731 to 24.952582 after response 1 at 634.287872'
p1850
aa(lp1851
S'trial 84 started at 636.927355065'
p1852
aS'trial 84 phase 6 started at 640.620731219'
p1853
aS'trial 84 event f at 642.820831284'
p1854
aS'staircase 0 updated from 12.044558 to 14.997674 after response 0 at 642.820848'
p1855
aa(lp1856
S'trial 85 started at 644.069777248'
p1857
aS'trial 85 phase 6 started at 647.262024885'
p1858
aS'trial 85 event f at 648.695456716'
p1859
aS'staircase 0 updated from 14.997674 to 17.950790 after response 0 at 648.695474'
p1860
aa(lp1861
S'trial 86 started at 650.712681369'
p1862
aS'trial 86 phase 6 started at 654.403297313'
p1863
aS'trial 86 event s at 655.178414091'
p1864
aS'staircase 0 updated from 17.950790 to 17.950790 after response 1 at 655.178429'
p1865
aa(lp1866
S'trial 87 started at 657.856098218'
p1867
aS'trial 87 phase 6 started at 661.044646286'
p1868
aS'trial 87 event f at 663.011335332'
p1869
aS'staircase 1 updated from 24.952582 to 24.952582 after response 1 at 663.011349'
p1870
aa(lp1871
S'trial 88 started at 664.492153417'
p1872
aS'trial 88 phase 6 started at 668.185927266'
p1873
aS'trial 88 event s at 669.727697455'
p1874
aS'staircase 1 updated from 24.952582 to 24.952582 after response 1 at 669.727711'
p1875
aa(lp1876
S'trial 89 started at 671.636526162'
p1877
aS'trial 89 phase 6 started at 675.327206535'
p1878
aS'trial 89 event f at 678.035526363'
p1879
aS'staircase 1 updated from 24.952582 to 22.442433 after response 1 at 678.035542'
p1880
aa(lp1881
S'trial 90 started at 678.772970361'
p1882
aS'trial 90 phase 6 started at 681.968506474'
p1883
aS'trial 90 event s at 682.843601728'
p1884
aS'staircase 1 updated from 22.442433 to 22.442433 after response 1 at 682.843624'
p1885
aa(lp1886
S'trial 91 started at 685.42560278'
p1887
aS'trial 91 phase 6 started at 689.118137358'
p1888
aS'trial 91 event l at 690.068210696'
p1889
aS'staircase 3 updated from 4.577076 to 4.577076 after response 1 at 690.068224'
p1890
aa(lp1891
S'trial 92 started at 692.568174918'
p1892
aS'trial 92 phase 6 started at 695.759420476'
p1893
aS'trial 92 event j at 697.317869376'
p1894
aS'staircase 3 updated from 4.577076 to 4.664431 after response 0 at 697.317885'
p1895
aa(lp1896
S'trial 93 started at 699.216560401'
p1897
aS'trial 93 phase 6 started at 702.909042807'
p1898
aS'trial 93 event f at 703.725851233'
p1899
aS'staircase 1 updated from 22.442433 to 22.442433 after response 1 at 703.725864'
p1900
aa(lp1901
S'trial 94 started at 706.366031636'
p1902
aS'trial 94 phase 6 started at 710.058667419'
p1903
aS'trial 94 event f at 711.333758968'
p1904
aS'staircase 1 updated from 22.442433 to 19.932285 after response 1 at 711.333776'
p1905
aa(lp1906
S'trial 95 started at 713.50982537'
p1907
aS'trial 95 phase 6 started at 716.699963366'
p1908
aS'trial 95 event j at 718.125015359'
p1909
aS'staircase 3 updated from 4.664431 to 4.664431 after response 1 at 718.125030'
p1910
aa(lp1911
S'trial 96 started at 720.153656878'
p1912
aS'trial 96 phase 6 started at 723.349607792'
p1913
aS'trial 96 event j at 724.216352572'
p1914
aS'staircase 2 updated from 5.135273 to 5.061022 after response 1 at 724.216369'
p1915
aa(lp1916
S'trial 97 started at 726.801483876'
p1917
aS'trial 97 phase 6 started at 729.990897467'
p1918
aS'trial 97 event f at 732.482605863'
p1919
aS'staircase 0 updated from 17.950790 to 17.950790 after response 1 at 732.482628'
p1920
aa(lp1921
S'trial 98 started at 733.445182819'
p1922
aS'trial 98 phase 6 started at 736.640546739'
p1923
aS'trial 98 event f at 739.273884491'
p1924
aS'staircase 0 updated from 17.950790 to 20.460939 after response 0 at 739.273901'
p1925
aa(lp1926
S'trial 99 started at 740.092824226'
p1927
aS'trial 99 phase 6 started at 743.781799781'
p1928
aS'trial 99 event l at 744.665236672'
p1929
aS'staircase 2 updated from 5.061022 to 5.061022 after response 1 at 744.665250'
p1930
aasS'trialResponses'
p1931
(lp1932
s.