(lp1
ccopy_reg
_reconstructor
p2
(cStaircase
ThreeUpOneDownStaircase
p3
c__builtin__
object
p4
NtRp5
(dp6
S'nr_reversals'
p7
I10
sS'nr_correct'
p8
I0
sS'max_nr_trials'
p9
I10000
sS'past_answers'
p10
(lp11
I1
aI1
aI0
aI1
aI1
aI1
aI1
aI1
aI1
aI1
aI1
aI1
aI1
aI1
aI1
aI1
aI1
aI1
aI1
aI1
aI1
aI1
aI1
aI0
aI1
aI1
aI1
aI0
aI0
aI1
aI1
aI1
aI1
aI1
aI1
aI1
aI0
aI1
aI1
aI1
aI1
aI1
aI1
aI1
aI1
aI1
aI0
aI0
aI1
aI0
aI1
aI1
aI1
aI1
aI1
aI1
aI1
aI1
aI1
aI0
aI1
aI1
aI1
aI0
aI1
aI1
aI1
aI0
aI1
aI1
aI0
aI0
aI1
aI1
aI1
aI1
aI1
aI1
aI1
aI1
aI1
aI1
aI0
aI0
aI0
aI1
aI1
aI0
asS'present_increment_value'
p12
F2.5101486553442136
sS'initial_value'
p13
I70
sS'nr_trials'
p14
I88
sS'initial_stepsize'
p15
I15
sS'min_test_val'
p16
F0.001
sS'max_test_val'
p17
I110
sS'increment_value'
p18
I15
sS'stepsize_multiplication_on_reversal'
p19
F0.84999999999999998
sS'test_values'
p20
(lp21
I70
aI85
aF72.25
aF59.5
aF46.75
aF34
aF21.25
aF8.5
aF21.25
aF10.4125
aF21.25
aF32.087499999999999
aF22.875624999999999
aF13.663749999999999
aF22.875624999999999
aF15.04553125
aF7.2154374999999993
aF0.001
aF7.8310937500000009
aF15.6611875
aF22.316767187500002
aF16.659524453125002
aF11.002281718750002
aF5.3450389843750017
aF11.002281718750002
aF6.193625394531252
aF11.002281718750002
aF6.9149238431640647
aF11.002281718750002
aF14.476535912998049
aF17.950790107246096
aF14.997674042135257
aF12.044557977024418
aF9.091441911913579
aF12.044557977024418
aF14.997674042135257
aF17.950790107246096
aF20.46093876259031
asS'present_nr_reversals'
p22
I23
sbag2
(g3
g4
NtRp23
(dp24
g7
I10
sg8
I0
sg9
I10000
sg10
(lp25
I1
aI1
aI1
aI1
aI1
aI1
aI1
aI1
aI1
aI1
aI1
aI1
aI0
aI1
aI1
aI1
aI1
aI1
aI0
aI1
aI1
aI0
aI1
aI1
aI1
aI1
aI1
aI1
aI0
aI1
aI1
aI1
aI1
aI1
aI0
aI1
aI1
aI1
aI0
aI1
aI0
aI1
aI0
aI1
aI1
aI1
aI1
aI1
aI1
aI1
aI1
aI1
aI0
aI0
aI1
aI1
aI1
aI1
aI1
aI1
aI1
aI1
aI1
aI1
aI1
aI1
aI0
aI0
aI0
aI1
aI1
aI0
aI1
aI1
aI1
aI1
aI1
aI1
aI1
aI1
aI1
aI1
aI1
aI1
aI1
aI1
aI1
asg12
F2.5101486553442136
sg13
I70
sg14
I87
sg15
I15
sg16
F0.001
sg17
I110
sg18
I15
sg19
F0.84999999999999998
sg20
(lp26
I70
aI55
aI40
aI25
aI10
aI25
aF12.25
aF25
aF35.837499999999999
aF26.625624999999999
aF17.41375
aF26.625624999999999
aF18.79553125
aF26.625624999999999
aF19.970045312499998
aF26.625624999999999
aF32.282867734375003
aF37.091524058593755
aF33.004166183007818
aF28.916808307421881
aF24.829450431835944
aF28.916808307421881
aF33.004166183007818
aF29.529911988759771
aF26.055657794511724
aF22.581403600263677
aF19.10714940601563
aF22.581403600263677
aF26.055657794511724
aF29.529911988759771
aF32.483028053870612
aF29.972879398526398
aF27.462730743182185
aF24.952582087837971
aF22.442433432493758
aF19.932284777149544
asg22
I22
sbag2
(g3
g4
NtRp27
(dp28
g7
I10
sg8
I1
sg9
I10000
sg10
(lp29
I0
aI1
aI1
aI1
aI1
aI1
aI0
aI1
aI0
aI1
aI1
aI1
aI0
aI1
aI1
aI1
aI0
aI1
aI1
aI1
aI1
aI1
aI1
aI1
aI1
aI1
aI1
aI1
aI0
aI1
aI1
aI1
aI0
aI1
aI0
aI1
aI1
aI1
aI1
aI0
aI0
aI1
aI0
aI1
aI0
aI1
aI1
aI0
aI1
aI1
aI1
aI0
aI1
aI1
aI1
aI1
aI1
aI1
aI1
aI0
aI0
aI0
aI1
aI1
aI1
aI1
aI1
aI1
aI1
aI1
aI0
aI1
aI1
aI1
aI1
aI1
aI0
aI1
aI1
aI1
aI0
aI1
aI1
aI1
aI1
asg12
F0.074251086236063898
sg13
I3
sg14
I85
sg15
I1
sg16
F0.001
sg17
I15
sg18
I1
sg19
F0.84999999999999998
sg20
(lp30
I3
aI4
aI3
aI4
aF4.8499999999999996
aF4.1274999999999995
aF4.8499999999999996
aF4.2358750000000001
aF4.8499999999999996
aF4.3279937500000001
aF3.8059875000000001
aF3.2839812500000001
aF3.8059875000000001
aF3.3622821875
aF3.8059874999999996
aF4.1831370156249994
aF3.8625599273437494
aF4.1831370156249994
aF4.4556275406640617
aF4.7281180657031241
aF4.9597350119863268
aF5.1566094163270497
aF4.9892661726374357
aF5.1566094163270497
aF5.0143676591908779
aF4.8721259020547061
aF5.0143676591908779
aF5.135273152756624
aF5.2561786463223701
aF5.135273152756624
aF5.0143676591908779
aF5.135273152756624
aF5.0325034832257396
aF5.135273152756624
aF5.0479189336553727
aF5.135273152756624
aF5.0610220665205601
asg22
I33
sbag2
(g3
g4
NtRp31
(dp32
g7
I10
sg8
I1
sg9
I10000
sg10
(lp33
I1
aI1
aI0
aI1
aI1
aI1
aI1
aI1
aI1
aI1
aI0
aI1
aI1
aI1
aI1
aI1
aI1
aI1
aI1
aI0
aI0
aI1
aI0
aI1
aI1
aI1
aI1
aI1
aI1
aI1
aI1
aI0
aI0
aI1
aI1
aI1
aI1
aI1
aI1
aI1
aI0
aI0
aI0
aI1
aI1
aI1
aI0
aI1
aI0
aI1
aI1
aI0
aI1
aI1
aI1
aI1
aI1
aI1
aI1
aI0
aI1
aI1
aI0
aI1
aI1
aI0
aI1
aI1
aI1
aI1
aI1
aI1
aI1
aI1
aI1
aI0
aI1
aI1
aI1
aI1
aI1
aI1
aI0
aI0
aI1
aI1
aI1
aI0
aI0
aI1
aI1
aI1
aI1
aI1
aI1
aI1
aI0
aI1
asg12
F0.074251086236063898
sg13
I3
sg14
I98
sg15
I1
sg16
F0.001
sg17
I15
sg18
I1
sg19
F0.84999999999999998
sg20
(lp34
I3
aI4
aF3.1499999999999999
aF2.2999999999999998
aF3.1499999999999999
aF2.4275000000000002
aF1.7050000000000003
aF2.4275000000000002
aF3.1500000000000004
aF3.7641250000000004
aF3.2421187500000004
aF2.7201125000000004
aF3.2421187500000004
aF3.7641250000000004
aF3.3204196875000003
aF2.8767143750000006
aF3.3204196875000003
aF3.7641249999999999
aF4.2078303124999996
aF3.8306807968749998
aF4.2078303124999996
aF4.5284074007812496
aF4.8008979258203119
aF4.5692809795371092
aF4.3376640332539065
aF4.5692809795371092
aF4.7661553838778321
aF4.9334986275674462
aF4.7912568704312744
aF4.6490151132951025
aF4.5067733561589307
aF4.6490151132951025
aF4.5281096197293564
aF4.4072041261636103
aF4.5281096197293564
aF4.6490151132951025
aF4.5462454437642181
aF4.6490151132951025
aF4.7517847828259869
aF4.6644305637247356
aF4.5770763446234843
aF4.6644305637247356
asg22
I32
sba.