(dp0
S'parameterArray'
p1
(lp2
(dp3
S'trial_start'
p4
F131.27126935045817
sS'task'
p5
I2
sS'trial_orientation'
p6
F10.0
sS'base_color_lum'
p7
cnumpy.core.multiarray
scalar
p8
(cnumpy
dtype
p9
(S'i4'
p10
I0
I1
tp11
Rp12
(I3
S'<'
p13
NNNI-1
I-1
I0
tp14
bS'7\x00\x00\x00'
p15
tp16
Rp17
sS'trial_cue'
p18
S'green135'
p19
sS'trial_color'
p20
I70
sS'trial_stimulus_label'
p21
S'red45'
p22
sS'trial_stimulus'
p23
I0
sS'base_ori'
p24
g8
(g12
S'-\x00\x00\x00'
p25
tp26
Rp27
sS'trial_end'
p28
F137.61123738714377
sS'base_color_b'
p29
g8
(g12
S'K\x00\x00\x00'
p30
tp31
Rp32
sS'base_color_a'
p33
g8
(g12
S'P\x00\x00\x00'
p34
tp35
Rp36
sS'trial_position_y'
p37
I0
sS'trial_position_x'
p38
I0
sa(dp39
g4
F137.86524154178915
sg5
I2
sg6
F-10.0
sg7
g8
(g12
S'7\x00\x00\x00'
p40
tp41
Rp42
sg18
g19
sg20
I-70
sg21
g19
sg23
I3
sg24
g8
(g12
S'\x87\x00\x00\x00'
p43
tp44
Rp45
sg28
F144.2115932621091
sg29
g8
(g12
S'K\x00\x00\x00'
p46
tp47
Rp48
sg33
g8
(g12
S'\xb0\xff\xff\xff'
p49
tp50
Rp51
sg37
I0
sg38
I0
sa(dp52
g4
F144.46395916033362
sg5
I2
sg6
F-10.0
sg7
g8
(g12
S'7\x00\x00\x00'
p53
tp54
Rp55
sg18
g22
sg20
I-70
sg21
g19
sg23
I3
sg24
g8
(g12
S'\x87\x00\x00\x00'
p56
tp57
Rp58
sg28
F151.30360118141107
sg29
g8
(g12
S'K\x00\x00\x00'
p59
tp60
Rp61
sg33
g8
(g12
S'\xb0\xff\xff\xff'
p62
tp63
Rp64
sg37
I0
sg38
I0
sa(dp65
g4
F151.55744561569009
sg5
I1
sg6
F10.0
sg7
g8
(g12
S'7\x00\x00\x00'
p66
tp67
Rp68
sg18
g19
sg20
I-70
sg21
g19
sg23
I3
sg24
g8
(g12
S'\x87\x00\x00\x00'
p69
tp70
Rp71
sg28
F153.03692331080674
sg29
g8
(g12
S'K\x00\x00\x00'
p72
tp73
Rp74
sg33
g8
(g12
S'\xb0\xff\xff\xff'
p75
tp76
Rp77
sg37
I0
sg38
I0
sasS'eventArray'
p78
(lp79
(lp80
S'trial 0 started at 131.27126935'
p81
aS'trial 0 phase 6 started at 134.46080324'
p82
aa(lp83
S'trial 1 started at 137.865241542'
p84
aS'trial 1 phase 6 started at 141.061139871'
p85
aa(lp86
S'trial 2 started at 144.46395916'
p87
aS'trial 2 phase 6 started at 148.153197823'
p88
aa(lp89
S'trial 3 started at 151.557445616'
p90
a(lp91
I-99
aF1.4711802534293383
aaasS'trialResponses'
p92
(lp93
s.