(lp1
ccopy_reg
_reconstructor
p2
(cStaircase
ThreeUpOneDownStaircase
p3
c__builtin__
object
p4
NtRp5
(dp6
S'nr_reversals'
p7
I10
sS'nr_correct'
p8
I1
sS'max_nr_trials'
p9
I40
sS'past_answers'
p10
(lp11
F0.5
aF0.5
aF0.5
aI1
aI0
aI0
aI1
aI0
aI0
aI0
aI0
aI0
aI0
aI0
aI0
aI0
aI1
aI0
aI1
aI0
aI1
aI0
aI1
aI1
aI1
aI1
aI0
aI1
asS'present_increment_value'
p12
F2.669677734375
sS'initial_value'
p13
I70
sS'nr_trials'
p14
I25
sS'initial_stepsize'
p15
I15
sS'test_value'
p16
F220.76171875
sS'increment_value'
p17
I15
sS'stepsize_multiplication_on_reversal'
p18
F0.75
sS'present_nr_reversals'
p19
I12
sbag2
(g3
g4
NtRp20
(dp21
g7
I10
sg8
I2
sg9
I40
sg10
(lp22
F0.5
aF0.5
aF0.5
aI1
aI0
aI1
aI0
aI1
aI1
aI1
aI1
aI0
aI1
aI1
aI1
aI1
aI1
aI1
aI1
aI1
aI1
aI0
aI1
aI1
aI1
aI1
aI1
asg12
F4.74609375
sg13
I70
sg14
I24
sg15
I15
sg16
F78.84765625
sg17
I15
sg18
F0.75
sg19
I8
sbag2
(g3
g4
NtRp23
(dp24
g7
I10
sg8
I0
sg9
I40
sg10
(lp25
F0.5
aF0.5
aF0.5
aI1
aI1
aI1
aI1
aI1
aI1
aI1
aI1
aI1
aI1
aI0
aI1
aI1
aI0
aI0
aI1
aI0
aI1
aI0
aI1
aI1
aI1
aI0
asg12
F0.31640625
sg13
I3
sg14
I23
sg15
I1
sg16
F3.484375
sg17
I1
sg18
F0.75
sg19
I9
sbag2
(g3
g4
NtRp26
(dp27
g7
I10
sg8
I1
sg9
I40
sg10
(lp28
F0.5
aF0.5
aF0.5
aI0
aI1
aI1
aI1
aI1
aI1
aI1
aI0
aI1
aI1
aI0
aI0
aI0
aI1
aI1
aI0
aI1
aI1
aI1
aI1
aI1
aI1
aI1
asg12
F0.421875
sg13
I3
sg14
I23
sg15
I1
sg16
F4.59375
sg17
I1
sg18
F0.75
sg19
I7
sba.