(lp1
(dp2
S'parameterArray'
p3
(lp4
(dp5
S'reaction_time'
p6
F1.0667225436573062
sS'trial_start'
p7
F325.30878508882597
sS'task'
p8
I2
sS'trial_orientation'
p9
F3.8625599273437494
sS'base_color_lum'
p10
cnumpy.core.multiarray
scalar
p11
(cnumpy
dtype
p12
(S'i4'
I0
I1
tRp13
(I3
S'<'
NNNI-1
I-1
I0
tbS'7\x00\x00\x00'
tRp14
sS'button'
p15
S'l'
sS'trial_cue'
p16
S'red45'
p17
sS'trial_color'
p18
F-19.970045312499998
sS'trial_stimulus_label'
p19
S'green45'
p20
sS'trial_stimulus'
p21
I2
sS'base_ori'
p22
g11
(g13
S'-\x00\x00\x00'
tRp23
sS'trial_end'
p24
F332.15025408351175
sS'base_color_b'
p25
g11
(g13
S'K\x00\x00\x00'
tRp26
sS'base_color_a'
p27
g11
(g13
S'\xb0\xff\xff\xff'
tRp28
sS'correct_answer'
p29
I1
sS'trial_position_y'
p30
I0
sS'trial_position_x'
p31
I0
sS'response'
p32
I1
sS'trial_direction'
p33
F1
sa(dp34
g7
F332.40811043118083
sg8
I1
sg9
F3.8625599273437494
sg10
g11
(g13
S'7\x00\x00\x00'
tRp35
sg16
g20
sg18
F15.04553125
sg19
g17
sg21
I0
sg22
g11
(g13
S'-\x00\x00\x00'
tRp36
sg24
F336.95825133527615
sg25
g11
(g13
S'K\x00\x00\x00'
tRp37
sg27
g11
(g13
S'P\x00\x00\x00'
tRp38
sg30
I0
sg31
I0
sasS'eventArray'
p39
(lp40
(lp41
S'trial 0 started at 325.308785089'
p42
aS'trial 0 phase 6 started at 329.000199561'
p43
aS'trial 0 event l at 330.066919539'
p44
aS'staircase 2 updated from 3.862560 to 3.862560 after response 1 at 330.066934'
p45
aa(lp46
S'trial 1 started at 332.408110431'
p47
aS'trial 1 phase 6 started at 335.599844913'
p48
a(lp49
I-99
aF4.5417493774402828
aaasS'trialResponses'
p50
(lp51
sa(lp52
ccopy_reg
_reconstructor
p53
(cpandas.core.frame
DataFrame
p54
c__builtin__
object
p55
NtRp56
g53
(cpandas.core.internals
BlockManager
p57
g55
NtRp58
((lp59
cnumpy.core.multiarray
_reconstruct
p60
(cpandas.core.index
Index
p61
(I0
tS'b'
tRp62
((I1
(I19
tg12
(S'O4'
I0
I1
tRp63
(I3
S'|'
NNNI-1
I-1
I63
tbI00
(lp64
g27
ag25
ag10
ag22
ag15
ag29
ag6
ag32
ag8
ag18
ag16
ag33
ag24
ag9
ag31
ag30
ag7
ag21
ag19
at(Nttbag60
(cpandas.core.index
Int64Index
p65
(I0
tS'b'
tRp66
((I1
(I1
tg12
(S'i8'
I0
I1
tRp67
(I3
S'<'
NNNI-1
I-1
I0
tbI00
S'\x00\x00\x00\x00\x00\x00\x00\x00'
t(Nttba(lp68
g60
(cnumpy
ndarray
p69
(I0
tS'b'
tRp70
(I1
(I6
I1
tg12
(S'f8'
I0
I1
tRp71
(I3
S'<'
NNNI-1
I-1
I0
tbI00
S'\x00\xa0n\xa8K\x11\xf1?Z\xd3\xbc\xe3T\xf83\xc0\x00\x00\x00\x00\x00\x00\xf0?`l\xd3pg\xc2t@\x98@\xb6\xd1\x85\xe6\x0e@\x00 \xa2\xc8\xf0Tt@'
tbag60
(g69
(I0
tS'b'
tRp72
(I1
(I10
I1
tg67
I00
S'\xb0\xff\xff\xff\xff\xff\xff\xffK\x00\x00\x00\x00\x00\x00\x007\x00\x00\x00\x00\x00\x00\x00-\x00\x00\x00\x00\x00\x00\x00\x01\x00\x00\x00\x00\x00\x00\x00\x01\x00\x00\x00\x00\x00\x00\x00\x02\x00\x00\x00\x00\x00\x00\x00\x00\x00\x00\x00\x00\x00\x00\x00\x00\x00\x00\x00\x00\x00\x00\x00\x02\x00\x00\x00\x00\x00\x00\x00'
tbag60
(g69
(I0
tS'b'
tRp73
(I1
(I3
I1
tg63
I00
(lp74
S'l'
ag17
ag20
atba(lp75
g60
(g61
(I0
tS'b'
tRp76
((I1
(I6
tg63
I00
(lp77
g6
ag18
ag33
ag24
ag9
ag7
at(Nttbag60
(g61
(I0
tS'b'
tRp78
((I1
(I10
tg63
I00
(lp79
g27
ag25
ag10
ag22
ag29
ag32
ag8
ag31
ag30
ag21
at(Nttbag60
(g61
(I0
tS'b'
tRp80
((I1
(I3
tg63
I00
(lp81
g15
ag16
ag19
at(Nttbatbbag53
(g54
g55
NtRp82
g53
(g57
g55
NtRp83
((lp84
g60
(g61
(I0
tS'b'
tRp85
((I1
(I14
tg63
I00
(lp86
g27
ag25
ag10
ag22
ag8
ag18
ag16
ag24
ag9
ag31
ag30
ag7
ag21
ag19
at(Nttbag60
(g65
(I0
tS'b'
tRp87
((I1
(I1
tg67
I00
S'\x01\x00\x00\x00\x00\x00\x00\x00'
t(Nttba(lp88
g60
(g69
(I0
tS'b'
tRp89
(I1
(I4
I1
tg71
I00
S'Zd;\xdfO\x17.@\xc0%Z\xffT\x0fu@\x98@\xb6\xd1\x85\xe6\x0e@@\xb1\xcd\x9e\x87\xc6t@'
tbag60
(g69
(I0
tS'b'
tRp90
(I1
(I8
I1
tg67
I00
S'P\x00\x00\x00\x00\x00\x00\x00K\x00\x00\x00\x00\x00\x00\x007\x00\x00\x00\x00\x00\x00\x00-\x00\x00\x00\x00\x00\x00\x00\x01\x00\x00\x00\x00\x00\x00\x00\x00\x00\x00\x00\x00\x00\x00\x00\x00\x00\x00\x00\x00\x00\x00\x00\x00\x00\x00\x00\x00\x00\x00\x00'
tbag60
(g69
(I0
tS'b'
tRp91
(I1
(I2
I1
tg63
I00
(lp92
g20
ag17
atba(lp93
g60
(g61
(I0
tS'b'
tRp94
((I1
(I4
tg63
I00
(lp95
g18
ag24
ag9
ag7
at(Nttbag60
(g61
(I0
tS'b'
tRp96
((I1
(I8
tg63
I00
(lp97
g27
ag25
ag10
ag22
ag8
ag31
ag30
ag21
at(Nttbag60
(g61
(I0
tS'b'
tRp98
((I1
(I2
tg63
I00
(lp99
g16
ag19
at(Nttbatbbaa(lp100
(dp101
g19
g20
sg21
I2
sg22
g23
sg8
I2
sg25
g26
sg10
g14
sg27
g28
sg30
I0
sg31
I0
sg16
g17
sa(dp102
g19
g17
sg21
I0
sg22
g36
sg8
I1
sg25
g37
sg10
g35
sg27
g38
sg30
I0
sg31
I0
sg16
g20
sa(dp103
g19
g17
sg21
I0
sg22
g11
(g13
S'-\x00\x00\x00'
tRp104
sg8
I2
sg25
g11
(g13
S'K\x00\x00\x00'
tRp105
sg10
g11
(g13
S'7\x00\x00\x00'
tRp106
sg27
g11
(g13
S'P\x00\x00\x00'
tRp107
sg30
I0
sg31
I0
sg16
g17
sa(dp108
g19
S'red135'
p109
sg21
I1
sg22
g11
(g13
S'\x87\x00\x00\x00'
tRp110
sg8
I2
sg25
g11
(g13
S'K\x00\x00\x00'
tRp111
sg10
g11
(g13
S'7\x00\x00\x00'
tRp112
sg27
g11
(g13
S'P\x00\x00\x00'
tRp113
sg30
I0
sg31
I0
sg16
g17
sa(dp114
g19
g17
sg21
I0
sg22
g11
(g13
S'-\x00\x00\x00'
tRp115
sg8
I2
sg25
g11
(g13
S'K\x00\x00\x00'
tRp116
sg10
g11
(g13
S'7\x00\x00\x00'
tRp117
sg27
g11
(g13
S'P\x00\x00\x00'
tRp118
sg30
I0
sg31
I0
sg16
S'green135'
p119
sa(dp120
g19
g119
sg21
I3
sg22
g11
(g13
S'\x87\x00\x00\x00'
tRp121
sg8
I1
sg25
g11
(g13
S'K\x00\x00\x00'
tRp122
sg10
g11
(g13
S'7\x00\x00\x00'
tRp123
sg27
g11
(g13
S'\xb0\xff\xff\xff'
tRp124
sg30
I0
sg31
I0
sg16
g17
sa(dp125
g19
g119
sg21
I3
sg22
g11
(g13
S'\x87\x00\x00\x00'
tRp126
sg8
I1
sg25
g11
(g13
S'K\x00\x00\x00'
tRp127
sg10
g11
(g13
S'7\x00\x00\x00'
tRp128
sg27
g11
(g13
S'\xb0\xff\xff\xff'
tRp129
sg30
I0
sg31
I0
sg16
g109
sa(dp130
g19
g119
sg21
I3
sg22
g11
(g13
S'\x87\x00\x00\x00'
tRp131
sg8
I2
sg25
g11
(g13
S'K\x00\x00\x00'
tRp132
sg10
g11
(g13
S'7\x00\x00\x00'
tRp133
sg27
g11
(g13
S'\xb0\xff\xff\xff'
tRp134
sg30
I0
sg31
I0
sg16
g109
sa(dp135
g19
g17
sg21
I0
sg22
g11
(g13
S'-\x00\x00\x00'
tRp136
sg8
I1
sg25
g11
(g13
S'K\x00\x00\x00'
tRp137
sg10
g11
(g13
S'7\x00\x00\x00'
tRp138
sg27
g11
(g13
S'P\x00\x00\x00'
tRp139
sg30
I0
sg31
I0
sg16
g17
sa(dp140
g19
g17
sg21
I0
sg22
g11
(g13
S'-\x00\x00\x00'
tRp141
sg8
I1
sg25
g11
(g13
S'K\x00\x00\x00'
tRp142
sg10
g11
(g13
S'7\x00\x00\x00'
tRp143
sg27
g11
(g13
S'P\x00\x00\x00'
tRp144
sg30
I0
sg31
I0
sg16
g119
sa(dp145
g19
g20
sg21
I2
sg22
g11
(g13
S'-\x00\x00\x00'
tRp146
sg8
I1
sg25
g11
(g13
S'K\x00\x00\x00'
tRp147
sg10
g11
(g13
S'7\x00\x00\x00'
tRp148
sg27
g11
(g13
S'\xb0\xff\xff\xff'
tRp149
sg30
I0
sg31
I0
sg16
g17
sa(dp150
g19
g20
sg21
I2
sg22
g11
(g13
S'-\x00\x00\x00'
tRp151
sg8
I2
sg25
g11
(g13
S'K\x00\x00\x00'
tRp152
sg10
g11
(g13
S'7\x00\x00\x00'
tRp153
sg27
g11
(g13
S'\xb0\xff\xff\xff'
tRp154
sg30
I0
sg31
I0
sg16
g20
sa(dp155
g19
g119
sg21
I3
sg22
g11
(g13
S'\x87\x00\x00\x00'
tRp156
sg8
I2
sg25
g11
(g13
S'K\x00\x00\x00'
tRp157
sg10
g11
(g13
S'7\x00\x00\x00'
tRp158
sg27
g11
(g13
S'\xb0\xff\xff\xff'
tRp159
sg30
I0
sg31
I0
sg16
g17
sa(dp160
g19
g109
sg21
I1
sg22
g11
(g13
S'\x87\x00\x00\x00'
tRp161
sg8
I1
sg25
g11
(g13
S'K\x00\x00\x00'
tRp162
sg10
g11
(g13
S'7\x00\x00\x00'
tRp163
sg27
g11
(g13
S'P\x00\x00\x00'
tRp164
sg30
I0
sg31
I0
sg16
g109
sa(dp165
g19
g119
sg21
I3
sg22
g11
(g13
S'\x87\x00\x00\x00'
tRp166
sg8
I2
sg25
g11
(g13
S'K\x00\x00\x00'
tRp167
sg10
g11
(g13
S'7\x00\x00\x00'
tRp168
sg27
g11
(g13
S'\xb0\xff\xff\xff'
tRp169
sg30
I0
sg31
I0
sg16
g17
sa(dp170
g19
g20
sg21
I2
sg22
g11
(g13
S'-\x00\x00\x00'
tRp171
sg8
I1
sg25
g11
(g13
S'K\x00\x00\x00'
tRp172
sg10
g11
(g13
S'7\x00\x00\x00'
tRp173
sg27
g11
(g13
S'\xb0\xff\xff\xff'
tRp174
sg30
I0
sg31
I0
sg16
g109
sa(dp175
g19
g119
sg21
I3
sg22
g11
(g13
S'\x87\x00\x00\x00'
tRp176
sg8
I2
sg25
g11
(g13
S'K\x00\x00\x00'
tRp177
sg10
g11
(g13
S'7\x00\x00\x00'
tRp178
sg27
g11
(g13
S'\xb0\xff\xff\xff'
tRp179
sg30
I0
sg31
I0
sg16
g20
sa(dp180
g19
g17
sg21
I0
sg22
g11
(g13
S'-\x00\x00\x00'
tRp181
sg8
I2
sg25
g11
(g13
S'K\x00\x00\x00'
tRp182
sg10
g11
(g13
S'7\x00\x00\x00'
tRp183
sg27
g11
(g13
S'P\x00\x00\x00'
tRp184
sg30
I0
sg31
I0
sg16
g17
sa(dp185
g19
g20
sg21
I2
sg22
g11
(g13
S'-\x00\x00\x00'
tRp186
sg8
I1
sg25
g11
(g13
S'K\x00\x00\x00'
tRp187
sg10
g11
(g13
S'7\x00\x00\x00'
tRp188
sg27
g11
(g13
S'\xb0\xff\xff\xff'
tRp189
sg30
I0
sg31
I0
sg16
g20
sa(dp190
g19
g109
sg21
I1
sg22
g11
(g13
S'\x87\x00\x00\x00'
tRp191
sg8
I1
sg25
g11
(g13
S'K\x00\x00\x00'
tRp192
sg10
g11
(g13
S'7\x00\x00\x00'
tRp193
sg27
g11
(g13
S'P\x00\x00\x00'
tRp194
sg30
I0
sg31
I0
sg16
g20
sa(dp195
g19
g17
sg21
I0
sg22
g11
(g13
S'-\x00\x00\x00'
tRp196
sg8
I1
sg25
g11
(g13
S'K\x00\x00\x00'
tRp197
sg10
g11
(g13
S'7\x00\x00\x00'
tRp198
sg27
g11
(g13
S'P\x00\x00\x00'
tRp199
sg30
I0
sg31
I0
sg16
g17
sa(dp200
g19
g119
sg21
I3
sg22
g11
(g13
S'\x87\x00\x00\x00'
tRp201
sg8
I1
sg25
g11
(g13
S'K\x00\x00\x00'
tRp202
sg10
g11
(g13
S'7\x00\x00\x00'
tRp203
sg27
g11
(g13
S'\xb0\xff\xff\xff'
tRp204
sg30
I0
sg31
I0
sg16
g109
sa(dp205
g19
g17
sg21
I0
sg22
g11
(g13
S'-\x00\x00\x00'
tRp206
sg8
I2
sg25
g11
(g13
S'K\x00\x00\x00'
tRp207
sg10
g11
(g13
S'7\x00\x00\x00'
tRp208
sg27
g11
(g13
S'P\x00\x00\x00'
tRp209
sg30
I0
sg31
I0
sg16
g17
sa(dp210
g19
g109
sg21
I1
sg22
g11
(g13
S'\x87\x00\x00\x00'
tRp211
sg8
I2
sg25
g11
(g13
S'K\x00\x00\x00'
tRp212
sg10
g11
(g13
S'7\x00\x00\x00'
tRp213
sg27
g11
(g13
S'P\x00\x00\x00'
tRp214
sg30
I0
sg31
I0
sg16
g109
sa(dp215
g19
g109
sg21
I1
sg22
g11
(g13
S'\x87\x00\x00\x00'
tRp216
sg8
I1
sg25
g11
(g13
S'K\x00\x00\x00'
tRp217
sg10
g11
(g13
S'7\x00\x00\x00'
tRp218
sg27
g11
(g13
S'P\x00\x00\x00'
tRp219
sg30
I0
sg31
I0
sg16
g17
sa(dp220
g19
g109
sg21
I1
sg22
g11
(g13
S'\x87\x00\x00\x00'
tRp221
sg8
I1
sg25
g11
(g13
S'K\x00\x00\x00'
tRp222
sg10
g11
(g13
S'7\x00\x00\x00'
tRp223
sg27
g11
(g13
S'P\x00\x00\x00'
tRp224
sg30
I0
sg31
I0
sg16
g109
sa(dp225
g19
g109
sg21
I1
sg22
g11
(g13
S'\x87\x00\x00\x00'
tRp226
sg8
I1
sg25
g11
(g13
S'K\x00\x00\x00'
tRp227
sg10
g11
(g13
S'7\x00\x00\x00'
tRp228
sg27
g11
(g13
S'P\x00\x00\x00'
tRp229
sg30
I0
sg31
I0
sg16
g109
sa(dp230
g19
g20
sg21
I2
sg22
g11
(g13
S'-\x00\x00\x00'
tRp231
sg8
I1
sg25
g11
(g13
S'K\x00\x00\x00'
tRp232
sg10
g11
(g13
S'7\x00\x00\x00'
tRp233
sg27
g11
(g13
S'\xb0\xff\xff\xff'
tRp234
sg30
I0
sg31
I0
sg16
g20
sa(dp235
g19
g17
sg21
I0
sg22
g11
(g13
S'-\x00\x00\x00'
tRp236
sg8
I2
sg25
g11
(g13
S'K\x00\x00\x00'
tRp237
sg10
g11
(g13
S'7\x00\x00\x00'
tRp238
sg27
g11
(g13
S'P\x00\x00\x00'
tRp239
sg30
I0
sg31
I0
sg16
g17
sa(dp240
g19
g119
sg21
I3
sg22
g11
(g13
S'\x87\x00\x00\x00'
tRp241
sg8
I1
sg25
g11
(g13
S'K\x00\x00\x00'
tRp242
sg10
g11
(g13
S'7\x00\x00\x00'
tRp243
sg27
g11
(g13
S'\xb0\xff\xff\xff'
tRp244
sg30
I0
sg31
I0
sg16
g119
sa(dp245
g19
g119
sg21
I3
sg22
g11
(g13
S'\x87\x00\x00\x00'
tRp246
sg8
I1
sg25
g11
(g13
S'K\x00\x00\x00'
tRp247
sg10
g11
(g13
S'7\x00\x00\x00'
tRp248
sg27
g11
(g13
S'\xb0\xff\xff\xff'
tRp249
sg30
I0
sg31
I0
sg16
g119
sa(dp250
g19
g119
sg21
I3
sg22
g11
(g13
S'\x87\x00\x00\x00'
tRp251
sg8
I2
sg25
g11
(g13
S'K\x00\x00\x00'
tRp252
sg10
g11
(g13
S'7\x00\x00\x00'
tRp253
sg27
g11
(g13
S'\xb0\xff\xff\xff'
tRp254
sg30
I0
sg31
I0
sg16
g20
sa(dp255
g19
g20
sg21
I2
sg22
g11
(g13
S'-\x00\x00\x00'
tRp256
sg8
I1
sg25
g11
(g13
S'K\x00\x00\x00'
tRp257
sg10
g11
(g13
S'7\x00\x00\x00'
tRp258
sg27
g11
(g13
S'\xb0\xff\xff\xff'
tRp259
sg30
I0
sg31
I0
sg16
g20
sa(dp260
g19
g20
sg21
I2
sg22
g11
(g13
S'-\x00\x00\x00'
tRp261
sg8
I2
sg25
g11
(g13
S'K\x00\x00\x00'
tRp262
sg10
g11
(g13
S'7\x00\x00\x00'
tRp263
sg27
g11
(g13
S'\xb0\xff\xff\xff'
tRp264
sg30
I0
sg31
I0
sg16
g20
sa(dp265
g19
g119
sg21
I3
sg22
g11
(g13
S'\x87\x00\x00\x00'
tRp266
sg8
I1
sg25
g11
(g13
S'K\x00\x00\x00'
tRp267
sg10
g11
(g13
S'7\x00\x00\x00'
tRp268
sg27
g11
(g13
S'\xb0\xff\xff\xff'
tRp269
sg30
I0
sg31
I0
sg16
g20
sa(dp270
g19
g109
sg21
I1
sg22
g11
(g13
S'\x87\x00\x00\x00'
tRp271
sg8
I2
sg25
g11
(g13
S'K\x00\x00\x00'
tRp272
sg10
g11
(g13
S'7\x00\x00\x00'
tRp273
sg27
g11
(g13
S'P\x00\x00\x00'
tRp274
sg30
I0
sg31
I0
sg16
g109
sa(dp275
g19
g109
sg21
I1
sg22
g11
(g13
S'\x87\x00\x00\x00'
tRp276
sg8
I1
sg25
g11
(g13
S'K\x00\x00\x00'
tRp277
sg10
g11
(g13
S'7\x00\x00\x00'
tRp278
sg27
g11
(g13
S'P\x00\x00\x00'
tRp279
sg30
I0
sg31
I0
sg16
g109
sa(dp280
g19
g20
sg21
I2
sg22
g11
(g13
S'-\x00\x00\x00'
tRp281
sg8
I2
sg25
g11
(g13
S'K\x00\x00\x00'
tRp282
sg10
g11
(g13
S'7\x00\x00\x00'
tRp283
sg27
g11
(g13
S'\xb0\xff\xff\xff'
tRp284
sg30
I0
sg31
I0
sg16
g20
sa(dp285
g19
g17
sg21
I0
sg22
g11
(g13
S'-\x00\x00\x00'
tRp286
sg8
I1
sg25
g11
(g13
S'K\x00\x00\x00'
tRp287
sg10
g11
(g13
S'7\x00\x00\x00'
tRp288
sg27
g11
(g13
S'P\x00\x00\x00'
tRp289
sg30
I0
sg31
I0
sg16
g119
sa(dp290
g19
g109
sg21
I1
sg22
g11
(g13
S'\x87\x00\x00\x00'
tRp291
sg8
I1
sg25
g11
(g13
S'K\x00\x00\x00'
tRp292
sg10
g11
(g13
S'7\x00\x00\x00'
tRp293
sg27
g11
(g13
S'P\x00\x00\x00'
tRp294
sg30
I0
sg31
I0
sg16
g20
sa(dp295
g19
g20
sg21
I2
sg22
g11
(g13
S'-\x00\x00\x00'
tRp296
sg8
I2
sg25
g11
(g13
S'K\x00\x00\x00'
tRp297
sg10
g11
(g13
S'7\x00\x00\x00'
tRp298
sg27
g11
(g13
S'\xb0\xff\xff\xff'
tRp299
sg30
I0
sg31
I0
sg16
g20
sa(dp300
g19
g119
sg21
I3
sg22
g11
(g13
S'\x87\x00\x00\x00'
tRp301
sg8
I1
sg25
g11
(g13
S'K\x00\x00\x00'
tRp302
sg10
g11
(g13
S'7\x00\x00\x00'
tRp303
sg27
g11
(g13
S'\xb0\xff\xff\xff'
tRp304
sg30
I0
sg31
I0
sg16
g119
sa(dp305
g19
g20
sg21
I2
sg22
g11
(g13
S'-\x00\x00\x00'
tRp306
sg8
I1
sg25
g11
(g13
S'K\x00\x00\x00'
tRp307
sg10
g11
(g13
S'7\x00\x00\x00'
tRp308
sg27
g11
(g13
S'\xb0\xff\xff\xff'
tRp309
sg30
I0
sg31
I0
sg16
g20
sa(dp310
g19
g17
sg21
I0
sg22
g11
(g13
S'-\x00\x00\x00'
tRp311
sg8
I2
sg25
g11
(g13
S'K\x00\x00\x00'
tRp312
sg10
g11
(g13
S'7\x00\x00\x00'
tRp313
sg27
g11
(g13
S'P\x00\x00\x00'
tRp314
sg30
I0
sg31
I0
sg16
g17
sa(dp315
g19
g20
sg21
I2
sg22
g11
(g13
S'-\x00\x00\x00'
tRp316
sg8
I1
sg25
g11
(g13
S'K\x00\x00\x00'
tRp317
sg10
g11
(g13
S'7\x00\x00\x00'
tRp318
sg27
g11
(g13
S'\xb0\xff\xff\xff'
tRp319
sg30
I0
sg31
I0
sg16
g20
sa(dp320
g19
g17
sg21
I0
sg22
g11
(g13
S'-\x00\x00\x00'
tRp321
sg8
I1
sg25
g11
(g13
S'K\x00\x00\x00'
tRp322
sg10
g11
(g13
S'7\x00\x00\x00'
tRp323
sg27
g11
(g13
S'P\x00\x00\x00'
tRp324
sg30
I0
sg31
I0
sg16
g109
sa(dp325
g19
g17
sg21
I0
sg22
g11
(g13
S'-\x00\x00\x00'
tRp326
sg8
I2
sg25
g11
(g13
S'K\x00\x00\x00'
tRp327
sg10
g11
(g13
S'7\x00\x00\x00'
tRp328
sg27
g11
(g13
S'P\x00\x00\x00'
tRp329
sg30
I0
sg31
I0
sg16
g109
sa(dp330
g19
g20
sg21
I2
sg22
g11
(g13
S'-\x00\x00\x00'
tRp331
sg8
I1
sg25
g11
(g13
S'K\x00\x00\x00'
tRp332
sg10
g11
(g13
S'7\x00\x00\x00'
tRp333
sg27
g11
(g13
S'\xb0\xff\xff\xff'
tRp334
sg30
I0
sg31
I0
sg16
g17
sa(dp335
g19
g119
sg21
I3
sg22
g11
(g13
S'\x87\x00\x00\x00'
tRp336
sg8
I1
sg25
g11
(g13
S'K\x00\x00\x00'
tRp337
sg10
g11
(g13
S'7\x00\x00\x00'
tRp338
sg27
g11
(g13
S'\xb0\xff\xff\xff'
tRp339
sg30
I0
sg31
I0
sg16
g119
sa(dp340
g19
g20
sg21
I2
sg22
g11
(g13
S'-\x00\x00\x00'
tRp341
sg8
I1
sg25
g11
(g13
S'K\x00\x00\x00'
tRp342
sg10
g11
(g13
S'7\x00\x00\x00'
tRp343
sg27
g11
(g13
S'\xb0\xff\xff\xff'
tRp344
sg30
I0
sg31
I0
sg16
g119
sa(dp345
g19
g109
sg21
I1
sg22
g11
(g13
S'\x87\x00\x00\x00'
tRp346
sg8
I2
sg25
g11
(g13
S'K\x00\x00\x00'
tRp347
sg10
g11
(g13
S'7\x00\x00\x00'
tRp348
sg27
g11
(g13
S'P\x00\x00\x00'
tRp349
sg30
I0
sg31
I0
sg16
g119
sa(dp350
g19
g17
sg21
I0
sg22
g11
(g13
S'-\x00\x00\x00'
tRp351
sg8
I2
sg25
g11
(g13
S'K\x00\x00\x00'
tRp352
sg10
g11
(g13
S'7\x00\x00\x00'
tRp353
sg27
g11
(g13
S'P\x00\x00\x00'
tRp354
sg30
I0
sg31
I0
sg16
g20
sa(dp355
g19
g109
sg21
I1
sg22
g11
(g13
S'\x87\x00\x00\x00'
tRp356
sg8
I1
sg25
g11
(g13
S'K\x00\x00\x00'
tRp357
sg10
g11
(g13
S'7\x00\x00\x00'
tRp358
sg27
g11
(g13
S'P\x00\x00\x00'
tRp359
sg30
I0
sg31
I0
sg16
g109
sa(dp360
g19
g109
sg21
I1
sg22
g11
(g13
S'\x87\x00\x00\x00'
tRp361
sg8
I2
sg25
g11
(g13
S'K\x00\x00\x00'
tRp362
sg10
g11
(g13
S'7\x00\x00\x00'
tRp363
sg27
g11
(g13
S'P\x00\x00\x00'
tRp364
sg30
I0
sg31
I0
sg16
g109
sa(dp365
g19
g20
sg21
I2
sg22
g11
(g13
S'-\x00\x00\x00'
tRp366
sg8
I1
sg25
g11
(g13
S'K\x00\x00\x00'
tRp367
sg10
g11
(g13
S'7\x00\x00\x00'
tRp368
sg27
g11
(g13
S'\xb0\xff\xff\xff'
tRp369
sg30
I0
sg31
I0
sg16
g119
sa(dp370
g19
g109
sg21
I1
sg22
g11
(g13
S'\x87\x00\x00\x00'
tRp371
sg8
I2
sg25
g11
(g13
S'K\x00\x00\x00'
tRp372
sg10
g11
(g13
S'7\x00\x00\x00'
tRp373
sg27
g11
(g13
S'P\x00\x00\x00'
tRp374
sg30
I0
sg31
I0
sg16
g109
sa(dp375
g19
g17
sg21
I0
sg22
g11
(g13
S'-\x00\x00\x00'
tRp376
sg8
I1
sg25
g11
(g13
S'K\x00\x00\x00'
tRp377
sg10
g11
(g13
S'7\x00\x00\x00'
tRp378
sg27
g11
(g13
S'P\x00\x00\x00'
tRp379
sg30
I0
sg31
I0
sg16
g17
sa(dp380
g19
g20
sg21
I2
sg22
g11
(g13
S'-\x00\x00\x00'
tRp381
sg8
I2
sg25
g11
(g13
S'K\x00\x00\x00'
tRp382
sg10
g11
(g13
S'7\x00\x00\x00'
tRp383
sg27
g11
(g13
S'\xb0\xff\xff\xff'
tRp384
sg30
I0
sg31
I0
sg16
g20
sa(dp385
g19
g109
sg21
I1
sg22
g11
(g13
S'\x87\x00\x00\x00'
tRp386
sg8
I2
sg25
g11
(g13
S'K\x00\x00\x00'
tRp387
sg10
g11
(g13
S'7\x00\x00\x00'
tRp388
sg27
g11
(g13
S'P\x00\x00\x00'
tRp389
sg30
I0
sg31
I0
sg16
g109
sa(dp390
g19
g119
sg21
I3
sg22
g11
(g13
S'\x87\x00\x00\x00'
tRp391
sg8
I2
sg25
g11
(g13
S'K\x00\x00\x00'
tRp392
sg10
g11
(g13
S'7\x00\x00\x00'
tRp393
sg27
g11
(g13
S'\xb0\xff\xff\xff'
tRp394
sg30
I0
sg31
I0
sg16
g119
sa(dp395
g19
g109
sg21
I1
sg22
g11
(g13
S'\x87\x00\x00\x00'
tRp396
sg8
I2
sg25
g11
(g13
S'K\x00\x00\x00'
tRp397
sg10
g11
(g13
S'7\x00\x00\x00'
tRp398
sg27
g11
(g13
S'P\x00\x00\x00'
tRp399
sg30
I0
sg31
I0
sg16
g109
sa(dp400
g19
g109
sg21
I1
sg22
g11
(g13
S'\x87\x00\x00\x00'
tRp401
sg8
I2
sg25
g11
(g13
S'K\x00\x00\x00'
tRp402
sg10
g11
(g13
S'7\x00\x00\x00'
tRp403
sg27
g11
(g13
S'P\x00\x00\x00'
tRp404
sg30
I0
sg31
I0
sg16
g109
sa(dp405
g19
g17
sg21
I0
sg22
g11
(g13
S'-\x00\x00\x00'
tRp406
sg8
I1
sg25
g11
(g13
S'K\x00\x00\x00'
tRp407
sg10
g11
(g13
S'7\x00\x00\x00'
tRp408
sg27
g11
(g13
S'P\x00\x00\x00'
tRp409
sg30
I0
sg31
I0
sg16
g17
sa(dp410
g19
g20
sg21
I2
sg22
g11
(g13
S'-\x00\x00\x00'
tRp411
sg8
I2
sg25
g11
(g13
S'K\x00\x00\x00'
tRp412
sg10
g11
(g13
S'7\x00\x00\x00'
tRp413
sg27
g11
(g13
S'\xb0\xff\xff\xff'
tRp414
sg30
I0
sg31
I0
sg16
g20
sa(dp415
g19
g17
sg21
I0
sg22
g11
(g13
S'-\x00\x00\x00'
tRp416
sg8
I1
sg25
g11
(g13
S'K\x00\x00\x00'
tRp417
sg10
g11
(g13
S'7\x00\x00\x00'
tRp418
sg27
g11
(g13
S'P\x00\x00\x00'
tRp419
sg30
I0
sg31
I0
sg16
g17
sa(dp420
g19
g20
sg21
I2
sg22
g11
(g13
S'-\x00\x00\x00'
tRp421
sg8
I2
sg25
g11
(g13
S'K\x00\x00\x00'
tRp422
sg10
g11
(g13
S'7\x00\x00\x00'
tRp423
sg27
g11
(g13
S'\xb0\xff\xff\xff'
tRp424
sg30
I0
sg31
I0
sg16
g119
sa(dp425
g19
g17
sg21
I0
sg22
g11
(g13
S'-\x00\x00\x00'
tRp426
sg8
I1
sg25
g11
(g13
S'K\x00\x00\x00'
tRp427
sg10
g11
(g13
S'7\x00\x00\x00'
tRp428
sg27
g11
(g13
S'P\x00\x00\x00'
tRp429
sg30
I0
sg31
I0
sg16
g17
sa(dp430
g19
g119
sg21
I3
sg22
g11
(g13
S'\x87\x00\x00\x00'
tRp431
sg8
I1
sg25
g11
(g13
S'K\x00\x00\x00'
tRp432
sg10
g11
(g13
S'7\x00\x00\x00'
tRp433
sg27
g11
(g13
S'\xb0\xff\xff\xff'
tRp434
sg30
I0
sg31
I0
sg16
g119
sa(dp435
g19
g109
sg21
I1
sg22
g11
(g13
S'\x87\x00\x00\x00'
tRp436
sg8
I1
sg25
g11
(g13
S'K\x00\x00\x00'
tRp437
sg10
g11
(g13
S'7\x00\x00\x00'
tRp438
sg27
g11
(g13
S'P\x00\x00\x00'
tRp439
sg30
I0
sg31
I0
sg16
g109
sa(dp440
g19
g20
sg21
I2
sg22
g11
(g13
S'-\x00\x00\x00'
tRp441
sg8
I1
sg25
g11
(g13
S'K\x00\x00\x00'
tRp442
sg10
g11
(g13
S'7\x00\x00\x00'
tRp443
sg27
g11
(g13
S'\xb0\xff\xff\xff'
tRp444
sg30
I0
sg31
I0
sg16
g20
sa(dp445
g19
g119
sg21
I3
sg22
g11
(g13
S'\x87\x00\x00\x00'
tRp446
sg8
I1
sg25
g11
(g13
S'K\x00\x00\x00'
tRp447
sg10
g11
(g13
S'7\x00\x00\x00'
tRp448
sg27
g11
(g13
S'\xb0\xff\xff\xff'
tRp449
sg30
I0
sg31
I0
sg16
g119
sa(dp450
g19
g109
sg21
I1
sg22
g11
(g13
S'\x87\x00\x00\x00'
tRp451
sg8
I2
sg25
g11
(g13
S'K\x00\x00\x00'
tRp452
sg10
g11
(g13
S'7\x00\x00\x00'
tRp453
sg27
g11
(g13
S'P\x00\x00\x00'
tRp454
sg30
I0
sg31
I0
sg16
g109
sa(dp455
g19
g109
sg21
I1
sg22
g11
(g13
S'\x87\x00\x00\x00'
tRp456
sg8
I2
sg25
g11
(g13
S'K\x00\x00\x00'
tRp457
sg10
g11
(g13
S'7\x00\x00\x00'
tRp458
sg27
g11
(g13
S'P\x00\x00\x00'
tRp459
sg30
I0
sg31
I0
sg16
g17
sa(dp460
g19
g20
sg21
I2
sg22
g11
(g13
S'-\x00\x00\x00'
tRp461
sg8
I2
sg25
g11
(g13
S'K\x00\x00\x00'
tRp462
sg10
g11
(g13
S'7\x00\x00\x00'
tRp463
sg27
g11
(g13
S'\xb0\xff\xff\xff'
tRp464
sg30
I0
sg31
I0
sg16
g20
sa(dp465
g19
g109
sg21
I1
sg22
g11
(g13
S'\x87\x00\x00\x00'
tRp466
sg8
I1
sg25
g11
(g13
S'K\x00\x00\x00'
tRp467
sg10
g11
(g13
S'7\x00\x00\x00'
tRp468
sg27
g11
(g13
S'P\x00\x00\x00'
tRp469
sg30
I0
sg31
I0
sg16
g109
sa(dp470
g19
g17
sg21
I0
sg22
g11
(g13
S'-\x00\x00\x00'
tRp471
sg8
I1
sg25
g11
(g13
S'K\x00\x00\x00'
tRp472
sg10
g11
(g13
S'7\x00\x00\x00'
tRp473
sg27
g11
(g13
S'P\x00\x00\x00'
tRp474
sg30
I0
sg31
I0
sg16
g17
sa(dp475
g19
g17
sg21
I0
sg22
g11
(g13
S'-\x00\x00\x00'
tRp476
sg8
I2
sg25
g11
(g13
S'K\x00\x00\x00'
tRp477
sg10
g11
(g13
S'7\x00\x00\x00'
tRp478
sg27
g11
(g13
S'P\x00\x00\x00'
tRp479
sg30
I0
sg31
I0
sg16
g20
sa(dp480
g19
g119
sg21
I3
sg22
g11
(g13
S'\x87\x00\x00\x00'
tRp481
sg8
I1
sg25
g11
(g13
S'K\x00\x00\x00'
tRp482
sg10
g11
(g13
S'7\x00\x00\x00'
tRp483
sg27
g11
(g13
S'\xb0\xff\xff\xff'
tRp484
sg30
I0
sg31
I0
sg16
g119
sa(dp485
g19
g119
sg21
I3
sg22
g11
(g13
S'\x87\x00\x00\x00'
tRp486
sg8
I2
sg25
g11
(g13
S'K\x00\x00\x00'
tRp487
sg10
g11
(g13
S'7\x00\x00\x00'
tRp488
sg27
g11
(g13
S'\xb0\xff\xff\xff'
tRp489
sg30
I0
sg31
I0
sg16
g119
sa(dp490
g19
g20
sg21
I2
sg22
g11
(g13
S'-\x00\x00\x00'
tRp491
sg8
I1
sg25
g11
(g13
S'K\x00\x00\x00'
tRp492
sg10
g11
(g13
S'7\x00\x00\x00'
tRp493
sg27
g11
(g13
S'\xb0\xff\xff\xff'
tRp494
sg30
I0
sg31
I0
sg16
g20
sa(dp495
g19
g119
sg21
I3
sg22
g11
(g13
S'\x87\x00\x00\x00'
tRp496
sg8
I2
sg25
g11
(g13
S'K\x00\x00\x00'
tRp497
sg10
g11
(g13
S'7\x00\x00\x00'
tRp498
sg27
g11
(g13
S'\xb0\xff\xff\xff'
tRp499
sg30
I0
sg31
I0
sg16
g119
sa(dp500
g19
g20
sg21
I2
sg22
g11
(g13
S'-\x00\x00\x00'
tRp501
sg8
I2
sg25
g11
(g13
S'K\x00\x00\x00'
tRp502
sg10
g11
(g13
S'7\x00\x00\x00'
tRp503
sg27
g11
(g13
S'\xb0\xff\xff\xff'
tRp504
sg30
I0
sg31
I0
sg16
g109
sa(dp505
g19
g20
sg21
I2
sg22
g11
(g13
S'-\x00\x00\x00'
tRp506
sg8
I1
sg25
g11
(g13
S'K\x00\x00\x00'
tRp507
sg10
g11
(g13
S'7\x00\x00\x00'
tRp508
sg27
g11
(g13
S'\xb0\xff\xff\xff'
tRp509
sg30
I0
sg31
I0
sg16
g20
sa(dp510
g19
g119
sg21
I3
sg22
g11
(g13
S'\x87\x00\x00\x00'
tRp511
sg8
I2
sg25
g11
(g13
S'K\x00\x00\x00'
tRp512
sg10
g11
(g13
S'7\x00\x00\x00'
tRp513
sg27
g11
(g13
S'\xb0\xff\xff\xff'
tRp514
sg30
I0
sg31
I0
sg16
g119
sa(dp515
g19
g119
sg21
I3
sg22
g11
(g13
S'\x87\x00\x00\x00'
tRp516
sg8
I2
sg25
g11
(g13
S'K\x00\x00\x00'
tRp517
sg10
g11
(g13
S'7\x00\x00\x00'
tRp518
sg27
g11
(g13
S'\xb0\xff\xff\xff'
tRp519
sg30
I0
sg31
I0
sg16
g119
sa(dp520
g19
g17
sg21
I0
sg22
g11
(g13
S'-\x00\x00\x00'
tRp521
sg8
I1
sg25
g11
(g13
S'K\x00\x00\x00'
tRp522
sg10
g11
(g13
S'7\x00\x00\x00'
tRp523
sg27
g11
(g13
S'P\x00\x00\x00'
tRp524
sg30
I0
sg31
I0
sg16
g17
sa(dp525
g19
g17
sg21
I0
sg22
g11
(g13
S'-\x00\x00\x00'
tRp526
sg8
I2
sg25
g11
(g13
S'K\x00\x00\x00'
tRp527
sg10
g11
(g13
S'7\x00\x00\x00'
tRp528
sg27
g11
(g13
S'P\x00\x00\x00'
tRp529
sg30
I0
sg31
I0
sg16
g17
sa(dp530
g19
g109
sg21
I1
sg22
g11
(g13
S'\x87\x00\x00\x00'
tRp531
sg8
I2
sg25
g11
(g13
S'K\x00\x00\x00'
tRp532
sg10
g11
(g13
S'7\x00\x00\x00'
tRp533
sg27
g11
(g13
S'P\x00\x00\x00'
tRp534
sg30
I0
sg31
I0
sg16
g119
sa(dp535
g19
g17
sg21
I0
sg22
g11
(g13
S'-\x00\x00\x00'
tRp536
sg8
I2
sg25
g11
(g13
S'K\x00\x00\x00'
tRp537
sg10
g11
(g13
S'7\x00\x00\x00'
tRp538
sg27
g11
(g13
S'P\x00\x00\x00'
tRp539
sg30
I0
sg31
I0
sg16
g17
sa(dp540
g19
g119
sg21
I3
sg22
g11
(g13
S'\x87\x00\x00\x00'
tRp541
sg8
I2
sg25
g11
(g13
S'K\x00\x00\x00'
tRp542
sg10
g11
(g13
S'7\x00\x00\x00'
tRp543
sg27
g11
(g13
S'\xb0\xff\xff\xff'
tRp544
sg30
I0
sg31
I0
sg16
g119
sa(dp545
g19
g109
sg21
I1
sg22
g11
(g13
S'\x87\x00\x00\x00'
tRp546
sg8
I1
sg25
g11
(g13
S'K\x00\x00\x00'
tRp547
sg10
g11
(g13
S'7\x00\x00\x00'
tRp548
sg27
g11
(g13
S'P\x00\x00\x00'
tRp549
sg30
I0
sg31
I0
sg16
g119
sa(dp550
g19
g17
sg21
I0
sg22
g11
(g13
S'-\x00\x00\x00'
tRp551
sg8
I2
sg25
g11
(g13
S'K\x00\x00\x00'
tRp552
sg10
g11
(g13
S'7\x00\x00\x00'
tRp553
sg27
g11
(g13
S'P\x00\x00\x00'
tRp554
sg30
I0
sg31
I0
sg16
g17
sa(dp555
g19
g119
sg21
I3
sg22
g11
(g13
S'\x87\x00\x00\x00'
tRp556
sg8
I1
sg25
g11
(g13
S'K\x00\x00\x00'
tRp557
sg10
g11
(g13
S'7\x00\x00\x00'
tRp558
sg27
g11
(g13
S'\xb0\xff\xff\xff'
tRp559
sg30
I0
sg31
I0
sg16
g119
sa(dp560
g19
g20
sg21
I2
sg22
g11
(g13
S'-\x00\x00\x00'
tRp561
sg8
I2
sg25
g11
(g13
S'K\x00\x00\x00'
tRp562
sg10
g11
(g13
S'7\x00\x00\x00'
tRp563
sg27
g11
(g13
S'\xb0\xff\xff\xff'
tRp564
sg30
I0
sg31
I0
sg16
g109
sa(dp565
g19
g109
sg21
I1
sg22
g11
(g13
S'\x87\x00\x00\x00'
tRp566
sg8
I2
sg25
g11
(g13
S'K\x00\x00\x00'
tRp567
sg10
g11
(g13
S'7\x00\x00\x00'
tRp568
sg27
g11
(g13
S'P\x00\x00\x00'
tRp569
sg30
I0
sg31
I0
sg16
g20
sa(dp570
g19
g109
sg21
I1
sg22
g11
(g13
S'\x87\x00\x00\x00'
tRp571
sg8
I1
sg25
g11
(g13
S'K\x00\x00\x00'
tRp572
sg10
g11
(g13
S'7\x00\x00\x00'
tRp573
sg27
g11
(g13
S'P\x00\x00\x00'
tRp574
sg30
I0
sg31
I0
sg16
g109
sa(dp575
g19
g119
sg21
I3
sg22
g11
(g13
S'\x87\x00\x00\x00'
tRp576
sg8
I2
sg25
g11
(g13
S'K\x00\x00\x00'
tRp577
sg10
g11
(g13
S'7\x00\x00\x00'
tRp578
sg27
g11
(g13
S'\xb0\xff\xff\xff'
tRp579
sg30
I0
sg31
I0
sg16
g119
sa(dp580
g19
g20
sg21
I2
sg22
g11
(g13
S'-\x00\x00\x00'
tRp581
sg8
I2
sg25
g11
(g13
S'K\x00\x00\x00'
tRp582
sg10
g11
(g13
S'7\x00\x00\x00'
tRp583
sg27
g11
(g13
S'\xb0\xff\xff\xff'
tRp584
sg30
I0
sg31
I0
sg16
g20
sa(dp585
g19
g17
sg21
I0
sg22
g11
(g13
S'-\x00\x00\x00'
tRp586
sg8
I1
sg25
g11
(g13
S'K\x00\x00\x00'
tRp587
sg10
g11
(g13
S'7\x00\x00\x00'
tRp588
sg27
g11
(g13
S'P\x00\x00\x00'
tRp589
sg30
I0
sg31
I0
sg16
g109
sa(dp590
g19
g119
sg21
I3
sg22
g11
(g13
S'\x87\x00\x00\x00'
tRp591
sg8
I2
sg25
g11
(g13
S'K\x00\x00\x00'
tRp592
sg10
g11
(g13
S'7\x00\x00\x00'
tRp593
sg27
g11
(g13
S'\xb0\xff\xff\xff'
tRp594
sg30
I0
sg31
I0
sg16
g119
saa(lp595
aI1
a(dp596
S'lastModified'
p597
S'2017-04-19 17:34:22.244000'
p598
sS'created'
p599
S'2017-04-19 17:34:17.435000'
p600
sa.