(dp0
S'parameterArray'
p1
(lp2
(dp3
S'reaction_time'
p4
F1.0667225436573062
sS'trial_start'
p5
F325.30878508882597
sS'task'
p6
I2
sS'trial_orientation'
p7
F3.8625599273437494
sS'base_color_lum'
p8
cnumpy.core.multiarray
scalar
p9
(cnumpy
dtype
p10
(S'i4'
p11
I0
I1
tp12
Rp13
(I3
S'<'
p14
NNNI-1
I-1
I0
tp15
bS'7\x00\x00\x00'
p16
tp17
Rp18
sS'button'
p19
S'l'
p20
sS'trial_cue'
p21
S'red45'
p22
sS'trial_color'
p23
F-19.970045312499998
sS'trial_stimulus_label'
p24
S'green45'
p25
sS'trial_stimulus'
p26
I2
sS'base_ori'
p27
g9
(g13
S'-\x00\x00\x00'
p28
tp29
Rp30
sS'trial_end'
p31
F332.15025408351175
sS'base_color_b'
p32
g9
(g13
S'K\x00\x00\x00'
p33
tp34
Rp35
sS'base_color_a'
p36
g9
(g13
S'\xb0\xff\xff\xff'
p37
tp38
Rp39
sS'correct_answer'
p40
I1
sS'trial_position_y'
p41
I0
sS'trial_position_x'
p42
I0
sS'response'
p43
I1
sS'trial_direction'
p44
F1.0
sa(dp45
g5
F332.40811043118083
sg6
I1
sg7
F3.8625599273437494
sg8
g9
(g13
S'7\x00\x00\x00'
p46
tp47
Rp48
sg21
g25
sg23
F15.04553125
sg24
g22
sg26
I0
sg27
g9
(g13
S'-\x00\x00\x00'
p49
tp50
Rp51
sg31
F336.95825133527615
sg32
g9
(g13
S'K\x00\x00\x00'
p52
tp53
Rp54
sg36
g9
(g13
S'P\x00\x00\x00'
p55
tp56
Rp57
sg41
I0
sg42
I0
sasS'eventArray'
p58
(lp59
(lp60
S'trial 0 started at 325.308785089'
p61
aS'trial 0 phase 6 started at 329.000199561'
p62
aS'trial 0 event l at 330.066919539'
p63
aS'staircase 2 updated from 3.862560 to 3.862560 after response 1 at 330.066934'
p64
aa(lp65
S'trial 1 started at 332.408110431'
p66
aS'trial 1 phase 6 started at 335.599844913'
p67
a(lp68
I-99
aF4.541749377440283
aaasS'trialResponses'
p69
(lp70
s.