(dp0
S'parameterArray'
p1
(lp2
(dp3
S'trial_start'
p4
F472.45900573628387
sS'task'
p5
I1
sS'trial_orientation'
p6
F10.0
sS'base_color_lum'
p7
cnumpy.core.multiarray
scalar
p8
(cnumpy
dtype
p9
(S'i4'
p10
I0
I1
tp11
Rp12
(I3
S'<'
p13
NNNI-1
I-1
I0
tp14
bS'7\x00\x00\x00'
p15
tp16
Rp17
sS'trial_cue'
p18
S'red45'
p19
sS'trial_color'
p20
I-70
sS'trial_stimulus_label'
p21
S'green135'
p22
sS'trial_stimulus'
p23
I3
sS'base_ori'
p24
g8
(g12
S'\x87\x00\x00\x00'
p25
tp26
Rp27
sS'trial_end'
p28
F479.29770022635967
sS'base_color_b'
p29
g8
(g12
S'K\x00\x00\x00'
p30
tp31
Rp32
sS'base_color_a'
p33
g8
(g12
S'\xb0\xff\xff\xff'
p34
tp35
Rp36
sS'trial_position_y'
p37
I0
sS'trial_position_x'
p38
I0
sa(dp39
g4
F479.5525893460199
sg5
I1
sg6
F10.0
sg7
g8
(g12
S'7\x00\x00\x00'
p40
tp41
Rp42
sg18
S'red135'
p43
sg20
I70
sg21
g19
sg23
I0
sg24
g8
(g12
S'-\x00\x00\x00'
p44
tp45
Rp46
sg28
F486.3978414686626
sg29
g8
(g12
S'K\x00\x00\x00'
p47
tp48
Rp49
sg33
g8
(g12
S'P\x00\x00\x00'
p50
tp51
Rp52
sg37
I0
sg38
I0
sa(dp53
g4
F486.6516815338837
sg5
I1
sg6
F-10.0
sg7
g8
(g12
S'7\x00\x00\x00'
p54
tp55
Rp56
sg18
S'green45'
p57
sg20
I-70
sg21
g57
sg23
I2
sg24
g8
(g12
S'-\x00\x00\x00'
p58
tp59
Rp60
sg28
F492.9980144616202
sg29
g8
(g12
S'K\x00\x00\x00'
p61
tp62
Rp63
sg33
g8
(g12
S'\xb0\xff\xff\xff'
p64
tp65
Rp66
sg37
I0
sg38
I0
sa(dp67
S'reaction_time'
p68
F2.8335345277137094
sg4
F493.2530039646608
sg5
I1
sg6
F10.0
sg7
g8
(g12
S'7\x00\x00\x00'
p69
tp70
Rp71
sS'button'
p72
S's'
p73
sg18
g22
sg20
I70
sg21
g43
sg23
I1
sg24
g8
(g12
S'\x87\x00\x00\x00'
p74
tp75
Rp76
sg28
F500.0981499310783
sg29
g8
(g12
S'K\x00\x00\x00'
p77
tp78
Rp79
sg33
g8
(g12
S'P\x00\x00\x00'
p80
tp81
Rp82
sS'correct_answer'
p83
I0
sg37
I0
sg38
I0
sS'response'
p84
I-1
sS'trial_direction'
p85
F1.0
sa(dp86
g68
F1.858620430872179
sg4
F500.3561252784584
sg5
I1
sg6
F-10.0
sg7
g8
(g12
S'7\x00\x00\x00'
p87
tp88
Rp89
sg72
S's'
p90
sg18
g43
sg20
g8
(g9
(S'f8'
p91
I0
I1
tp92
Rp93
(I3
S'<'
p94
NNNI-1
I-1
I0
tp95
bS'\x00\x00\x00\x00\x00\xc0R@'
p96
tp97
Rp98
sg21
g19
sg23
I0
sg24
g8
(g12
S'-\x00\x00\x00'
p99
tp100
Rp101
sg28
F507.1982863626763
sg29
g8
(g12
S'K\x00\x00\x00'
p102
tp103
Rp104
sg33
g8
(g12
S'P\x00\x00\x00'
p105
tp106
Rp107
sg83
I1
sg37
I0
sg38
I0
sg84
I-1
sg85
F-1.0
sa(dp108
g4
F507.4558511965497
sg5
I1
sg6
F-10.0
sg7
g8
(g12
S'7\x00\x00\x00'
p109
tp110
Rp111
sg18
g19
sg20
g98
sg21
g19
sg23
I0
sg24
g8
(g12
S'-\x00\x00\x00'
p112
tp113
Rp114
sg28
F514.2983570479701
sg29
g8
(g12
S'K\x00\x00\x00'
p115
tp116
Rp117
sg33
g8
(g12
S'P\x00\x00\x00'
p118
tp119
Rp120
sg37
I0
sg38
I0
sa(dp121
g68
F3.041875584900481
sg6
F-10.0
sg4
F514.5572182065298
sg18
g19
sg23
I0
sg24
g8
(g12
S'-\x00\x00\x00'
p122
tp123
Rp124
sg28
F520.8985605087273
sg29
g8
(g12
S'K\x00\x00\x00'
p125
tp126
Rp127
sg33
g8
(g12
S'P\x00\x00\x00'
p128
tp129
Rp130
sg37
I0
sg38
I0
sg84
I1
sg85
F-1.0
sg5
I1
sg7
g8
(g12
S'7\x00\x00\x00'
p131
tp132
Rp133
sg72
S'f'
p134
sg20
g98
sg21
g19
sg83
I0
sa(dp135
g68
F2.1585669358300947
sg4
F521.1558453595608
sg5
I1
sg6
F-10.0
sg7
g8
(g12
S'7\x00\x00\x00'
p136
tp137
Rp138
sg72
S's'
p139
sg18
g57
sg20
I-70
sg21
g57
sg23
I2
sg24
g8
(g12
S'-\x00\x00\x00'
p140
tp141
Rp142
sg28
F527.4987569137847
sg29
g8
(g12
S'K\x00\x00\x00'
p143
tp144
Rp145
sg33
g8
(g12
S'\xb0\xff\xff\xff'
p146
tp147
Rp148
sg83
I1
sg37
I0
sg38
I0
sg84
I-1
sg85
F-1.0
sa(dp149
g4
F527.7594923230754
sg5
I1
sg6
F-10.0
sg7
g8
(g12
S'7\x00\x00\x00'
p150
tp151
Rp152
sg18
g19
sg20
g8
(g93
S'\x00\x00\x00\x00\x00\x00T@'
p153
tp154
Rp155
sg21
g19
sg23
I0
sg24
g8
(g12
S'-\x00\x00\x00'
p156
tp157
Rp158
sg28
F534.598848124755
sg29
g8
(g12
S'K\x00\x00\x00'
p159
tp160
Rp161
sg33
g8
(g12
S'P\x00\x00\x00'
p162
tp163
Rp164
sg37
I0
sg38
I0
sa(dp165
g68
F0.9085154612857878
sg4
F534.859426063631
sg5
I1
sg6
F10.0
sg7
g8
(g12
S'7\x00\x00\x00'
p166
tp167
Rp168
sg72
S's'
p169
sg18
g43
sg20
g155
sg21
g43
sg23
I1
sg24
g8
(g12
S'\x87\x00\x00\x00'
p170
tp171
Rp172
sg28
F541.1990214384259
sg29
g8
(g12
S'K\x00\x00\x00'
p173
tp174
Rp175
sg33
g8
(g12
S'P\x00\x00\x00'
p176
tp177
Rp178
sg83
I0
sg37
I0
sg38
I0
sg84
I-1
sg85
F1.0
sa(dp179
g4
F541.4598488925421
sg5
I2
sg6
F-10.0
sg7
g8
(g12
S'7\x00\x00\x00'
p180
tp181
Rp182
sg18
g57
sg20
g8
(g93
S'\x00\x00\x00\x00\x00\xf0T@'
p183
tp184
Rp185
sg21
g43
sg23
I1
sg24
g8
(g12
S'\x87\x00\x00\x00'
p186
tp187
Rp188
sg28
F547.7990363195404
sg29
g8
(g12
S'K\x00\x00\x00'
p189
tp190
Rp191
sg33
g8
(g12
S'P\x00\x00\x00'
p192
tp193
Rp194
sg37
I0
sg38
I0
sa(dp195
g68
F2.3335765412048204
sg4
F548.0612457288953
sg5
I2
sg6
F10.0
sg7
g8
(g12
S'7\x00\x00\x00'
p196
tp197
Rp198
sg72
S's'
p199
sg18
g43
sg20
I-70
sg21
g22
sg23
I3
sg24
g8
(g12
S'\x87\x00\x00\x00'
p200
tp201
Rp202
sg28
F554.9075090617644
sg29
g8
(g12
S'K\x00\x00\x00'
p203
tp204
Rp205
sg33
g8
(g12
S'\xb0\xff\xff\xff'
p206
tp207
Rp208
sg83
I0
sg37
I0
sg38
I0
sg84
I-1
sg85
F1.0
sa(dp209
g4
F555.1659690075121
sg5
I2
sg6
F-10.0
sg7
g8
(g12
S'7\x00\x00\x00'
p210
tp211
Rp212
sg18
g22
sg20
g185
sg21
g43
sg23
I1
sg24
g8
(g12
S'\x87\x00\x00\x00'
p213
tp214
Rp215
sg28
F562.0075813506264
sg29
g8
(g12
S'K\x00\x00\x00'
p216
tp217
Rp218
sg33
g8
(g12
S'P\x00\x00\x00'
p219
tp220
Rp221
sg37
I0
sg38
I0
sa(dp222
g68
F2.4002234091494756
sg4
F562.2706089005733
sg5
I1
sg6
F-10.0
sg7
g8
(g12
S'7\x00\x00\x00'
p223
tp224
Rp225
sg72
S'f'
p226
sg18
g43
sg20
I-70
sg21
g22
sg23
I3
sg24
g8
(g12
S'\x87\x00\x00\x00'
p227
tp228
Rp229
sg28
F568.616140044116
sg29
g8
(g12
S'K\x00\x00\x00'
p230
tp231
Rp232
sg33
g8
(g12
S'\xb0\xff\xff\xff'
p233
tp234
Rp235
sg83
I1
sg37
I0
sg38
I0
sg84
I1
sg85
F1.0
sa(dp236
g68
F1.4918394404703577
sg4
F568.8820652421418
sg5
I2
sg6
F-10.0
sg7
g8
(g12
S'7\x00\x00\x00'
p237
tp238
Rp239
sg72
S's'
p240
sg18
g22
sg20
I-70
sg21
g22
sg23
I3
sg24
g8
(g12
S'\x87\x00\x00\x00'
p241
tp242
Rp243
sg28
F575.7246224077498
sg29
g8
(g12
S'K\x00\x00\x00'
p244
tp245
Rp246
sg33
g8
(g12
S'\xb0\xff\xff\xff'
p247
tp248
Rp249
sg83
I0
sg37
I0
sg38
I0
sg84
I-1
sg85
F-1.0
sa(dp250
g68
F0.9502056736801023
sg4
F575.989444671437
sg5
I1
sg6
F-10.0
sg7
g8
(g12
S'7\x00\x00\x00'
p251
tp252
Rp253
sg72
S's'
p254
sg18
g22
sg20
I-70
sg21
g22
sg23
I3
sg24
g8
(g12
S'\x87\x00\x00\x00'
p255
tp256
Rp257
sg28
F582.3330201029748
sg29
g8
(g12
S'K\x00\x00\x00'
p258
tp259
Rp260
sg33
g8
(g12
S'\xb0\xff\xff\xff'
p261
tp262
Rp263
sg83
I1
sg37
I0
sg38
I0
sg84
I-1
sg85
F-1.0
sa(dp264
g68
F1.0585328118941106
sg4
F582.5986194559027
sg5
I1
sg6
F-10.0
sg7
g8
(g12
S'7\x00\x00\x00'
p265
tp266
Rp267
sg72
S's'
p268
sg18
g19
sg20
g185
sg21
g19
sg23
I0
sg24
g8
(g12
S'-\x00\x00\x00'
p269
tp270
Rp271
sg28
F588.9414841859289
sg29
g8
(g12
S'K\x00\x00\x00'
p272
tp273
Rp274
sg33
g8
(g12
S'P\x00\x00\x00'
p275
tp276
Rp277
sg83
I1
sg37
I0
sg38
I0
sg84
I-1
sg85
F-1.0
sa(dp278
g68
F1.3752019694384217
sg4
F589.2049498307588
sg5
I2
sg6
F10.0
sg7
g8
(g12
S'7\x00\x00\x00'
p279
tp280
Rp281
sg72
S's'
p282
sg18
g22
sg20
g8
(g93
S'\x00\x00\x00\x00\x00@P\xc0'
p283
tp284
Rp285
sg21
g22
sg23
I3
sg24
g8
(g12
S'\x87\x00\x00\x00'
p286
tp287
Rp288
sg28
F595.5499238946431
sg29
g8
(g12
S'K\x00\x00\x00'
p289
tp290
Rp291
sg33
g8
(g12
S'\xb0\xff\xff\xff'
p292
tp293
Rp294
sg83
I0
sg37
I0
sg38
I0
sg84
I-1
sg85
F1.0
sa(dp295
g68
F1.383501077278197
sg4
F595.8148215260444
sg5
I1
sg6
F-10.0
sg7
g8
(g12
S'7\x00\x00\x00'
p296
tp297
Rp298
sg72
S's'
p299
sg18
g57
sg20
g8
(g93
S'\x00\x00\x00\x00\x00@P\xc0'
p300
tp301
Rp302
sg21
g22
sg23
I3
sg24
g8
(g12
S'\x87\x00\x00\x00'
p303
tp304
Rp305
sg28
F602.1583671312092
sg29
g8
(g12
S'K\x00\x00\x00'
p306
tp307
Rp308
sg33
g8
(g12
S'\xb0\xff\xff\xff'
p309
tp310
Rp311
sg83
I0
sg37
I0
sg38
I0
sg84
I-1
sg85
F1.0
sa(dp312
g68
F1.241867502916648
sg4
F602.424876028128
sg5
I1
sg6
F10.0
sg7
g8
(g12
S'7\x00\x00\x00'
p313
tp314
Rp315
sg72
S'f'
p316
sg18
g57
sg20
g8
(g93
S'\x00\x00\x00\x00\x00\x80Q\xc0'
p317
tp318
Rp319
sg21
g57
sg23
I2
sg24
g8
(g12
S'-\x00\x00\x00'
p320
tp321
Rp322
sg28
F609.2668844526343
sg29
g8
(g12
S'K\x00\x00\x00'
p323
tp324
Rp325
sg33
g8
(g12
S'\xb0\xff\xff\xff'
p326
tp327
Rp328
sg83
I0
sg37
I0
sg38
I0
sg84
I1
sg85
F-1.0
sa(dp329
g4
F609.5313818333652
sg5
I1
sg6
F10.0
sg7
g8
(g12
S'7\x00\x00\x00'
p330
tp331
Rp332
sg18
g43
sg20
g8
(g93
S'\x00\x00\x00\x00\x00\xc0R\xc0'
p333
tp334
Rp335
sg21
g57
sg23
I2
sg24
g8
(g12
S'-\x00\x00\x00'
p336
tp337
Rp338
sg28
F616.3752683571693
sg29
g8
(g12
S'K\x00\x00\x00'
p339
tp340
Rp341
sg33
g8
(g12
S'\xb0\xff\xff\xff'
p342
tp343
Rp344
sg37
I0
sg38
I0
sa(dp345
g4
F616.6449369252387
sg5
I1
sg6
F-10.0
sg7
g8
(g12
S'7\x00\x00\x00'
p346
tp347
Rp348
sg18
g22
sg20
g8
(g93
S'\x00\x00\x00\x00\x00\xc0R\xc0'
p349
tp350
Rp351
sg21
g22
sg23
I3
sg24
g8
(g12
S'\x87\x00\x00\x00'
p352
tp353
Rp354
sg28
F622.9837128765885
sg29
g8
(g12
S'K\x00\x00\x00'
p355
tp356
Rp357
sg33
g8
(g12
S'\xb0\xff\xff\xff'
p358
tp359
Rp360
sg37
I0
sg38
I0
sa(dp361
g4
F623.2496332639075
sg5
I2
sg6
F10.0
sg7
g8
(g12
S'7\x00\x00\x00'
p362
tp363
Rp364
sg18
g22
sg20
g8
(g93
S'\x00\x00\x00\x00\x00\xc0R\xc0'
p365
tp366
Rp367
sg21
g22
sg23
I3
sg24
g8
(g12
S'\x87\x00\x00\x00'
p368
tp369
Rp370
sg28
F630.092142001753
sg29
g8
(g12
S'K\x00\x00\x00'
p371
tp372
Rp373
sg33
g8
(g12
S'\xb0\xff\xff\xff'
p374
tp375
Rp376
sg37
I0
sg38
I0
sa(dp377
g4
F630.359462945702
sg5
I1
sg6
F10.0
sg7
g8
(g12
S'7\x00\x00\x00'
p378
tp379
Rp380
sg18
g57
sg20
g8
(g93
S'\x00\x00\x00\x00\x00\xc0R\xc0'
p381
tp382
Rp383
sg21
g22
sg23
I3
sg24
g8
(g12
S'\x87\x00\x00\x00'
p384
tp385
Rp386
sg28
F636.7005874833139
sg29
g8
(g12
S'K\x00\x00\x00'
p387
tp388
Rp389
sg33
g8
(g12
S'\xb0\xff\xff\xff'
p390
tp391
Rp392
sg37
I0
sg38
I0
sa(dp393
g4
F636.9713265936425
sg5
I2
sg6
F-10.0
sg7
g8
(g12
S'7\x00\x00\x00'
p394
tp395
Rp396
sg18
g43
sg20
g185
sg21
g43
sg23
I1
sg24
g8
(g12
S'\x87\x00\x00\x00'
p397
tp398
Rp399
sg28
F643.8174314939552
sg29
g8
(g12
S'K\x00\x00\x00'
p400
tp401
Rp402
sg33
g8
(g12
S'P\x00\x00\x00'
p403
tp404
Rp405
sg37
I0
sg38
I0
sa(dp406
g4
F644.086444202554
sg5
I2
sg6
F10.0
sg7
g8
(g12
S'7\x00\x00\x00'
p407
tp408
Rp409
sg18
g57
sg20
g8
(g93
S'\x00\x00\x00\x00\x00\xc0R\xc0'
p410
tp411
Rp412
sg21
g22
sg23
I3
sg24
g8
(g12
S'\x87\x00\x00\x00'
p413
tp414
Rp415
sg28
F650.4258487527131
sg29
g8
(g12
S'K\x00\x00\x00'
p416
tp417
Rp418
sg33
g8
(g12
S'\xb0\xff\xff\xff'
p419
tp420
Rp421
sg37
I0
sg38
I0
sa(dp422
g4
F650.6999351516952
sg5
I1
sg6
F-10.0
sg7
g8
(g12
S'7\x00\x00\x00'
p423
tp424
Rp425
sg18
g43
sg20
g8
(g93
S'\x00\x00\x00\x00\x00\xc0R\xc0'
p426
tp427
Rp428
sg21
g22
sg23
I3
sg24
g8
(g12
S'\x87\x00\x00\x00'
p429
tp430
Rp431
sg28
F652.4341135441882
sg29
g8
(g12
S'K\x00\x00\x00'
p432
tp433
Rp434
sg33
g8
(g12
S'\xb0\xff\xff\xff'
p435
tp436
Rp437
sg37
I0
sg38
I0
sasS'eventArray'
p438
(lp439
(lp440
S'trial 0 started at 472.459005736'
p441
aS'trial 0 phase 6 started at 476.147404496'
p442
aa(lp443
S'trial 1 started at 479.552589346'
p444
aS'trial 1 phase 6 started at 483.247552153'
p445
aa(lp446
S'trial 2 started at 486.651681534'
p447
aS'trial 2 phase 6 started at 489.847690829'
p448
aa(lp449
S'trial 3 started at 493.253003965'
p450
aS'trial 3 phase 6 started at 496.947802887'
p451
aS'trial 3 event s at 499.781335811'
p452
aS'staircase 0 updated from 70.000000 to 75.000000 after response 0 at 499.781357'
p453
aa(lp454
S'trial 4 started at 500.356125278'
p455
aS'trial 4 phase 6 started at 504.047924886'
p456
aS'trial 4 event s at 505.906542431'
p457
aS'staircase 0 updated from 75.000000 to 75.000000 after response 1 at 505.906560'
p458
aa(lp459
S'trial 5 started at 507.455851197'
p460
aS'trial 5 phase 6 started at 511.148058752'
p461
aa(lp462
S'trial 6 started at 514.557218207'
p463
aS'trial 6 phase 6 started at 517.748160867'
p464
aS'trial 6 event s at 519.131698827'
p465
aS'staircase 0 updated from 75.000000 to 75.000000 after response 1 at 519.131717'
p466
aS'trial 6 event f at 520.790032283'
p467
aS'staircase 0 updated from 75.000000 to 80.000000 after response 0 at 520.790055'
p468
aa(lp469
S'trial 7 started at 521.15584536'
p470
aS'trial 7 phase 6 started at 524.348270038'
p471
aS'trial 7 event s at 526.506833767'
p472
aS'staircase 1 updated from 70.000000 to 70.000000 after response 1 at 526.506851'
p473
aa(lp474
S'trial 8 started at 527.759492323'
p475
aS'trial 8 phase 6 started at 531.448413846'
p476
aa(lp477
S'trial 9 started at 534.859426064'
p478
aS'trial 9 phase 6 started at 538.048554768'
p479
aS'trial 9 event s at 538.957067984'
p480
aS'staircase 0 updated from 80.000000 to 83.750000 after response 0 at 538.957087'
p481
aa(lp482
S'trial 10 started at 541.459848893'
p483
aS'trial 10 phase 6 started at 544.648677088'
p484
aa(lp485
S'trial 11 started at 548.061245729'
p486
aS'trial 11 phase 6 started at 551.757117438'
p487
aS'trial 11 event s at 554.090691735'
p488
aa(lp489
S'trial 12 started at 555.165969008'
p490
aS'trial 12 phase 6 started at 558.857278244'
p491
aa(lp492
S'trial 13 started at 562.270608901'
p493
aS'trial 13 phase 6 started at 565.465696144'
p494
aS'trial 13 event f at 567.865916988'
p495
aS'staircase 1 updated from 70.000000 to 70.000000 after response 1 at 567.865935'
p496
aa(lp497
S'trial 14 started at 568.882065242'
p498
aS'trial 14 phase 6 started at 572.574189733'
p499
aS'trial 14 event s at 574.066026928'
p500
aa(lp501
S'trial 15 started at 575.989444671'
p502
aS'trial 15 phase 6 started at 579.182599615'
p503
aS'trial 15 event s at 580.132802082'
p504
aS'staircase 1 updated from 70.000000 to 65.000000 after response 1 at 580.132822'
p505
aa(lp506
S'trial 16 started at 582.598619456'
p507
aS'trial 16 phase 6 started at 585.791063057'
p508
aS'trial 16 event s at 586.849593303'
p509
aS'staircase 0 updated from 83.750000 to 83.750000 after response 1 at 586.849613'
p510
aa(lp511
S'trial 17 started at 589.204949831'
p512
aS'trial 17 phase 6 started at 592.399513028'
p513
aS'trial 17 event s at 593.774712753'
p514
aa(lp515
S'trial 18 started at 595.814821526'
p516
aS'trial 18 phase 6 started at 599.007983526'
p517
aS'trial 18 event s at 600.391481716'
p518
aS'staircase 1 updated from 65.000000 to 70.000000 after response 0 at 600.391501'
p519
aa(lp520
S'trial 19 started at 602.424876028'
p521
aS'trial 19 phase 6 started at 606.116417461'
p522
aS'trial 19 event f at 607.358282078'
p523
aS'staircase 1 updated from 70.000000 to 75.000000 after response 0 at 607.358301'
p524
aa(lp525
S'trial 20 started at 609.531381833'
p526
aS'trial 20 phase 6 started at 613.224878658'
p527
aa(lp528
S'trial 21 started at 616.644936925'
p529
aS'trial 21 phase 6 started at 619.833405922'
p530
aa(lp531
S'trial 22 started at 623.249633264'
p532
aS'trial 22 phase 6 started at 626.941789505'
p533
aa(lp534
S'trial 23 started at 630.359462946'
p535
aS'trial 23 phase 6 started at 633.550249419'
p536
aa(lp537
S'trial 24 started at 636.971326594'
p538
aS'trial 24 phase 6 started at 640.667025118'
p539
aa(lp540
S'trial 25 started at 644.086444203'
p541
aS'trial 25 phase 6 started at 647.275490163'
p542
aa(lp543
S'trial 26 started at 650.699935152'
p544
a(lp545
I-99
aF1.7257699212896114
aaasS'trialResponses'
p546
(lp547
s.