(lp1
ccopy_reg
_reconstructor
p2
(cStaircase
ThreeUpOneDownStaircase
p3
c__builtin__
object
p4
NtRp5
(dp6
S'nr_reversals'
p7
I10
sS'nr_correct'
p8
I1
sS'max_nr_trials'
p9
I40
sS'past_answers'
p10
(lp11
F0.5
aF0.5
aF0.5
aI0
aI1
aI1
aI0
aI0
aI1
asS'present_increment_value'
p12
cnumpy.core.multiarray
scalar
p13
(cnumpy
dtype
p14
(S'f8'
I0
I1
tRp15
(I3
S'<'
NNNI-1
I-1
I0
tbS'\x00\x00\x00\x00\x00\x00\x0e@'
tRp16
sS'initial_value'
p17
I70
sS'nr_trials'
p18
I6
sS'initial_stepsize'
p19
g13
(g15
S'\x00\x00\x00\x00\x00\x00\x14@'
tRp20
sS'test_value'
p21
g13
(g15
S'\x00\x00\x00\x00\x00\xf0T@'
tRp22
sS'increment_value'
p23
g20
sS'stepsize_multiplication_on_reversal'
p24
F0.75
sS'present_nr_reversals'
p25
I3
sbag2
(g3
g4
NtRp26
(dp27
g7
I10
sg8
I0
sg9
I40
sg10
(lp28
F0.5
aF0.5
aF0.5
aI1
aI1
aI1
aI0
aI0
asg12
g13
(g15
S'\x00\x00\x00\x00\x00\x00\x14@'
tRp29
sg17
I70
sg18
I5
sg19
g29
sg21
g13
(g15
S'\x00\x00\x00\x00\x00\xc0R@'
tRp30
sg23
g29
sg24
F0.75
sg25
I1
sbag2
(g3
g4
NtRp31
(dp32
g7
I10
sg8
I0
sg9
I40
sg10
(lp33
F0.5
aF0.5
aF0.5
asg12
g13
(g15
S'\x00\x00\x00\x00\x00\x00\xf0?'
tRp34
sg17
I10
sg18
I0
sg19
g34
sg21
I10
sg23
g34
sg24
F0.75
sg25
I0
sba.