(lp1
(dp2
S'parameterArray'
p3
(lp4
(dp5
S'trial_start'
p6
F4.6667618856204172
sS'task'
p7
I1
sS'trial_orientation'
p8
F3
sS'base_color_lum'
p9
cnumpy.core.multiarray
scalar
p10
(cnumpy
dtype
p11
(S'i4'
I0
I1
tRp12
(I3
S'<'
NNNI-1
I-1
I0
tbS'7\x00\x00\x00'
tRp13
sS'trial_cue'
p14
S'red135'
p15
sS'trial_color'
p16
I70
sS'trial_stimulus_label'
p17
S'red45'
p18
sS'trial_stimulus'
p19
I0
sS'base_ori'
p20
g10
(g12
S'-\x00\x00\x00'
tRp21
sS'trial_end'
p22
F11.51307678382318
sS'base_color_b'
p23
g10
(g12
S'K\x00\x00\x00'
tRp24
sS'base_color_a'
p25
g10
(g12
S'P\x00\x00\x00'
tRp26
sS'trial_position_y'
p27
I0
sS'trial_position_x'
p28
I0
sa(dp29
g6
F11.76705652271221
sg7
I1
sg8
F3
sg9
g10
(g12
S'7\x00\x00\x00'
tRp30
sg14
S'green45'
p31
sg16
I70
sg17
g15
sg19
I1
sg20
g10
(g12
S'\x87\x00\x00\x00'
tRp32
sg22
F18.612706598758905
sg23
g10
(g12
S'K\x00\x00\x00'
tRp33
sg25
g10
(g12
S'P\x00\x00\x00'
tRp34
sg27
I0
sg28
I0
sa(dp35
g6
F18.863678102919039
sg7
I2
sg8
F-3
sg9
g10
(g12
S'7\x00\x00\x00'
tRp36
sg14
S'green135'
p37
sg16
I-70
sg17
g37
sg19
I3
sg20
g10
(g12
S'\x87\x00\x00\x00'
tRp38
sg22
F25.70398822021798
sg23
g10
(g12
S'K\x00\x00\x00'
tRp39
sg25
g10
(g12
S'\xb0\xff\xff\xff'
tRp40
sg27
I0
sg28
I0
sa(dp41
g6
F25.957193663663475
sg7
I1
sg8
F-3
sg9
g10
(g12
S'7\x00\x00\x00'
tRp42
sg14
g37
sg16
I-70
sg17
g37
sg19
I3
sg20
g10
(g12
S'\x87\x00\x00\x00'
tRp43
sg22
F27.278895175050366
sg23
g10
(g12
S'K\x00\x00\x00'
tRp44
sg25
g10
(g12
S'\xb0\xff\xff\xff'
tRp45
sg27
I0
sg28
I0
sasS'eventArray'
p46
(lp47
(lp48
S'trial 0 started at 4.66676188562'
p49
aS'trial 0 phase 6 started at 8.36323094445'
p50
aa(lp51
S'trial 1 started at 11.7670565227'
p52
aS'trial 1 phase 6 started at 15.4628504963'
p53
aa(lp54
S'trial 2 started at 18.8636781029'
p55
aS'trial 2 phase 6 started at 22.5541401002'
p56
aa(lp57
S'trial 3 started at 25.9571936637'
p58
a(lp59
I-99
aF1.3134690631054582
aaasS'trialResponses'
p60
(lp61
sa(lp62
ccopy_reg
_reconstructor
p63
(cpandas.core.frame
DataFrame
p64
c__builtin__
object
p65
NtRp66
g63
(cpandas.core.internals
BlockManager
p67
g65
NtRp68
((lp69
cnumpy.core.multiarray
_reconstruct
p70
(cpandas.core.index
Index
p71
(I0
tS'b'
tRp72
((I1
(I14
tg11
(S'O4'
I0
I1
tRp73
(I3
S'|'
NNNI-1
I-1
I63
tbI00
(lp74
g25
ag23
ag9
ag20
ag7
ag16
ag14
ag22
ag8
ag28
ag27
ag6
ag19
ag17
at(Nttbag70
(cpandas.core.index
Int64Index
p75
(I0
tS'b'
tRp76
((I1
(I1
tg11
(S'i8'
I0
I1
tRp77
(I3
S'<'
NNNI-1
I-1
I0
tbI00
S'\x00\x00\x00\x00\x00\x00\x00\x00'
t(Nttba(lp78
g70
(cnumpy
ndarray
p79
(I0
tS'b'
tRp80
(I1
(I3
I1
tg11
(S'f8'
I0
I1
tRp81
(I3
S'<'
NNNI-1
I-1
I0
tbI00
S"\x00\xb7\r\x00\xb2\x06'@\x00\x00\x00\x00\x00\x00\x08@\x00\xd6\xb3\xa0\xc3\xaa\x12@"
tbag70
(g79
(I0
tS'b'
tRp82
(I1
(I9
I1
tg77
I00
S'P\x00\x00\x00\x00\x00\x00\x00K\x00\x00\x00\x00\x00\x00\x007\x00\x00\x00\x00\x00\x00\x00-\x00\x00\x00\x00\x00\x00\x00\x01\x00\x00\x00\x00\x00\x00\x00F\x00\x00\x00\x00\x00\x00\x00\x00\x00\x00\x00\x00\x00\x00\x00\x00\x00\x00\x00\x00\x00\x00\x00\x00\x00\x00\x00\x00\x00\x00\x00'
tbag70
(g79
(I0
tS'b'
tRp83
(I1
(I2
I1
tg73
I00
(lp84
g15
ag18
atba(lp85
g70
(g71
(I0
tS'b'
tRp86
((I1
(I3
tg73
I00
(lp87
g22
ag8
ag6
at(Nttbag70
(g71
(I0
tS'b'
tRp88
((I1
(I9
tg73
I00
(lp89
g25
ag23
ag9
ag20
ag7
ag16
ag28
ag27
ag19
at(Nttbag70
(g71
(I0
tS'b'
tRp90
((I1
(I2
tg73
I00
(lp91
g14
ag17
at(Nttbatbbag63
(g64
g65
NtRp92
g63
(g67
g65
NtRp93
((lp94
g70
(g71
(I0
tS'b'
tRp95
((I1
(I14
tg73
I00
(lp96
g25
ag23
ag9
ag20
ag7
ag16
ag14
ag22
ag8
ag28
ag27
ag6
ag19
ag17
at(Nttbag70
(g75
(I0
tS'b'
tRp97
((I1
(I1
tg77
I00
S'\x01\x00\x00\x00\x00\x00\x00\x00'
t(Nttba(lp98
g70
(g79
(I0
tS'b'
tRp99
(I1
(I3
I1
tg81
I00
S"\x80\xb6\xf3V\xda\x9c2@\x00\x00\x00\x00\x00\x00\x08@\x00w\xee\xa1\xbb\x88'@"
tbag70
(g79
(I0
tS'b'
tRp100
(I1
(I9
I1
tg77
I00
S'P\x00\x00\x00\x00\x00\x00\x00K\x00\x00\x00\x00\x00\x00\x007\x00\x00\x00\x00\x00\x00\x00\x87\x00\x00\x00\x00\x00\x00\x00\x01\x00\x00\x00\x00\x00\x00\x00F\x00\x00\x00\x00\x00\x00\x00\x00\x00\x00\x00\x00\x00\x00\x00\x00\x00\x00\x00\x00\x00\x00\x00\x01\x00\x00\x00\x00\x00\x00\x00'
tbag70
(g79
(I0
tS'b'
tRp101
(I1
(I2
I1
tg73
I00
(lp102
g31
ag15
atba(lp103
g70
(g71
(I0
tS'b'
tRp104
((I1
(I3
tg73
I00
(lp105
g22
ag8
ag6
at(Nttbag70
(g71
(I0
tS'b'
tRp106
((I1
(I9
tg73
I00
(lp107
g25
ag23
ag9
ag20
ag7
ag16
ag28
ag27
ag19
at(Nttbag70
(g71
(I0
tS'b'
tRp108
((I1
(I2
tg73
I00
(lp109
g14
ag17
at(Nttbatbbag63
(g64
g65
NtRp110
g63
(g67
g65
NtRp111
((lp112
g70
(g71
(I0
tS'b'
tRp113
((I1
(I14
tg73
I00
(lp114
g25
ag23
ag9
ag20
ag7
ag16
ag14
ag22
ag8
ag28
ag27
ag6
ag19
ag17
at(Nttbag70
(g75
(I0
tS'b'
tRp115
((I1
(I1
tg77
I00
S'\x02\x00\x00\x00\x00\x00\x00\x00'
t(Nttba(lp116
g70
(g79
(I0
tS'b'
tRp117
(I1
(I3
I1
tg81
I00
S'\x00\x9bn\x928\xb49@\x00\x00\x00\x00\x00\x00\x08\xc0\x00O\x16\x02\x1a\xdd2@'
tbag70
(g79
(I0
tS'b'
tRp118
(I1
(I9
I1
tg77
I00
S'\xb0\xff\xff\xff\xff\xff\xff\xffK\x00\x00\x00\x00\x00\x00\x007\x00\x00\x00\x00\x00\x00\x00\x87\x00\x00\x00\x00\x00\x00\x00\x02\x00\x00\x00\x00\x00\x00\x00\xba\xff\xff\xff\xff\xff\xff\xff\x00\x00\x00\x00\x00\x00\x00\x00\x00\x00\x00\x00\x00\x00\x00\x00\x03\x00\x00\x00\x00\x00\x00\x00'
tbag70
(g79
(I0
tS'b'
tRp119
(I1
(I2
I1
tg73
I00
(lp120
g37
ag37
atba(lp121
g70
(g71
(I0
tS'b'
tRp122
((I1
(I3
tg73
I00
(lp123
g22
ag8
ag6
at(Nttbag70
(g71
(I0
tS'b'
tRp124
((I1
(I9
tg73
I00
(lp125
g25
ag23
ag9
ag20
ag7
ag16
ag28
ag27
ag19
at(Nttbag70
(g71
(I0
tS'b'
tRp126
((I1
(I2
tg73
I00
(lp127
g14
ag17
at(Nttbatbbag63
(g64
g65
NtRp128
g63
(g67
g65
NtRp129
((lp130
g70
(g71
(I0
tS'b'
tRp131
((I1
(I14
tg73
I00
(lp132
g25
ag23
ag9
ag20
ag7
ag16
ag14
ag22
ag8
ag28
ag27
ag6
ag19
ag17
at(Nttbag70
(g75
(I0
tS'b'
tRp133
((I1
(I1
tg77
I00
S'\x03\x00\x00\x00\x00\x00\x00\x00'
t(Nttba(lp134
g70
(g79
(I0
tS'b'
tRp135
(I1
(I3
I1
tg81
I00
S'\x80\xda\x97\xaceG;@\x00\x00\x00\x00\x00\x00\x08\xc0\x80_\xd9\xa4\n\xf59@'
tbag70
(g79
(I0
tS'b'
tRp136
(I1
(I9
I1
tg77
I00
S'\xb0\xff\xff\xff\xff\xff\xff\xffK\x00\x00\x00\x00\x00\x00\x007\x00\x00\x00\x00\x00\x00\x00\x87\x00\x00\x00\x00\x00\x00\x00\x01\x00\x00\x00\x00\x00\x00\x00\xba\xff\xff\xff\xff\xff\xff\xff\x00\x00\x00\x00\x00\x00\x00\x00\x00\x00\x00\x00\x00\x00\x00\x00\x03\x00\x00\x00\x00\x00\x00\x00'
tbag70
(g79
(I0
tS'b'
tRp137
(I1
(I2
I1
tg73
I00
(lp138
g37
ag37
atba(lp139
g70
(g71
(I0
tS'b'
tRp140
((I1
(I3
tg73
I00
(lp141
g22
ag8
ag6
at(Nttbag70
(g71
(I0
tS'b'
tRp142
((I1
(I9
tg73
I00
(lp143
g25
ag23
ag9
ag20
ag7
ag16
ag28
ag27
ag19
at(Nttbag70
(g71
(I0
tS'b'
tRp144
((I1
(I2
tg73
I00
(lp145
g14
ag17
at(Nttbatbbaa(lp146
(dp147
g17
g18
sg19
I0
sg20
g21
sg7
I1
sg23
g24
sg9
g13
sg25
g26
sg27
I0
sg28
I0
sg14
g15
sa(dp148
g17
g15
sg19
I1
sg20
g32
sg7
I1
sg23
g33
sg9
g30
sg25
g34
sg27
I0
sg28
I0
sg14
g31
sa(dp149
g17
g37
sg19
I3
sg20
g38
sg7
I2
sg23
g39
sg9
g36
sg25
g40
sg27
I0
sg28
I0
sg14
g37
sa(dp150
g17
g37
sg19
I3
sg20
g43
sg7
I1
sg23
g44
sg9
g42
sg25
g45
sg27
I0
sg28
I0
sg14
g37
sa(dp151
g17
g18
sg19
I0
sg20
g10
(g12
S'-\x00\x00\x00'
tRp152
sg7
I1
sg23
g10
(g12
S'K\x00\x00\x00'
tRp153
sg9
g10
(g12
S'7\x00\x00\x00'
tRp154
sg25
g10
(g12
S'P\x00\x00\x00'
tRp155
sg27
I0
sg28
I0
sg14
g18
sa(dp156
g17
g31
sg19
I2
sg20
g10
(g12
S'-\x00\x00\x00'
tRp157
sg7
I2
sg23
g10
(g12
S'K\x00\x00\x00'
tRp158
sg9
g10
(g12
S'7\x00\x00\x00'
tRp159
sg25
g10
(g12
S'\xb0\xff\xff\xff'
tRp160
sg27
I0
sg28
I0
sg14
g15
sa(dp161
g17
g15
sg19
I1
sg20
g10
(g12
S'\x87\x00\x00\x00'
tRp162
sg7
I2
sg23
g10
(g12
S'K\x00\x00\x00'
tRp163
sg9
g10
(g12
S'7\x00\x00\x00'
tRp164
sg25
g10
(g12
S'P\x00\x00\x00'
tRp165
sg27
I0
sg28
I0
sg14
g37
sa(dp166
g17
g18
sg19
I0
sg20
g10
(g12
S'-\x00\x00\x00'
tRp167
sg7
I2
sg23
g10
(g12
S'K\x00\x00\x00'
tRp168
sg9
g10
(g12
S'7\x00\x00\x00'
tRp169
sg25
g10
(g12
S'P\x00\x00\x00'
tRp170
sg27
I0
sg28
I0
sg14
g18
sa(dp171
g17
g31
sg19
I2
sg20
g10
(g12
S'-\x00\x00\x00'
tRp172
sg7
I1
sg23
g10
(g12
S'K\x00\x00\x00'
tRp173
sg9
g10
(g12
S'7\x00\x00\x00'
tRp174
sg25
g10
(g12
S'\xb0\xff\xff\xff'
tRp175
sg27
I0
sg28
I0
sg14
g31
sa(dp176
g17
g18
sg19
I0
sg20
g10
(g12
S'-\x00\x00\x00'
tRp177
sg7
I1
sg23
g10
(g12
S'K\x00\x00\x00'
tRp178
sg9
g10
(g12
S'7\x00\x00\x00'
tRp179
sg25
g10
(g12
S'P\x00\x00\x00'
tRp180
sg27
I0
sg28
I0
sg14
g18
sa(dp181
g17
g37
sg19
I3
sg20
g10
(g12
S'\x87\x00\x00\x00'
tRp182
sg7
I1
sg23
g10
(g12
S'K\x00\x00\x00'
tRp183
sg9
g10
(g12
S'7\x00\x00\x00'
tRp184
sg25
g10
(g12
S'\xb0\xff\xff\xff'
tRp185
sg27
I0
sg28
I0
sg14
g37
sa(dp186
g17
g15
sg19
I1
sg20
g10
(g12
S'\x87\x00\x00\x00'
tRp187
sg7
I2
sg23
g10
(g12
S'K\x00\x00\x00'
tRp188
sg9
g10
(g12
S'7\x00\x00\x00'
tRp189
sg25
g10
(g12
S'P\x00\x00\x00'
tRp190
sg27
I0
sg28
I0
sg14
g15
sa(dp191
g17
g31
sg19
I2
sg20
g10
(g12
S'-\x00\x00\x00'
tRp192
sg7
I1
sg23
g10
(g12
S'K\x00\x00\x00'
tRp193
sg9
g10
(g12
S'7\x00\x00\x00'
tRp194
sg25
g10
(g12
S'\xb0\xff\xff\xff'
tRp195
sg27
I0
sg28
I0
sg14
g31
sa(dp196
g17
g18
sg19
I0
sg20
g10
(g12
S'-\x00\x00\x00'
tRp197
sg7
I2
sg23
g10
(g12
S'K\x00\x00\x00'
tRp198
sg9
g10
(g12
S'7\x00\x00\x00'
tRp199
sg25
g10
(g12
S'P\x00\x00\x00'
tRp200
sg27
I0
sg28
I0
sg14
g18
sa(dp201
g17
g31
sg19
I2
sg20
g10
(g12
S'-\x00\x00\x00'
tRp202
sg7
I2
sg23
g10
(g12
S'K\x00\x00\x00'
tRp203
sg9
g10
(g12
S'7\x00\x00\x00'
tRp204
sg25
g10
(g12
S'\xb0\xff\xff\xff'
tRp205
sg27
I0
sg28
I0
sg14
g31
sa(dp206
g17
g15
sg19
I1
sg20
g10
(g12
S'\x87\x00\x00\x00'
tRp207
sg7
I2
sg23
g10
(g12
S'K\x00\x00\x00'
tRp208
sg9
g10
(g12
S'7\x00\x00\x00'
tRp209
sg25
g10
(g12
S'P\x00\x00\x00'
tRp210
sg27
I0
sg28
I0
sg14
g15
sa(dp211
g17
g15
sg19
I1
sg20
g10
(g12
S'\x87\x00\x00\x00'
tRp212
sg7
I2
sg23
g10
(g12
S'K\x00\x00\x00'
tRp213
sg9
g10
(g12
S'7\x00\x00\x00'
tRp214
sg25
g10
(g12
S'P\x00\x00\x00'
tRp215
sg27
I0
sg28
I0
sg14
g31
sa(dp216
g17
g31
sg19
I2
sg20
g10
(g12
S'-\x00\x00\x00'
tRp217
sg7
I2
sg23
g10
(g12
S'K\x00\x00\x00'
tRp218
sg9
g10
(g12
S'7\x00\x00\x00'
tRp219
sg25
g10
(g12
S'\xb0\xff\xff\xff'
tRp220
sg27
I0
sg28
I0
sg14
g37
sa(dp221
g17
g31
sg19
I2
sg20
g10
(g12
S'-\x00\x00\x00'
tRp222
sg7
I1
sg23
g10
(g12
S'K\x00\x00\x00'
tRp223
sg9
g10
(g12
S'7\x00\x00\x00'
tRp224
sg25
g10
(g12
S'\xb0\xff\xff\xff'
tRp225
sg27
I0
sg28
I0
sg14
g18
sa(dp226
g17
g37
sg19
I3
sg20
g10
(g12
S'\x87\x00\x00\x00'
tRp227
sg7
I2
sg23
g10
(g12
S'K\x00\x00\x00'
tRp228
sg9
g10
(g12
S'7\x00\x00\x00'
tRp229
sg25
g10
(g12
S'\xb0\xff\xff\xff'
tRp230
sg27
I0
sg28
I0
sg14
g37
sa(dp231
g17
g18
sg19
I0
sg20
g10
(g12
S'-\x00\x00\x00'
tRp232
sg7
I2
sg23
g10
(g12
S'K\x00\x00\x00'
tRp233
sg9
g10
(g12
S'7\x00\x00\x00'
tRp234
sg25
g10
(g12
S'P\x00\x00\x00'
tRp235
sg27
I0
sg28
I0
sg14
g18
sa(dp236
g17
g15
sg19
I1
sg20
g10
(g12
S'\x87\x00\x00\x00'
tRp237
sg7
I1
sg23
g10
(g12
S'K\x00\x00\x00'
tRp238
sg9
g10
(g12
S'7\x00\x00\x00'
tRp239
sg25
g10
(g12
S'P\x00\x00\x00'
tRp240
sg27
I0
sg28
I0
sg14
g15
sa(dp241
g17
g37
sg19
I3
sg20
g10
(g12
S'\x87\x00\x00\x00'
tRp242
sg7
I1
sg23
g10
(g12
S'K\x00\x00\x00'
tRp243
sg9
g10
(g12
S'7\x00\x00\x00'
tRp244
sg25
g10
(g12
S'\xb0\xff\xff\xff'
tRp245
sg27
I0
sg28
I0
sg14
g37
sa(dp246
g17
g18
sg19
I0
sg20
g10
(g12
S'-\x00\x00\x00'
tRp247
sg7
I1
sg23
g10
(g12
S'K\x00\x00\x00'
tRp248
sg9
g10
(g12
S'7\x00\x00\x00'
tRp249
sg25
g10
(g12
S'P\x00\x00\x00'
tRp250
sg27
I0
sg28
I0
sg14
g18
sa(dp251
g17
g18
sg19
I0
sg20
g10
(g12
S'-\x00\x00\x00'
tRp252
sg7
I2
sg23
g10
(g12
S'K\x00\x00\x00'
tRp253
sg9
g10
(g12
S'7\x00\x00\x00'
tRp254
sg25
g10
(g12
S'P\x00\x00\x00'
tRp255
sg27
I0
sg28
I0
sg14
g18
sa(dp256
g17
g37
sg19
I3
sg20
g10
(g12
S'\x87\x00\x00\x00'
tRp257
sg7
I1
sg23
g10
(g12
S'K\x00\x00\x00'
tRp258
sg9
g10
(g12
S'7\x00\x00\x00'
tRp259
sg25
g10
(g12
S'\xb0\xff\xff\xff'
tRp260
sg27
I0
sg28
I0
sg14
g37
sa(dp261
g17
g15
sg19
I1
sg20
g10
(g12
S'\x87\x00\x00\x00'
tRp262
sg7
I2
sg23
g10
(g12
S'K\x00\x00\x00'
tRp263
sg9
g10
(g12
S'7\x00\x00\x00'
tRp264
sg25
g10
(g12
S'P\x00\x00\x00'
tRp265
sg27
I0
sg28
I0
sg14
g31
sa(dp266
g17
g31
sg19
I2
sg20
g10
(g12
S'-\x00\x00\x00'
tRp267
sg7
I1
sg23
g10
(g12
S'K\x00\x00\x00'
tRp268
sg9
g10
(g12
S'7\x00\x00\x00'
tRp269
sg25
g10
(g12
S'\xb0\xff\xff\xff'
tRp270
sg27
I0
sg28
I0
sg14
g31
sa(dp271
g17
g37
sg19
I3
sg20
g10
(g12
S'\x87\x00\x00\x00'
tRp272
sg7
I1
sg23
g10
(g12
S'K\x00\x00\x00'
tRp273
sg9
g10
(g12
S'7\x00\x00\x00'
tRp274
sg25
g10
(g12
S'\xb0\xff\xff\xff'
tRp275
sg27
I0
sg28
I0
sg14
g31
sa(dp276
g17
g31
sg19
I2
sg20
g10
(g12
S'-\x00\x00\x00'
tRp277
sg7
I1
sg23
g10
(g12
S'K\x00\x00\x00'
tRp278
sg9
g10
(g12
S'7\x00\x00\x00'
tRp279
sg25
g10
(g12
S'\xb0\xff\xff\xff'
tRp280
sg27
I0
sg28
I0
sg14
g31
sa(dp281
g17
g37
sg19
I3
sg20
g10
(g12
S'\x87\x00\x00\x00'
tRp282
sg7
I2
sg23
g10
(g12
S'K\x00\x00\x00'
tRp283
sg9
g10
(g12
S'7\x00\x00\x00'
tRp284
sg25
g10
(g12
S'\xb0\xff\xff\xff'
tRp285
sg27
I0
sg28
I0
sg14
g37
sa(dp286
g17
g15
sg19
I1
sg20
g10
(g12
S'\x87\x00\x00\x00'
tRp287
sg7
I1
sg23
g10
(g12
S'K\x00\x00\x00'
tRp288
sg9
g10
(g12
S'7\x00\x00\x00'
tRp289
sg25
g10
(g12
S'P\x00\x00\x00'
tRp290
sg27
I0
sg28
I0
sg14
g18
sa(dp291
g17
g37
sg19
I3
sg20
g10
(g12
S'\x87\x00\x00\x00'
tRp292
sg7
I1
sg23
g10
(g12
S'K\x00\x00\x00'
tRp293
sg9
g10
(g12
S'7\x00\x00\x00'
tRp294
sg25
g10
(g12
S'\xb0\xff\xff\xff'
tRp295
sg27
I0
sg28
I0
sg14
g31
sa(dp296
g17
g37
sg19
I3
sg20
g10
(g12
S'\x87\x00\x00\x00'
tRp297
sg7
I2
sg23
g10
(g12
S'K\x00\x00\x00'
tRp298
sg9
g10
(g12
S'7\x00\x00\x00'
tRp299
sg25
g10
(g12
S'\xb0\xff\xff\xff'
tRp300
sg27
I0
sg28
I0
sg14
g37
sa(dp301
g17
g37
sg19
I3
sg20
g10
(g12
S'\x87\x00\x00\x00'
tRp302
sg7
I1
sg23
g10
(g12
S'K\x00\x00\x00'
tRp303
sg9
g10
(g12
S'7\x00\x00\x00'
tRp304
sg25
g10
(g12
S'\xb0\xff\xff\xff'
tRp305
sg27
I0
sg28
I0
sg14
g37
sa(dp306
g17
g15
sg19
I1
sg20
g10
(g12
S'\x87\x00\x00\x00'
tRp307
sg7
I2
sg23
g10
(g12
S'K\x00\x00\x00'
tRp308
sg9
g10
(g12
S'7\x00\x00\x00'
tRp309
sg25
g10
(g12
S'P\x00\x00\x00'
tRp310
sg27
I0
sg28
I0
sg14
g15
sa(dp311
g17
g31
sg19
I2
sg20
g10
(g12
S'-\x00\x00\x00'
tRp312
sg7
I2
sg23
g10
(g12
S'K\x00\x00\x00'
tRp313
sg9
g10
(g12
S'7\x00\x00\x00'
tRp314
sg25
g10
(g12
S'\xb0\xff\xff\xff'
tRp315
sg27
I0
sg28
I0
sg14
g31
sa(dp316
g17
g31
sg19
I2
sg20
g10
(g12
S'-\x00\x00\x00'
tRp317
sg7
I1
sg23
g10
(g12
S'K\x00\x00\x00'
tRp318
sg9
g10
(g12
S'7\x00\x00\x00'
tRp319
sg25
g10
(g12
S'\xb0\xff\xff\xff'
tRp320
sg27
I0
sg28
I0
sg14
g31
sa(dp321
g17
g18
sg19
I0
sg20
g10
(g12
S'-\x00\x00\x00'
tRp322
sg7
I2
sg23
g10
(g12
S'K\x00\x00\x00'
tRp323
sg9
g10
(g12
S'7\x00\x00\x00'
tRp324
sg25
g10
(g12
S'P\x00\x00\x00'
tRp325
sg27
I0
sg28
I0
sg14
g18
sa(dp326
g17
g15
sg19
I1
sg20
g10
(g12
S'\x87\x00\x00\x00'
tRp327
sg7
I1
sg23
g10
(g12
S'K\x00\x00\x00'
tRp328
sg9
g10
(g12
S'7\x00\x00\x00'
tRp329
sg25
g10
(g12
S'P\x00\x00\x00'
tRp330
sg27
I0
sg28
I0
sg14
g18
sa(dp331
g17
g18
sg19
I0
sg20
g10
(g12
S'-\x00\x00\x00'
tRp332
sg7
I1
sg23
g10
(g12
S'K\x00\x00\x00'
tRp333
sg9
g10
(g12
S'7\x00\x00\x00'
tRp334
sg25
g10
(g12
S'P\x00\x00\x00'
tRp335
sg27
I0
sg28
I0
sg14
g18
sa(dp336
g17
g18
sg19
I0
sg20
g10
(g12
S'-\x00\x00\x00'
tRp337
sg7
I2
sg23
g10
(g12
S'K\x00\x00\x00'
tRp338
sg9
g10
(g12
S'7\x00\x00\x00'
tRp339
sg25
g10
(g12
S'P\x00\x00\x00'
tRp340
sg27
I0
sg28
I0
sg14
g18
sa(dp341
g17
g31
sg19
I2
sg20
g10
(g12
S'-\x00\x00\x00'
tRp342
sg7
I2
sg23
g10
(g12
S'K\x00\x00\x00'
tRp343
sg9
g10
(g12
S'7\x00\x00\x00'
tRp344
sg25
g10
(g12
S'\xb0\xff\xff\xff'
tRp345
sg27
I0
sg28
I0
sg14
g31
sa(dp346
g17
g37
sg19
I3
sg20
g10
(g12
S'\x87\x00\x00\x00'
tRp347
sg7
I2
sg23
g10
(g12
S'K\x00\x00\x00'
tRp348
sg9
g10
(g12
S'7\x00\x00\x00'
tRp349
sg25
g10
(g12
S'\xb0\xff\xff\xff'
tRp350
sg27
I0
sg28
I0
sg14
g37
sa(dp351
g17
g15
sg19
I1
sg20
g10
(g12
S'\x87\x00\x00\x00'
tRp352
sg7
I1
sg23
g10
(g12
S'K\x00\x00\x00'
tRp353
sg9
g10
(g12
S'7\x00\x00\x00'
tRp354
sg25
g10
(g12
S'P\x00\x00\x00'
tRp355
sg27
I0
sg28
I0
sg14
g37
sa(dp356
g17
g15
sg19
I1
sg20
g10
(g12
S'\x87\x00\x00\x00'
tRp357
sg7
I2
sg23
g10
(g12
S'K\x00\x00\x00'
tRp358
sg9
g10
(g12
S'7\x00\x00\x00'
tRp359
sg25
g10
(g12
S'P\x00\x00\x00'
tRp360
sg27
I0
sg28
I0
sg14
g18
sa(dp361
g17
g15
sg19
I1
sg20
g10
(g12
S'\x87\x00\x00\x00'
tRp362
sg7
I2
sg23
g10
(g12
S'K\x00\x00\x00'
tRp363
sg9
g10
(g12
S'7\x00\x00\x00'
tRp364
sg25
g10
(g12
S'P\x00\x00\x00'
tRp365
sg27
I0
sg28
I0
sg14
g15
sa(dp366
g17
g31
sg19
I2
sg20
g10
(g12
S'-\x00\x00\x00'
tRp367
sg7
I2
sg23
g10
(g12
S'K\x00\x00\x00'
tRp368
sg9
g10
(g12
S'7\x00\x00\x00'
tRp369
sg25
g10
(g12
S'\xb0\xff\xff\xff'
tRp370
sg27
I0
sg28
I0
sg14
g18
sa(dp371
g17
g15
sg19
I1
sg20
g10
(g12
S'\x87\x00\x00\x00'
tRp372
sg7
I2
sg23
g10
(g12
S'K\x00\x00\x00'
tRp373
sg9
g10
(g12
S'7\x00\x00\x00'
tRp374
sg25
g10
(g12
S'P\x00\x00\x00'
tRp375
sg27
I0
sg28
I0
sg14
g31
sa(dp376
g17
g15
sg19
I1
sg20
g10
(g12
S'\x87\x00\x00\x00'
tRp377
sg7
I1
sg23
g10
(g12
S'K\x00\x00\x00'
tRp378
sg9
g10
(g12
S'7\x00\x00\x00'
tRp379
sg25
g10
(g12
S'P\x00\x00\x00'
tRp380
sg27
I0
sg28
I0
sg14
g15
sa(dp381
g17
g15
sg19
I1
sg20
g10
(g12
S'\x87\x00\x00\x00'
tRp382
sg7
I2
sg23
g10
(g12
S'K\x00\x00\x00'
tRp383
sg9
g10
(g12
S'7\x00\x00\x00'
tRp384
sg25
g10
(g12
S'P\x00\x00\x00'
tRp385
sg27
I0
sg28
I0
sg14
g15
sa(dp386
g17
g37
sg19
I3
sg20
g10
(g12
S'\x87\x00\x00\x00'
tRp387
sg7
I2
sg23
g10
(g12
S'K\x00\x00\x00'
tRp388
sg9
g10
(g12
S'7\x00\x00\x00'
tRp389
sg25
g10
(g12
S'\xb0\xff\xff\xff'
tRp390
sg27
I0
sg28
I0
sg14
g37
sa(dp391
g17
g15
sg19
I1
sg20
g10
(g12
S'\x87\x00\x00\x00'
tRp392
sg7
I2
sg23
g10
(g12
S'K\x00\x00\x00'
tRp393
sg9
g10
(g12
S'7\x00\x00\x00'
tRp394
sg25
g10
(g12
S'P\x00\x00\x00'
tRp395
sg27
I0
sg28
I0
sg14
g15
sa(dp396
g17
g15
sg19
I1
sg20
g10
(g12
S'\x87\x00\x00\x00'
tRp397
sg7
I2
sg23
g10
(g12
S'K\x00\x00\x00'
tRp398
sg9
g10
(g12
S'7\x00\x00\x00'
tRp399
sg25
g10
(g12
S'P\x00\x00\x00'
tRp400
sg27
I0
sg28
I0
sg14
g15
sa(dp401
g17
g31
sg19
I2
sg20
g10
(g12
S'-\x00\x00\x00'
tRp402
sg7
I2
sg23
g10
(g12
S'K\x00\x00\x00'
tRp403
sg9
g10
(g12
S'7\x00\x00\x00'
tRp404
sg25
g10
(g12
S'\xb0\xff\xff\xff'
tRp405
sg27
I0
sg28
I0
sg14
g31
sa(dp406
g17
g31
sg19
I2
sg20
g10
(g12
S'-\x00\x00\x00'
tRp407
sg7
I2
sg23
g10
(g12
S'K\x00\x00\x00'
tRp408
sg9
g10
(g12
S'7\x00\x00\x00'
tRp409
sg25
g10
(g12
S'\xb0\xff\xff\xff'
tRp410
sg27
I0
sg28
I0
sg14
g15
sa(dp411
g17
g31
sg19
I2
sg20
g10
(g12
S'-\x00\x00\x00'
tRp412
sg7
I1
sg23
g10
(g12
S'K\x00\x00\x00'
tRp413
sg9
g10
(g12
S'7\x00\x00\x00'
tRp414
sg25
g10
(g12
S'\xb0\xff\xff\xff'
tRp415
sg27
I0
sg28
I0
sg14
g31
sa(dp416
g17
g31
sg19
I2
sg20
g10
(g12
S'-\x00\x00\x00'
tRp417
sg7
I1
sg23
g10
(g12
S'K\x00\x00\x00'
tRp418
sg9
g10
(g12
S'7\x00\x00\x00'
tRp419
sg25
g10
(g12
S'\xb0\xff\xff\xff'
tRp420
sg27
I0
sg28
I0
sg14
g15
sa(dp421
g17
g18
sg19
I0
sg20
g10
(g12
S'-\x00\x00\x00'
tRp422
sg7
I1
sg23
g10
(g12
S'K\x00\x00\x00'
tRp423
sg9
g10
(g12
S'7\x00\x00\x00'
tRp424
sg25
g10
(g12
S'P\x00\x00\x00'
tRp425
sg27
I0
sg28
I0
sg14
g18
sa(dp426
g17
g37
sg19
I3
sg20
g10
(g12
S'\x87\x00\x00\x00'
tRp427
sg7
I2
sg23
g10
(g12
S'K\x00\x00\x00'
tRp428
sg9
g10
(g12
S'7\x00\x00\x00'
tRp429
sg25
g10
(g12
S'\xb0\xff\xff\xff'
tRp430
sg27
I0
sg28
I0
sg14
g37
sa(dp431
g17
g15
sg19
I1
sg20
g10
(g12
S'\x87\x00\x00\x00'
tRp432
sg7
I1
sg23
g10
(g12
S'K\x00\x00\x00'
tRp433
sg9
g10
(g12
S'7\x00\x00\x00'
tRp434
sg25
g10
(g12
S'P\x00\x00\x00'
tRp435
sg27
I0
sg28
I0
sg14
g37
sa(dp436
g17
g31
sg19
I2
sg20
g10
(g12
S'-\x00\x00\x00'
tRp437
sg7
I1
sg23
g10
(g12
S'K\x00\x00\x00'
tRp438
sg9
g10
(g12
S'7\x00\x00\x00'
tRp439
sg25
g10
(g12
S'\xb0\xff\xff\xff'
tRp440
sg27
I0
sg28
I0
sg14
g31
sa(dp441
g17
g37
sg19
I3
sg20
g10
(g12
S'\x87\x00\x00\x00'
tRp442
sg7
I1
sg23
g10
(g12
S'K\x00\x00\x00'
tRp443
sg9
g10
(g12
S'7\x00\x00\x00'
tRp444
sg25
g10
(g12
S'\xb0\xff\xff\xff'
tRp445
sg27
I0
sg28
I0
sg14
g15
sa(dp446
g17
g18
sg19
I0
sg20
g10
(g12
S'-\x00\x00\x00'
tRp447
sg7
I1
sg23
g10
(g12
S'K\x00\x00\x00'
tRp448
sg9
g10
(g12
S'7\x00\x00\x00'
tRp449
sg25
g10
(g12
S'P\x00\x00\x00'
tRp450
sg27
I0
sg28
I0
sg14
g37
sa(dp451
g17
g18
sg19
I0
sg20
g10
(g12
S'-\x00\x00\x00'
tRp452
sg7
I2
sg23
g10
(g12
S'K\x00\x00\x00'
tRp453
sg9
g10
(g12
S'7\x00\x00\x00'
tRp454
sg25
g10
(g12
S'P\x00\x00\x00'
tRp455
sg27
I0
sg28
I0
sg14
g37
sa(dp456
g17
g37
sg19
I3
sg20
g10
(g12
S'\x87\x00\x00\x00'
tRp457
sg7
I2
sg23
g10
(g12
S'K\x00\x00\x00'
tRp458
sg9
g10
(g12
S'7\x00\x00\x00'
tRp459
sg25
g10
(g12
S'\xb0\xff\xff\xff'
tRp460
sg27
I0
sg28
I0
sg14
g18
sa(dp461
g17
g18
sg19
I0
sg20
g10
(g12
S'-\x00\x00\x00'
tRp462
sg7
I1
sg23
g10
(g12
S'K\x00\x00\x00'
tRp463
sg9
g10
(g12
S'7\x00\x00\x00'
tRp464
sg25
g10
(g12
S'P\x00\x00\x00'
tRp465
sg27
I0
sg28
I0
sg14
g31
sa(dp466
g17
g37
sg19
I3
sg20
g10
(g12
S'\x87\x00\x00\x00'
tRp467
sg7
I2
sg23
g10
(g12
S'K\x00\x00\x00'
tRp468
sg9
g10
(g12
S'7\x00\x00\x00'
tRp469
sg25
g10
(g12
S'\xb0\xff\xff\xff'
tRp470
sg27
I0
sg28
I0
sg14
g37
sa(dp471
g17
g18
sg19
I0
sg20
g10
(g12
S'-\x00\x00\x00'
tRp472
sg7
I1
sg23
g10
(g12
S'K\x00\x00\x00'
tRp473
sg9
g10
(g12
S'7\x00\x00\x00'
tRp474
sg25
g10
(g12
S'P\x00\x00\x00'
tRp475
sg27
I0
sg28
I0
sg14
g15
sa(dp476
g17
g31
sg19
I2
sg20
g10
(g12
S'-\x00\x00\x00'
tRp477
sg7
I1
sg23
g10
(g12
S'K\x00\x00\x00'
tRp478
sg9
g10
(g12
S'7\x00\x00\x00'
tRp479
sg25
g10
(g12
S'\xb0\xff\xff\xff'
tRp480
sg27
I0
sg28
I0
sg14
g15
sa(dp481
g17
g15
sg19
I1
sg20
g10
(g12
S'\x87\x00\x00\x00'
tRp482
sg7
I1
sg23
g10
(g12
S'K\x00\x00\x00'
tRp483
sg9
g10
(g12
S'7\x00\x00\x00'
tRp484
sg25
g10
(g12
S'P\x00\x00\x00'
tRp485
sg27
I0
sg28
I0
sg14
g15
sa(dp486
g17
g18
sg19
I0
sg20
g10
(g12
S'-\x00\x00\x00'
tRp487
sg7
I2
sg23
g10
(g12
S'K\x00\x00\x00'
tRp488
sg9
g10
(g12
S'7\x00\x00\x00'
tRp489
sg25
g10
(g12
S'P\x00\x00\x00'
tRp490
sg27
I0
sg28
I0
sg14
g15
sa(dp491
g17
g31
sg19
I2
sg20
g10
(g12
S'-\x00\x00\x00'
tRp492
sg7
I2
sg23
g10
(g12
S'K\x00\x00\x00'
tRp493
sg9
g10
(g12
S'7\x00\x00\x00'
tRp494
sg25
g10
(g12
S'\xb0\xff\xff\xff'
tRp495
sg27
I0
sg28
I0
sg14
g31
sa(dp496
g17
g37
sg19
I3
sg20
g10
(g12
S'\x87\x00\x00\x00'
tRp497
sg7
I2
sg23
g10
(g12
S'K\x00\x00\x00'
tRp498
sg9
g10
(g12
S'7\x00\x00\x00'
tRp499
sg25
g10
(g12
S'\xb0\xff\xff\xff'
tRp500
sg27
I0
sg28
I0
sg14
g31
sa(dp501
g17
g18
sg19
I0
sg20
g10
(g12
S'-\x00\x00\x00'
tRp502
sg7
I1
sg23
g10
(g12
S'K\x00\x00\x00'
tRp503
sg9
g10
(g12
S'7\x00\x00\x00'
tRp504
sg25
g10
(g12
S'P\x00\x00\x00'
tRp505
sg27
I0
sg28
I0
sg14
g18
sa(dp506
g17
g31
sg19
I2
sg20
g10
(g12
S'-\x00\x00\x00'
tRp507
sg7
I2
sg23
g10
(g12
S'K\x00\x00\x00'
tRp508
sg9
g10
(g12
S'7\x00\x00\x00'
tRp509
sg25
g10
(g12
S'\xb0\xff\xff\xff'
tRp510
sg27
I0
sg28
I0
sg14
g37
sa(dp511
g17
g37
sg19
I3
sg20
g10
(g12
S'\x87\x00\x00\x00'
tRp512
sg7
I2
sg23
g10
(g12
S'K\x00\x00\x00'
tRp513
sg9
g10
(g12
S'7\x00\x00\x00'
tRp514
sg25
g10
(g12
S'\xb0\xff\xff\xff'
tRp515
sg27
I0
sg28
I0
sg14
g37
sa(dp516
g17
g18
sg19
I0
sg20
g10
(g12
S'-\x00\x00\x00'
tRp517
sg7
I1
sg23
g10
(g12
S'K\x00\x00\x00'
tRp518
sg9
g10
(g12
S'7\x00\x00\x00'
tRp519
sg25
g10
(g12
S'P\x00\x00\x00'
tRp520
sg27
I0
sg28
I0
sg14
g18
sa(dp521
g17
g37
sg19
I3
sg20
g10
(g12
S'\x87\x00\x00\x00'
tRp522
sg7
I1
sg23
g10
(g12
S'K\x00\x00\x00'
tRp523
sg9
g10
(g12
S'7\x00\x00\x00'
tRp524
sg25
g10
(g12
S'\xb0\xff\xff\xff'
tRp525
sg27
I0
sg28
I0
sg14
g37
sa(dp526
g17
g15
sg19
I1
sg20
g10
(g12
S'\x87\x00\x00\x00'
tRp527
sg7
I1
sg23
g10
(g12
S'K\x00\x00\x00'
tRp528
sg9
g10
(g12
S'7\x00\x00\x00'
tRp529
sg25
g10
(g12
S'P\x00\x00\x00'
tRp530
sg27
I0
sg28
I0
sg14
g31
sa(dp531
g17
g37
sg19
I3
sg20
g10
(g12
S'\x87\x00\x00\x00'
tRp532
sg7
I2
sg23
g10
(g12
S'K\x00\x00\x00'
tRp533
sg9
g10
(g12
S'7\x00\x00\x00'
tRp534
sg25
g10
(g12
S'\xb0\xff\xff\xff'
tRp535
sg27
I0
sg28
I0
sg14
g18
sa(dp536
g17
g31
sg19
I2
sg20
g10
(g12
S'-\x00\x00\x00'
tRp537
sg7
I2
sg23
g10
(g12
S'K\x00\x00\x00'
tRp538
sg9
g10
(g12
S'7\x00\x00\x00'
tRp539
sg25
g10
(g12
S'\xb0\xff\xff\xff'
tRp540
sg27
I0
sg28
I0
sg14
g18
sa(dp541
g17
g37
sg19
I3
sg20
g10
(g12
S'\x87\x00\x00\x00'
tRp542
sg7
I1
sg23
g10
(g12
S'K\x00\x00\x00'
tRp543
sg9
g10
(g12
S'7\x00\x00\x00'
tRp544
sg25
g10
(g12
S'\xb0\xff\xff\xff'
tRp545
sg27
I0
sg28
I0
sg14
g15
sa(dp546
g17
g18
sg19
I0
sg20
g10
(g12
S'-\x00\x00\x00'
tRp547
sg7
I1
sg23
g10
(g12
S'K\x00\x00\x00'
tRp548
sg9
g10
(g12
S'7\x00\x00\x00'
tRp549
sg25
g10
(g12
S'P\x00\x00\x00'
tRp550
sg27
I0
sg28
I0
sg14
g18
sa(dp551
g17
g37
sg19
I3
sg20
g10
(g12
S'\x87\x00\x00\x00'
tRp552
sg7
I1
sg23
g10
(g12
S'K\x00\x00\x00'
tRp553
sg9
g10
(g12
S'7\x00\x00\x00'
tRp554
sg25
g10
(g12
S'\xb0\xff\xff\xff'
tRp555
sg27
I0
sg28
I0
sg14
g37
sa(dp556
g17
g37
sg19
I3
sg20
g10
(g12
S'\x87\x00\x00\x00'
tRp557
sg7
I2
sg23
g10
(g12
S'K\x00\x00\x00'
tRp558
sg9
g10
(g12
S'7\x00\x00\x00'
tRp559
sg25
g10
(g12
S'\xb0\xff\xff\xff'
tRp560
sg27
I0
sg28
I0
sg14
g31
sa(dp561
g17
g31
sg19
I2
sg20
g10
(g12
S'-\x00\x00\x00'
tRp562
sg7
I2
sg23
g10
(g12
S'K\x00\x00\x00'
tRp563
sg9
g10
(g12
S'7\x00\x00\x00'
tRp564
sg25
g10
(g12
S'\xb0\xff\xff\xff'
tRp565
sg27
I0
sg28
I0
sg14
g31
sa(dp566
g17
g31
sg19
I2
sg20
g10
(g12
S'-\x00\x00\x00'
tRp567
sg7
I2
sg23
g10
(g12
S'K\x00\x00\x00'
tRp568
sg9
g10
(g12
S'7\x00\x00\x00'
tRp569
sg25
g10
(g12
S'\xb0\xff\xff\xff'
tRp570
sg27
I0
sg28
I0
sg14
g31
sa(dp571
g17
g37
sg19
I3
sg20
g10
(g12
S'\x87\x00\x00\x00'
tRp572
sg7
I2
sg23
g10
(g12
S'K\x00\x00\x00'
tRp573
sg9
g10
(g12
S'7\x00\x00\x00'
tRp574
sg25
g10
(g12
S'\xb0\xff\xff\xff'
tRp575
sg27
I0
sg28
I0
sg14
g37
sa(dp576
g17
g31
sg19
I2
sg20
g10
(g12
S'-\x00\x00\x00'
tRp577
sg7
I2
sg23
g10
(g12
S'K\x00\x00\x00'
tRp578
sg9
g10
(g12
S'7\x00\x00\x00'
tRp579
sg25
g10
(g12
S'\xb0\xff\xff\xff'
tRp580
sg27
I0
sg28
I0
sg14
g31
sa(dp581
g17
g37
sg19
I3
sg20
g10
(g12
S'\x87\x00\x00\x00'
tRp582
sg7
I1
sg23
g10
(g12
S'K\x00\x00\x00'
tRp583
sg9
g10
(g12
S'7\x00\x00\x00'
tRp584
sg25
g10
(g12
S'\xb0\xff\xff\xff'
tRp585
sg27
I0
sg28
I0
sg14
g18
sa(dp586
g17
g15
sg19
I1
sg20
g10
(g12
S'\x87\x00\x00\x00'
tRp587
sg7
I2
sg23
g10
(g12
S'K\x00\x00\x00'
tRp588
sg9
g10
(g12
S'7\x00\x00\x00'
tRp589
sg25
g10
(g12
S'P\x00\x00\x00'
tRp590
sg27
I0
sg28
I0
sg14
g15
sa(dp591
g17
g31
sg19
I2
sg20
g10
(g12
S'-\x00\x00\x00'
tRp592
sg7
I1
sg23
g10
(g12
S'K\x00\x00\x00'
tRp593
sg9
g10
(g12
S'7\x00\x00\x00'
tRp594
sg25
g10
(g12
S'\xb0\xff\xff\xff'
tRp595
sg27
I0
sg28
I0
sg14
g15
sa(dp596
g17
g31
sg19
I2
sg20
g10
(g12
S'-\x00\x00\x00'
tRp597
sg7
I1
sg23
g10
(g12
S'K\x00\x00\x00'
tRp598
sg9
g10
(g12
S'7\x00\x00\x00'
tRp599
sg25
g10
(g12
S'\xb0\xff\xff\xff'
tRp600
sg27
I0
sg28
I0
sg14
g18
sa(dp601
g17
g31
sg19
I2
sg20
g10
(g12
S'-\x00\x00\x00'
tRp602
sg7
I1
sg23
g10
(g12
S'K\x00\x00\x00'
tRp603
sg9
g10
(g12
S'7\x00\x00\x00'
tRp604
sg25
g10
(g12
S'\xb0\xff\xff\xff'
tRp605
sg27
I0
sg28
I0
sg14
g37
sa(dp606
g17
g15
sg19
I1
sg20
g10
(g12
S'\x87\x00\x00\x00'
tRp607
sg7
I1
sg23
g10
(g12
S'K\x00\x00\x00'
tRp608
sg9
g10
(g12
S'7\x00\x00\x00'
tRp609
sg25
g10
(g12
S'P\x00\x00\x00'
tRp610
sg27
I0
sg28
I0
sg14
g15
sa(dp611
g17
g15
sg19
I1
sg20
g10
(g12
S'\x87\x00\x00\x00'
tRp612
sg7
I1
sg23
g10
(g12
S'K\x00\x00\x00'
tRp613
sg9
g10
(g12
S'7\x00\x00\x00'
tRp614
sg25
g10
(g12
S'P\x00\x00\x00'
tRp615
sg27
I0
sg28
I0
sg14
g15
sa(dp616
g17
g15
sg19
I1
sg20
g10
(g12
S'\x87\x00\x00\x00'
tRp617
sg7
I2
sg23
g10
(g12
S'K\x00\x00\x00'
tRp618
sg9
g10
(g12
S'7\x00\x00\x00'
tRp619
sg25
g10
(g12
S'P\x00\x00\x00'
tRp620
sg27
I0
sg28
I0
sg14
g18
sa(dp621
g17
g37
sg19
I3
sg20
g10
(g12
S'\x87\x00\x00\x00'
tRp622
sg7
I2
sg23
g10
(g12
S'K\x00\x00\x00'
tRp623
sg9
g10
(g12
S'7\x00\x00\x00'
tRp624
sg25
g10
(g12
S'\xb0\xff\xff\xff'
tRp625
sg27
I0
sg28
I0
sg14
g15
sa(dp626
g17
g31
sg19
I2
sg20
g10
(g12
S'-\x00\x00\x00'
tRp627
sg7
I2
sg23
g10
(g12
S'K\x00\x00\x00'
tRp628
sg9
g10
(g12
S'7\x00\x00\x00'
tRp629
sg25
g10
(g12
S'\xb0\xff\xff\xff'
tRp630
sg27
I0
sg28
I0
sg14
g31
sa(dp631
g17
g31
sg19
I2
sg20
g10
(g12
S'-\x00\x00\x00'
tRp632
sg7
I2
sg23
g10
(g12
S'K\x00\x00\x00'
tRp633
sg9
g10
(g12
S'7\x00\x00\x00'
tRp634
sg25
g10
(g12
S'\xb0\xff\xff\xff'
tRp635
sg27
I0
sg28
I0
sg14
g31
sa(dp636
g17
g31
sg19
I2
sg20
g10
(g12
S'-\x00\x00\x00'
tRp637
sg7
I1
sg23
g10
(g12
S'K\x00\x00\x00'
tRp638
sg9
g10
(g12
S'7\x00\x00\x00'
tRp639
sg25
g10
(g12
S'\xb0\xff\xff\xff'
tRp640
sg27
I0
sg28
I0
sg14
g31
sa(dp641
g17
g18
sg19
I0
sg20
g10
(g12
S'-\x00\x00\x00'
tRp642
sg7
I1
sg23
g10
(g12
S'K\x00\x00\x00'
tRp643
sg9
g10
(g12
S'7\x00\x00\x00'
tRp644
sg25
g10
(g12
S'P\x00\x00\x00'
tRp645
sg27
I0
sg28
I0
sg14
g18
sa(dp646
g17
g15
sg19
I1
sg20
g10
(g12
S'\x87\x00\x00\x00'
tRp647
sg7
I2
sg23
g10
(g12
S'K\x00\x00\x00'
tRp648
sg9
g10
(g12
S'7\x00\x00\x00'
tRp649
sg25
g10
(g12
S'P\x00\x00\x00'
tRp650
sg27
I0
sg28
I0
sg14
g15
sa(dp651
g17
g18
sg19
I0
sg20
g10
(g12
S'-\x00\x00\x00'
tRp652
sg7
I2
sg23
g10
(g12
S'K\x00\x00\x00'
tRp653
sg9
g10
(g12
S'7\x00\x00\x00'
tRp654
sg25
g10
(g12
S'P\x00\x00\x00'
tRp655
sg27
I0
sg28
I0
sg14
g31
sa(dp656
g17
g15
sg19
I1
sg20
g10
(g12
S'\x87\x00\x00\x00'
tRp657
sg7
I2
sg23
g10
(g12
S'K\x00\x00\x00'
tRp658
sg9
g10
(g12
S'7\x00\x00\x00'
tRp659
sg25
g10
(g12
S'P\x00\x00\x00'
tRp660
sg27
I0
sg28
I0
sg14
g37
sa(dp661
g17
g37
sg19
I3
sg20
g10
(g12
S'\x87\x00\x00\x00'
tRp662
sg7
I2
sg23
g10
(g12
S'K\x00\x00\x00'
tRp663
sg9
g10
(g12
S'7\x00\x00\x00'
tRp664
sg25
g10
(g12
S'\xb0\xff\xff\xff'
tRp665
sg27
I0
sg28
I0
sg14
g15
sa(dp666
g17
g31
sg19
I2
sg20
g10
(g12
S'-\x00\x00\x00'
tRp667
sg7
I2
sg23
g10
(g12
S'K\x00\x00\x00'
tRp668
sg9
g10
(g12
S'7\x00\x00\x00'
tRp669
sg25
g10
(g12
S'\xb0\xff\xff\xff'
tRp670
sg27
I0
sg28
I0
sg14
g31
sa(dp671
g17
g31
sg19
I2
sg20
g10
(g12
S'-\x00\x00\x00'
tRp672
sg7
I1
sg23
g10
(g12
S'K\x00\x00\x00'
tRp673
sg9
g10
(g12
S'7\x00\x00\x00'
tRp674
sg25
g10
(g12
S'\xb0\xff\xff\xff'
tRp675
sg27
I0
sg28
I0
sg14
g37
sa(dp676
g17
g31
sg19
I2
sg20
g10
(g12
S'-\x00\x00\x00'
tRp677
sg7
I2
sg23
g10
(g12
S'K\x00\x00\x00'
tRp678
sg9
g10
(g12
S'7\x00\x00\x00'
tRp679
sg25
g10
(g12
S'\xb0\xff\xff\xff'
tRp680
sg27
I0
sg28
I0
sg14
g31
sa(dp681
g17
g37
sg19
I3
sg20
g10
(g12
S'\x87\x00\x00\x00'
tRp682
sg7
I1
sg23
g10
(g12
S'K\x00\x00\x00'
tRp683
sg9
g10
(g12
S'7\x00\x00\x00'
tRp684
sg25
g10
(g12
S'\xb0\xff\xff\xff'
tRp685
sg27
I0
sg28
I0
sg14
g18
sa(dp686
g17
g31
sg19
I2
sg20
g10
(g12
S'-\x00\x00\x00'
tRp687
sg7
I1
sg23
g10
(g12
S'K\x00\x00\x00'
tRp688
sg9
g10
(g12
S'7\x00\x00\x00'
tRp689
sg25
g10
(g12
S'\xb0\xff\xff\xff'
tRp690
sg27
I0
sg28
I0
sg14
g31
sa(dp691
g17
g37
sg19
I3
sg20
g10
(g12
S'\x87\x00\x00\x00'
tRp692
sg7
I2
sg23
g10
(g12
S'K\x00\x00\x00'
tRp693
sg9
g10
(g12
S'7\x00\x00\x00'
tRp694
sg25
g10
(g12
S'\xb0\xff\xff\xff'
tRp695
sg27
I0
sg28
I0
sg14
g37
sa(dp696
g17
g18
sg19
I0
sg20
g10
(g12
S'-\x00\x00\x00'
tRp697
sg7
I2
sg23
g10
(g12
S'K\x00\x00\x00'
tRp698
sg9
g10
(g12
S'7\x00\x00\x00'
tRp699
sg25
g10
(g12
S'P\x00\x00\x00'
tRp700
sg27
I0
sg28
I0
sg14
g15
sa(dp701
g17
g18
sg19
I0
sg20
g10
(g12
S'-\x00\x00\x00'
tRp702
sg7
I2
sg23
g10
(g12
S'K\x00\x00\x00'
tRp703
sg9
g10
(g12
S'7\x00\x00\x00'
tRp704
sg25
g10
(g12
S'P\x00\x00\x00'
tRp705
sg27
I0
sg28
I0
sg14
g18
sa(dp706
g17
g37
sg19
I3
sg20
g10
(g12
S'\x87\x00\x00\x00'
tRp707
sg7
I1
sg23
g10
(g12
S'K\x00\x00\x00'
tRp708
sg9
g10
(g12
S'7\x00\x00\x00'
tRp709
sg25
g10
(g12
S'\xb0\xff\xff\xff'
tRp710
sg27
I0
sg28
I0
sg14
g31
sa(dp711
g17
g37
sg19
I3
sg20
g10
(g12
S'\x87\x00\x00\x00'
tRp712
sg7
I2
sg23
g10
(g12
S'K\x00\x00\x00'
tRp713
sg9
g10
(g12
S'7\x00\x00\x00'
tRp714
sg25
g10
(g12
S'\xb0\xff\xff\xff'
tRp715
sg27
I0
sg28
I0
sg14
g37
sa(dp716
g17
g18
sg19
I0
sg20
g10
(g12
S'-\x00\x00\x00'
tRp717
sg7
I2
sg23
g10
(g12
S'K\x00\x00\x00'
tRp718
sg9
g10
(g12
S'7\x00\x00\x00'
tRp719
sg25
g10
(g12
S'P\x00\x00\x00'
tRp720
sg27
I0
sg28
I0
sg14
g18
sa(dp721
g17
g18
sg19
I0
sg20
g10
(g12
S'-\x00\x00\x00'
tRp722
sg7
I2
sg23
g10
(g12
S'K\x00\x00\x00'
tRp723
sg9
g10
(g12
S'7\x00\x00\x00'
tRp724
sg25
g10
(g12
S'P\x00\x00\x00'
tRp725
sg27
I0
sg28
I0
sg14
g18
sa(dp726
g17
g15
sg19
I1
sg20
g10
(g12
S'\x87\x00\x00\x00'
tRp727
sg7
I1
sg23
g10
(g12
S'K\x00\x00\x00'
tRp728
sg9
g10
(g12
S'7\x00\x00\x00'
tRp729
sg25
g10
(g12
S'P\x00\x00\x00'
tRp730
sg27
I0
sg28
I0
sg14
g15
sa(dp731
g17
g15
sg19
I1
sg20
g10
(g12
S'\x87\x00\x00\x00'
tRp732
sg7
I2
sg23
g10
(g12
S'K\x00\x00\x00'
tRp733
sg9
g10
(g12
S'7\x00\x00\x00'
tRp734
sg25
g10
(g12
S'P\x00\x00\x00'
tRp735
sg27
I0
sg28
I0
sg14
g15
sa(dp736
g17
g15
sg19
I1
sg20
g10
(g12
S'\x87\x00\x00\x00'
tRp737
sg7
I1
sg23
g10
(g12
S'K\x00\x00\x00'
tRp738
sg9
g10
(g12
S'7\x00\x00\x00'
tRp739
sg25
g10
(g12
S'P\x00\x00\x00'
tRp740
sg27
I0
sg28
I0
sg14
g15
sa(dp741
g17
g18
sg19
I0
sg20
g10
(g12
S'-\x00\x00\x00'
tRp742
sg7
I1
sg23
g10
(g12
S'K\x00\x00\x00'
tRp743
sg9
g10
(g12
S'7\x00\x00\x00'
tRp744
sg25
g10
(g12
S'P\x00\x00\x00'
tRp745
sg27
I0
sg28
I0
sg14
g18
sa(dp746
g17
g18
sg19
I0
sg20
g10
(g12
S'-\x00\x00\x00'
tRp747
sg7
I2
sg23
g10
(g12
S'K\x00\x00\x00'
tRp748
sg9
g10
(g12
S'7\x00\x00\x00'
tRp749
sg25
g10
(g12
S'P\x00\x00\x00'
tRp750
sg27
I0
sg28
I0
sg14
g18
sa(dp751
g17
g15
sg19
I1
sg20
g10
(g12
S'\x87\x00\x00\x00'
tRp752
sg7
I1
sg23
g10
(g12
S'K\x00\x00\x00'
tRp753
sg9
g10
(g12
S'7\x00\x00\x00'
tRp754
sg25
g10
(g12
S'P\x00\x00\x00'
tRp755
sg27
I0
sg28
I0
sg14
g15
sa(dp756
g17
g15
sg19
I1
sg20
g10
(g12
S'\x87\x00\x00\x00'
tRp757
sg7
I1
sg23
g10
(g12
S'K\x00\x00\x00'
tRp758
sg9
g10
(g12
S'7\x00\x00\x00'
tRp759
sg25
g10
(g12
S'P\x00\x00\x00'
tRp760
sg27
I0
sg28
I0
sg14
g15
sa(dp761
g17
g37
sg19
I3
sg20
g10
(g12
S'\x87\x00\x00\x00'
tRp762
sg7
I1
sg23
g10
(g12
S'K\x00\x00\x00'
tRp763
sg9
g10
(g12
S'7\x00\x00\x00'
tRp764
sg25
g10
(g12
S'\xb0\xff\xff\xff'
tRp765
sg27
I0
sg28
I0
sg14
g37
sa(dp766
g17
g15
sg19
I1
sg20
g10
(g12
S'\x87\x00\x00\x00'
tRp767
sg7
I2
sg23
g10
(g12
S'K\x00\x00\x00'
tRp768
sg9
g10
(g12
S'7\x00\x00\x00'
tRp769
sg25
g10
(g12
S'P\x00\x00\x00'
tRp770
sg27
I0
sg28
I0
sg14
g15
sa(dp771
g17
g37
sg19
I3
sg20
g10
(g12
S'\x87\x00\x00\x00'
tRp772
sg7
I1
sg23
g10
(g12
S'K\x00\x00\x00'
tRp773
sg9
g10
(g12
S'7\x00\x00\x00'
tRp774
sg25
g10
(g12
S'\xb0\xff\xff\xff'
tRp775
sg27
I0
sg28
I0
sg14
g37
sa(dp776
g17
g15
sg19
I1
sg20
g10
(g12
S'\x87\x00\x00\x00'
tRp777
sg7
I1
sg23
g10
(g12
S'K\x00\x00\x00'
tRp778
sg9
g10
(g12
S'7\x00\x00\x00'
tRp779
sg25
g10
(g12
S'P\x00\x00\x00'
tRp780
sg27
I0
sg28
I0
sg14
g15
sa(dp781
g17
g37
sg19
I3
sg20
g10
(g12
S'\x87\x00\x00\x00'
tRp782
sg7
I2
sg23
g10
(g12
S'K\x00\x00\x00'
tRp783
sg9
g10
(g12
S'7\x00\x00\x00'
tRp784
sg25
g10
(g12
S'\xb0\xff\xff\xff'
tRp785
sg27
I0
sg28
I0
sg14
g31
sa(dp786
g17
g15
sg19
I1
sg20
g10
(g12
S'\x87\x00\x00\x00'
tRp787
sg7
I2
sg23
g10
(g12
S'K\x00\x00\x00'
tRp788
sg9
g10
(g12
S'7\x00\x00\x00'
tRp789
sg25
g10
(g12
S'P\x00\x00\x00'
tRp790
sg27
I0
sg28
I0
sg14
g18
sa(dp791
g17
g18
sg19
I0
sg20
g10
(g12
S'-\x00\x00\x00'
tRp792
sg7
I1
sg23
g10
(g12
S'K\x00\x00\x00'
tRp793
sg9
g10
(g12
S'7\x00\x00\x00'
tRp794
sg25
g10
(g12
S'P\x00\x00\x00'
tRp795
sg27
I0
sg28
I0
sg14
g15
sa(dp796
g17
g15
sg19
I1
sg20
g10
(g12
S'\x87\x00\x00\x00'
tRp797
sg7
I1
sg23
g10
(g12
S'K\x00\x00\x00'
tRp798
sg9
g10
(g12
S'7\x00\x00\x00'
tRp799
sg25
g10
(g12
S'P\x00\x00\x00'
tRp800
sg27
I0
sg28
I0
sg14
g15
sa(dp801
g17
g15
sg19
I1
sg20
g10
(g12
S'\x87\x00\x00\x00'
tRp802
sg7
I1
sg23
g10
(g12
S'K\x00\x00\x00'
tRp803
sg9
g10
(g12
S'7\x00\x00\x00'
tRp804
sg25
g10
(g12
S'P\x00\x00\x00'
tRp805
sg27
I0
sg28
I0
sg14
g15
sa(dp806
g17
g31
sg19
I2
sg20
g10
(g12
S'-\x00\x00\x00'
tRp807
sg7
I1
sg23
g10
(g12
S'K\x00\x00\x00'
tRp808
sg9
g10
(g12
S'7\x00\x00\x00'
tRp809
sg25
g10
(g12
S'\xb0\xff\xff\xff'
tRp810
sg27
I0
sg28
I0
sg14
g31
sa(dp811
g17
g15
sg19
I1
sg20
g10
(g12
S'\x87\x00\x00\x00'
tRp812
sg7
I2
sg23
g10
(g12
S'K\x00\x00\x00'
tRp813
sg9
g10
(g12
S'7\x00\x00\x00'
tRp814
sg25
g10
(g12
S'P\x00\x00\x00'
tRp815
sg27
I0
sg28
I0
sg14
g15
sa(dp816
g17
g31
sg19
I2
sg20
g10
(g12
S'-\x00\x00\x00'
tRp817
sg7
I1
sg23
g10
(g12
S'K\x00\x00\x00'
tRp818
sg9
g10
(g12
S'7\x00\x00\x00'
tRp819
sg25
g10
(g12
S'\xb0\xff\xff\xff'
tRp820
sg27
I0
sg28
I0
sg14
g37
sa(dp821
g17
g31
sg19
I2
sg20
g10
(g12
S'-\x00\x00\x00'
tRp822
sg7
I1
sg23
g10
(g12
S'K\x00\x00\x00'
tRp823
sg9
g10
(g12
S'7\x00\x00\x00'
tRp824
sg25
g10
(g12
S'\xb0\xff\xff\xff'
tRp825
sg27
I0
sg28
I0
sg14
g31
sa(dp826
g17
g18
sg19
I0
sg20
g10
(g12
S'-\x00\x00\x00'
tRp827
sg7
I2
sg23
g10
(g12
S'K\x00\x00\x00'
tRp828
sg9
g10
(g12
S'7\x00\x00\x00'
tRp829
sg25
g10
(g12
S'P\x00\x00\x00'
tRp830
sg27
I0
sg28
I0
sg14
g15
sa(dp831
g17
g37
sg19
I3
sg20
g10
(g12
S'\x87\x00\x00\x00'
tRp832
sg7
I1
sg23
g10
(g12
S'K\x00\x00\x00'
tRp833
sg9
g10
(g12
S'7\x00\x00\x00'
tRp834
sg25
g10
(g12
S'\xb0\xff\xff\xff'
tRp835
sg27
I0
sg28
I0
sg14
g37
sa(dp836
g17
g37
sg19
I3
sg20
g10
(g12
S'\x87\x00\x00\x00'
tRp837
sg7
I1
sg23
g10
(g12
S'K\x00\x00\x00'
tRp838
sg9
g10
(g12
S'7\x00\x00\x00'
tRp839
sg25
g10
(g12
S'\xb0\xff\xff\xff'
tRp840
sg27
I0
sg28
I0
sg14
g37
sa(dp841
g17
g31
sg19
I2
sg20
g10
(g12
S'-\x00\x00\x00'
tRp842
sg7
I1
sg23
g10
(g12
S'K\x00\x00\x00'
tRp843
sg9
g10
(g12
S'7\x00\x00\x00'
tRp844
sg25
g10
(g12
S'\xb0\xff\xff\xff'
tRp845
sg27
I0
sg28
I0
sg14
g31
sa(dp846
g17
g15
sg19
I1
sg20
g10
(g12
S'\x87\x00\x00\x00'
tRp847
sg7
I2
sg23
g10
(g12
S'K\x00\x00\x00'
tRp848
sg9
g10
(g12
S'7\x00\x00\x00'
tRp849
sg25
g10
(g12
S'P\x00\x00\x00'
tRp850
sg27
I0
sg28
I0
sg14
g15
sa(dp851
g17
g31
sg19
I2
sg20
g10
(g12
S'-\x00\x00\x00'
tRp852
sg7
I2
sg23
g10
(g12
S'K\x00\x00\x00'
tRp853
sg9
g10
(g12
S'7\x00\x00\x00'
tRp854
sg25
g10
(g12
S'\xb0\xff\xff\xff'
tRp855
sg27
I0
sg28
I0
sg14
g15
sa(dp856
g17
g37
sg19
I3
sg20
g10
(g12
S'\x87\x00\x00\x00'
tRp857
sg7
I2
sg23
g10
(g12
S'K\x00\x00\x00'
tRp858
sg9
g10
(g12
S'7\x00\x00\x00'
tRp859
sg25
g10
(g12
S'\xb0\xff\xff\xff'
tRp860
sg27
I0
sg28
I0
sg14
g37
sa(dp861
g17
g15
sg19
I1
sg20
g10
(g12
S'\x87\x00\x00\x00'
tRp862
sg7
I1
sg23
g10
(g12
S'K\x00\x00\x00'
tRp863
sg9
g10
(g12
S'7\x00\x00\x00'
tRp864
sg25
g10
(g12
S'P\x00\x00\x00'
tRp865
sg27
I0
sg28
I0
sg14
g15
sa(dp866
g17
g18
sg19
I0
sg20
g10
(g12
S'-\x00\x00\x00'
tRp867
sg7
I1
sg23
g10
(g12
S'K\x00\x00\x00'
tRp868
sg9
g10
(g12
S'7\x00\x00\x00'
tRp869
sg25
g10
(g12
S'P\x00\x00\x00'
tRp870
sg27
I0
sg28
I0
sg14
g18
sa(dp871
g17
g18
sg19
I0
sg20
g10
(g12
S'-\x00\x00\x00'
tRp872
sg7
I1
sg23
g10
(g12
S'K\x00\x00\x00'
tRp873
sg9
g10
(g12
S'7\x00\x00\x00'
tRp874
sg25
g10
(g12
S'P\x00\x00\x00'
tRp875
sg27
I0
sg28
I0
sg14
g18
sa(dp876
g17
g18
sg19
I0
sg20
g10
(g12
S'-\x00\x00\x00'
tRp877
sg7
I1
sg23
g10
(g12
S'K\x00\x00\x00'
tRp878
sg9
g10
(g12
S'7\x00\x00\x00'
tRp879
sg25
g10
(g12
S'P\x00\x00\x00'
tRp880
sg27
I0
sg28
I0
sg14
g18
sa(dp881
g17
g15
sg19
I1
sg20
g10
(g12
S'\x87\x00\x00\x00'
tRp882
sg7
I1
sg23
g10
(g12
S'K\x00\x00\x00'
tRp883
sg9
g10
(g12
S'7\x00\x00\x00'
tRp884
sg25
g10
(g12
S'P\x00\x00\x00'
tRp885
sg27
I0
sg28
I0
sg14
g18
sa(dp886
g17
g31
sg19
I2
sg20
g10
(g12
S'-\x00\x00\x00'
tRp887
sg7
I1
sg23
g10
(g12
S'K\x00\x00\x00'
tRp888
sg9
g10
(g12
S'7\x00\x00\x00'
tRp889
sg25
g10
(g12
S'\xb0\xff\xff\xff'
tRp890
sg27
I0
sg28
I0
sg14
g31
sa(dp891
g17
g15
sg19
I1
sg20
g10
(g12
S'\x87\x00\x00\x00'
tRp892
sg7
I1
sg23
g10
(g12
S'K\x00\x00\x00'
tRp893
sg9
g10
(g12
S'7\x00\x00\x00'
tRp894
sg25
g10
(g12
S'P\x00\x00\x00'
tRp895
sg27
I0
sg28
I0
sg14
g15
sa(dp896
g17
g18
sg19
I0
sg20
g10
(g12
S'-\x00\x00\x00'
tRp897
sg7
I1
sg23
g10
(g12
S'K\x00\x00\x00'
tRp898
sg9
g10
(g12
S'7\x00\x00\x00'
tRp899
sg25
g10
(g12
S'P\x00\x00\x00'
tRp900
sg27
I0
sg28
I0
sg14
g18
sa(dp901
g17
g18
sg19
I0
sg20
g10
(g12
S'-\x00\x00\x00'
tRp902
sg7
I2
sg23
g10
(g12
S'K\x00\x00\x00'
tRp903
sg9
g10
(g12
S'7\x00\x00\x00'
tRp904
sg25
g10
(g12
S'P\x00\x00\x00'
tRp905
sg27
I0
sg28
I0
sg14
g18
sa(dp906
g17
g15
sg19
I1
sg20
g10
(g12
S'\x87\x00\x00\x00'
tRp907
sg7
I2
sg23
g10
(g12
S'K\x00\x00\x00'
tRp908
sg9
g10
(g12
S'7\x00\x00\x00'
tRp909
sg25
g10
(g12
S'P\x00\x00\x00'
tRp910
sg27
I0
sg28
I0
sg14
g15
sa(dp911
g17
g31
sg19
I2
sg20
g10
(g12
S'-\x00\x00\x00'
tRp912
sg7
I1
sg23
g10
(g12
S'K\x00\x00\x00'
tRp913
sg9
g10
(g12
S'7\x00\x00\x00'
tRp914
sg25
g10
(g12
S'\xb0\xff\xff\xff'
tRp915
sg27
I0
sg28
I0
sg14
g18
sa(dp916
g17
g18
sg19
I0
sg20
g10
(g12
S'-\x00\x00\x00'
tRp917
sg7
I2
sg23
g10
(g12
S'K\x00\x00\x00'
tRp918
sg9
g10
(g12
S'7\x00\x00\x00'
tRp919
sg25
g10
(g12
S'P\x00\x00\x00'
tRp920
sg27
I0
sg28
I0
sg14
g18
sa(dp921
g17
g31
sg19
I2
sg20
g10
(g12
S'-\x00\x00\x00'
tRp922
sg7
I2
sg23
g10
(g12
S'K\x00\x00\x00'
tRp923
sg9
g10
(g12
S'7\x00\x00\x00'
tRp924
sg25
g10
(g12
S'\xb0\xff\xff\xff'
tRp925
sg27
I0
sg28
I0
sg14
g18
sa(dp926
g17
g37
sg19
I3
sg20
g10
(g12
S'\x87\x00\x00\x00'
tRp927
sg7
I2
sg23
g10
(g12
S'K\x00\x00\x00'
tRp928
sg9
g10
(g12
S'7\x00\x00\x00'
tRp929
sg25
g10
(g12
S'\xb0\xff\xff\xff'
tRp930
sg27
I0
sg28
I0
sg14
g37
sa(dp931
g17
g18
sg19
I0
sg20
g10
(g12
S'-\x00\x00\x00'
tRp932
sg7
I1
sg23
g10
(g12
S'K\x00\x00\x00'
tRp933
sg9
g10
(g12
S'7\x00\x00\x00'
tRp934
sg25
g10
(g12
S'P\x00\x00\x00'
tRp935
sg27
I0
sg28
I0
sg14
g18
sa(dp936
g17
g18
sg19
I0
sg20
g10
(g12
S'-\x00\x00\x00'
tRp937
sg7
I2
sg23
g10
(g12
S'K\x00\x00\x00'
tRp938
sg9
g10
(g12
S'7\x00\x00\x00'
tRp939
sg25
g10
(g12
S'P\x00\x00\x00'
tRp940
sg27
I0
sg28
I0
sg14
g37
sa(dp941
g17
g15
sg19
I1
sg20
g10
(g12
S'\x87\x00\x00\x00'
tRp942
sg7
I1
sg23
g10
(g12
S'K\x00\x00\x00'
tRp943
sg9
g10
(g12
S'7\x00\x00\x00'
tRp944
sg25
g10
(g12
S'P\x00\x00\x00'
tRp945
sg27
I0
sg28
I0
sg14
g31
sa(dp946
g17
g37
sg19
I3
sg20
g10
(g12
S'\x87\x00\x00\x00'
tRp947
sg7
I1
sg23
g10
(g12
S'K\x00\x00\x00'
tRp948
sg9
g10
(g12
S'7\x00\x00\x00'
tRp949
sg25
g10
(g12
S'\xb0\xff\xff\xff'
tRp950
sg27
I0
sg28
I0
sg14
g37
sa(dp951
g17
g37
sg19
I3
sg20
g10
(g12
S'\x87\x00\x00\x00'
tRp952
sg7
I1
sg23
g10
(g12
S'K\x00\x00\x00'
tRp953
sg9
g10
(g12
S'7\x00\x00\x00'
tRp954
sg25
g10
(g12
S'\xb0\xff\xff\xff'
tRp955
sg27
I0
sg28
I0
sg14
g18
sa(dp956
g17
g37
sg19
I3
sg20
g10
(g12
S'\x87\x00\x00\x00'
tRp957
sg7
I2
sg23
g10
(g12
S'K\x00\x00\x00'
tRp958
sg9
g10
(g12
S'7\x00\x00\x00'
tRp959
sg25
g10
(g12
S'\xb0\xff\xff\xff'
tRp960
sg27
I0
sg28
I0
sg14
g37
sa(dp961
g17
g18
sg19
I0
sg20
g10
(g12
S'-\x00\x00\x00'
tRp962
sg7
I2
sg23
g10
(g12
S'K\x00\x00\x00'
tRp963
sg9
g10
(g12
S'7\x00\x00\x00'
tRp964
sg25
g10
(g12
S'P\x00\x00\x00'
tRp965
sg27
I0
sg28
I0
sg14
g18
sa(dp966
g17
g15
sg19
I1
sg20
g10
(g12
S'\x87\x00\x00\x00'
tRp967
sg7
I2
sg23
g10
(g12
S'K\x00\x00\x00'
tRp968
sg9
g10
(g12
S'7\x00\x00\x00'
tRp969
sg25
g10
(g12
S'P\x00\x00\x00'
tRp970
sg27
I0
sg28
I0
sg14
g37
sa(dp971
g17
g15
sg19
I1
sg20
g10
(g12
S'\x87\x00\x00\x00'
tRp972
sg7
I2
sg23
g10
(g12
S'K\x00\x00\x00'
tRp973
sg9
g10
(g12
S'7\x00\x00\x00'
tRp974
sg25
g10
(g12
S'P\x00\x00\x00'
tRp975
sg27
I0
sg28
I0
sg14
g15
sa(dp976
g17
g31
sg19
I2
sg20
g10
(g12
S'-\x00\x00\x00'
tRp977
sg7
I2
sg23
g10
(g12
S'K\x00\x00\x00'
tRp978
sg9
g10
(g12
S'7\x00\x00\x00'
tRp979
sg25
g10
(g12
S'\xb0\xff\xff\xff'
tRp980
sg27
I0
sg28
I0
sg14
g31
sa(dp981
g17
g18
sg19
I0
sg20
g10
(g12
S'-\x00\x00\x00'
tRp982
sg7
I2
sg23
g10
(g12
S'K\x00\x00\x00'
tRp983
sg9
g10
(g12
S'7\x00\x00\x00'
tRp984
sg25
g10
(g12
S'P\x00\x00\x00'
tRp985
sg27
I0
sg28
I0
sg14
g18
sa(dp986
g17
g37
sg19
I3
sg20
g10
(g12
S'\x87\x00\x00\x00'
tRp987
sg7
I1
sg23
g10
(g12
S'K\x00\x00\x00'
tRp988
sg9
g10
(g12
S'7\x00\x00\x00'
tRp989
sg25
g10
(g12
S'\xb0\xff\xff\xff'
tRp990
sg27
I0
sg28
I0
sg14
g15
sa(dp991
g17
g31
sg19
I2
sg20
g10
(g12
S'-\x00\x00\x00'
tRp992
sg7
I2
sg23
g10
(g12
S'K\x00\x00\x00'
tRp993
sg9
g10
(g12
S'7\x00\x00\x00'
tRp994
sg25
g10
(g12
S'\xb0\xff\xff\xff'
tRp995
sg27
I0
sg28
I0
sg14
g31
sa(dp996
g17
g31
sg19
I2
sg20
g10
(g12
S'-\x00\x00\x00'
tRp997
sg7
I1
sg23
g10
(g12
S'K\x00\x00\x00'
tRp998
sg9
g10
(g12
S'7\x00\x00\x00'
tRp999
sg25
g10
(g12
S'\xb0\xff\xff\xff'
tRp1000
sg27
I0
sg28
I0
sg14
g31
sa(dp1001
g17
g18
sg19
I0
sg20
g10
(g12
S'-\x00\x00\x00'
tRp1002
sg7
I1
sg23
g10
(g12
S'K\x00\x00\x00'
tRp1003
sg9
g10
(g12
S'7\x00\x00\x00'
tRp1004
sg25
g10
(g12
S'P\x00\x00\x00'
tRp1005
sg27
I0
sg28
I0
sg14
g31
sa(dp1006
g17
g37
sg19
I3
sg20
g10
(g12
S'\x87\x00\x00\x00'
tRp1007
sg7
I2
sg23
g10
(g12
S'K\x00\x00\x00'
tRp1008
sg9
g10
(g12
S'7\x00\x00\x00'
tRp1009
sg25
g10
(g12
S'\xb0\xff\xff\xff'
tRp1010
sg27
I0
sg28
I0
sg14
g15
sa(dp1011
g17
g31
sg19
I2
sg20
g10
(g12
S'-\x00\x00\x00'
tRp1012
sg7
I1
sg23
g10
(g12
S'K\x00\x00\x00'
tRp1013
sg9
g10
(g12
S'7\x00\x00\x00'
tRp1014
sg25
g10
(g12
S'\xb0\xff\xff\xff'
tRp1015
sg27
I0
sg28
I0
sg14
g31
sa(dp1016
g17
g37
sg19
I3
sg20
g10
(g12
S'\x87\x00\x00\x00'
tRp1017
sg7
I2
sg23
g10
(g12
S'K\x00\x00\x00'
tRp1018
sg9
g10
(g12
S'7\x00\x00\x00'
tRp1019
sg25
g10
(g12
S'\xb0\xff\xff\xff'
tRp1020
sg27
I0
sg28
I0
sg14
g18
sa(dp1021
g17
g37
sg19
I3
sg20
g10
(g12
S'\x87\x00\x00\x00'
tRp1022
sg7
I1
sg23
g10
(g12
S'K\x00\x00\x00'
tRp1023
sg9
g10
(g12
S'7\x00\x00\x00'
tRp1024
sg25
g10
(g12
S'\xb0\xff\xff\xff'
tRp1025
sg27
I0
sg28
I0
sg14
g37
sa(dp1026
g17
g18
sg19
I0
sg20
g10
(g12
S'-\x00\x00\x00'
tRp1027
sg7
I1
sg23
g10
(g12
S'K\x00\x00\x00'
tRp1028
sg9
g10
(g12
S'7\x00\x00\x00'
tRp1029
sg25
g10
(g12
S'P\x00\x00\x00'
tRp1030
sg27
I0
sg28
I0
sg14
g31
sa(dp1031
g17
g18
sg19
I0
sg20
g10
(g12
S'-\x00\x00\x00'
tRp1032
sg7
I1
sg23
g10
(g12
S'K\x00\x00\x00'
tRp1033
sg9
g10
(g12
S'7\x00\x00\x00'
tRp1034
sg25
g10
(g12
S'P\x00\x00\x00'
tRp1035
sg27
I0
sg28
I0
sg14
g37
sa(dp1036
g17
g15
sg19
I1
sg20
g10
(g12
S'\x87\x00\x00\x00'
tRp1037
sg7
I2
sg23
g10
(g12
S'K\x00\x00\x00'
tRp1038
sg9
g10
(g12
S'7\x00\x00\x00'
tRp1039
sg25
g10
(g12
S'P\x00\x00\x00'
tRp1040
sg27
I0
sg28
I0
sg14
g15
sa(dp1041
g17
g18
sg19
I0
sg20
g10
(g12
S'-\x00\x00\x00'
tRp1042
sg7
I2
sg23
g10
(g12
S'K\x00\x00\x00'
tRp1043
sg9
g10
(g12
S'7\x00\x00\x00'
tRp1044
sg25
g10
(g12
S'P\x00\x00\x00'
tRp1045
sg27
I0
sg28
I0
sg14
g31
sa(dp1046
g17
g15
sg19
I1
sg20
g10
(g12
S'\x87\x00\x00\x00'
tRp1047
sg7
I1
sg23
g10
(g12
S'K\x00\x00\x00'
tRp1048
sg9
g10
(g12
S'7\x00\x00\x00'
tRp1049
sg25
g10
(g12
S'P\x00\x00\x00'
tRp1050
sg27
I0
sg28
I0
sg14
g37
sa(dp1051
g17
g37
sg19
I3
sg20
g10
(g12
S'\x87\x00\x00\x00'
tRp1052
sg7
I2
sg23
g10
(g12
S'K\x00\x00\x00'
tRp1053
sg9
g10
(g12
S'7\x00\x00\x00'
tRp1054
sg25
g10
(g12
S'\xb0\xff\xff\xff'
tRp1055
sg27
I0
sg28
I0
sg14
g37
sa(dp1056
g17
g37
sg19
I3
sg20
g10
(g12
S'\x87\x00\x00\x00'
tRp1057
sg7
I1
sg23
g10
(g12
S'K\x00\x00\x00'
tRp1058
sg9
g10
(g12
S'7\x00\x00\x00'
tRp1059
sg25
g10
(g12
S'\xb0\xff\xff\xff'
tRp1060
sg27
I0
sg28
I0
sg14
g37
sa(dp1061
g17
g18
sg19
I0
sg20
g10
(g12
S'-\x00\x00\x00'
tRp1062
sg7
I2
sg23
g10
(g12
S'K\x00\x00\x00'
tRp1063
sg9
g10
(g12
S'7\x00\x00\x00'
tRp1064
sg25
g10
(g12
S'P\x00\x00\x00'
tRp1065
sg27
I0
sg28
I0
sg14
g18
sa(dp1066
g17
g15
sg19
I1
sg20
g10
(g12
S'\x87\x00\x00\x00'
tRp1067
sg7
I1
sg23
g10
(g12
S'K\x00\x00\x00'
tRp1068
sg9
g10
(g12
S'7\x00\x00\x00'
tRp1069
sg25
g10
(g12
S'P\x00\x00\x00'
tRp1070
sg27
I0
sg28
I0
sg14
g15
sa(dp1071
g17
g31
sg19
I2
sg20
g10
(g12
S'-\x00\x00\x00'
tRp1072
sg7
I2
sg23
g10
(g12
S'K\x00\x00\x00'
tRp1073
sg9
g10
(g12
S'7\x00\x00\x00'
tRp1074
sg25
g10
(g12
S'\xb0\xff\xff\xff'
tRp1075
sg27
I0
sg28
I0
sg14
g31
sa(dp1076
g17
g18
sg19
I0
sg20
g10
(g12
S'-\x00\x00\x00'
tRp1077
sg7
I1
sg23
g10
(g12
S'K\x00\x00\x00'
tRp1078
sg9
g10
(g12
S'7\x00\x00\x00'
tRp1079
sg25
g10
(g12
S'P\x00\x00\x00'
tRp1080
sg27
I0
sg28
I0
sg14
g37
sa(dp1081
g17
g18
sg19
I0
sg20
g10
(g12
S'-\x00\x00\x00'
tRp1082
sg7
I2
sg23
g10
(g12
S'K\x00\x00\x00'
tRp1083
sg9
g10
(g12
S'7\x00\x00\x00'
tRp1084
sg25
g10
(g12
S'P\x00\x00\x00'
tRp1085
sg27
I0
sg28
I0
sg14
g18
sa(dp1086
g17
g37
sg19
I3
sg20
g10
(g12
S'\x87\x00\x00\x00'
tRp1087
sg7
I1
sg23
g10
(g12
S'K\x00\x00\x00'
tRp1088
sg9
g10
(g12
S'7\x00\x00\x00'
tRp1089
sg25
g10
(g12
S'\xb0\xff\xff\xff'
tRp1090
sg27
I0
sg28
I0
sg14
g37
sa(dp1091
g17
g18
sg19
I0
sg20
g10
(g12
S'-\x00\x00\x00'
tRp1092
sg7
I2
sg23
g10
(g12
S'K\x00\x00\x00'
tRp1093
sg9
g10
(g12
S'7\x00\x00\x00'
tRp1094
sg25
g10
(g12
S'P\x00\x00\x00'
tRp1095
sg27
I0
sg28
I0
sg14
g37
sa(dp1096
g17
g37
sg19
I3
sg20
g10
(g12
S'\x87\x00\x00\x00'
tRp1097
sg7
I1
sg23
g10
(g12
S'K\x00\x00\x00'
tRp1098
sg9
g10
(g12
S'7\x00\x00\x00'
tRp1099
sg25
g10
(g12
S'\xb0\xff\xff\xff'
tRp1100
sg27
I0
sg28
I0
sg14
g37
sa(dp1101
g17
g31
sg19
I2
sg20
g10
(g12
S'-\x00\x00\x00'
tRp1102
sg7
I2
sg23
g10
(g12
S'K\x00\x00\x00'
tRp1103
sg9
g10
(g12
S'7\x00\x00\x00'
tRp1104
sg25
g10
(g12
S'\xb0\xff\xff\xff'
tRp1105
sg27
I0
sg28
I0
sg14
g31
sa(dp1106
g17
g31
sg19
I2
sg20
g10
(g12
S'-\x00\x00\x00'
tRp1107
sg7
I2
sg23
g10
(g12
S'K\x00\x00\x00'
tRp1108
sg9
g10
(g12
S'7\x00\x00\x00'
tRp1109
sg25
g10
(g12
S'\xb0\xff\xff\xff'
tRp1110
sg27
I0
sg28
I0
sg14
g37
sa(dp1111
g17
g15
sg19
I1
sg20
g10
(g12
S'\x87\x00\x00\x00'
tRp1112
sg7
I1
sg23
g10
(g12
S'K\x00\x00\x00'
tRp1113
sg9
g10
(g12
S'7\x00\x00\x00'
tRp1114
sg25
g10
(g12
S'P\x00\x00\x00'
tRp1115
sg27
I0
sg28
I0
sg14
g15
sa(dp1116
g17
g18
sg19
I0
sg20
g10
(g12
S'-\x00\x00\x00'
tRp1117
sg7
I1
sg23
g10
(g12
S'K\x00\x00\x00'
tRp1118
sg9
g10
(g12
S'7\x00\x00\x00'
tRp1119
sg25
g10
(g12
S'P\x00\x00\x00'
tRp1120
sg27
I0
sg28
I0
sg14
g18
sa(dp1121
g17
g18
sg19
I0
sg20
g10
(g12
S'-\x00\x00\x00'
tRp1122
sg7
I2
sg23
g10
(g12
S'K\x00\x00\x00'
tRp1123
sg9
g10
(g12
S'7\x00\x00\x00'
tRp1124
sg25
g10
(g12
S'P\x00\x00\x00'
tRp1125
sg27
I0
sg28
I0
sg14
g31
sa(dp1126
g17
g31
sg19
I2
sg20
g10
(g12
S'-\x00\x00\x00'
tRp1127
sg7
I1
sg23
g10
(g12
S'K\x00\x00\x00'
tRp1128
sg9
g10
(g12
S'7\x00\x00\x00'
tRp1129
sg25
g10
(g12
S'\xb0\xff\xff\xff'
tRp1130
sg27
I0
sg28
I0
sg14
g31
saa(lp1131
aI3
a(dp1132
S'lastModified'
p1133
S'2017-04-19 14:34:35.970000'
p1134
sS'created'
p1135
S'2017-04-19 14:34:20.212000'
p1136
sa.