(dp0
S'parameterArray'
p1
(lp2
(dp3
S'trial_start'
p4
F4.666761885620417
sS'task'
p5
I1
sS'trial_orientation'
p6
F3.0
sS'base_color_lum'
p7
cnumpy.core.multiarray
scalar
p8
(cnumpy
dtype
p9
(S'i4'
p10
I0
I1
tp11
Rp12
(I3
S'<'
p13
NNNI-1
I-1
I0
tp14
bS'7\x00\x00\x00'
p15
tp16
Rp17
sS'trial_cue'
p18
S'red135'
p19
sS'trial_color'
p20
I70
sS'trial_stimulus_label'
p21
S'red45'
p22
sS'trial_stimulus'
p23
I0
sS'base_ori'
p24
g8
(g12
S'-\x00\x00\x00'
p25
tp26
Rp27
sS'trial_end'
p28
F11.51307678382318
sS'base_color_b'
p29
g8
(g12
S'K\x00\x00\x00'
p30
tp31
Rp32
sS'base_color_a'
p33
g8
(g12
S'P\x00\x00\x00'
p34
tp35
Rp36
sS'trial_position_y'
p37
I0
sS'trial_position_x'
p38
I0
sa(dp39
g4
F11.76705652271221
sg5
I1
sg6
F3.0
sg7
g8
(g12
S'7\x00\x00\x00'
p40
tp41
Rp42
sg18
S'green45'
p43
sg20
I70
sg21
g19
sg23
I1
sg24
g8
(g12
S'\x87\x00\x00\x00'
p44
tp45
Rp46
sg28
F18.612706598758905
sg29
g8
(g12
S'K\x00\x00\x00'
p47
tp48
Rp49
sg33
g8
(g12
S'P\x00\x00\x00'
p50
tp51
Rp52
sg37
I0
sg38
I0
sa(dp53
g4
F18.86367810291904
sg5
I2
sg6
F-3.0
sg7
g8
(g12
S'7\x00\x00\x00'
p54
tp55
Rp56
sg18
S'green135'
p57
sg20
I-70
sg21
g57
sg23
I3
sg24
g8
(g12
S'\x87\x00\x00\x00'
p58
tp59
Rp60
sg28
F25.70398822021798
sg29
g8
(g12
S'K\x00\x00\x00'
p61
tp62
Rp63
sg33
g8
(g12
S'\xb0\xff\xff\xff'
p64
tp65
Rp66
sg37
I0
sg38
I0
sa(dp67
g4
F25.957193663663475
sg5
I1
sg6
F-3.0
sg7
g8
(g12
S'7\x00\x00\x00'
p68
tp69
Rp70
sg18
g57
sg20
I-70
sg21
g57
sg23
I3
sg24
g8
(g12
S'\x87\x00\x00\x00'
p71
tp72
Rp73
sg28
F27.278895175050366
sg29
g8
(g12
S'K\x00\x00\x00'
p74
tp75
Rp76
sg33
g8
(g12
S'\xb0\xff\xff\xff'
p77
tp78
Rp79
sg37
I0
sg38
I0
sasS'eventArray'
p80
(lp81
(lp82
S'trial 0 started at 4.66676188562'
p83
aS'trial 0 phase 6 started at 8.36323094445'
p84
aa(lp85
S'trial 1 started at 11.7670565227'
p86
aS'trial 1 phase 6 started at 15.4628504963'
p87
aa(lp88
S'trial 2 started at 18.8636781029'
p89
aS'trial 2 phase 6 started at 22.5541401002'
p90
aa(lp91
S'trial 3 started at 25.9571936637'
p92
a(lp93
I-99
aF1.3134690631054582
aaasS'trialResponses'
p94
(lp95
s.