(lp1
ccopy_reg
_reconstructor
p2
(cStaircase
ThreeUpOneDownStaircase
p3
c__builtin__
object
p4
NtRp5
(dp6
S'nr_reversals'
p7
I10
sS'nr_correct'
p8
I0
sS'max_nr_trials'
p9
I40
sS'past_answers'
p10
(lp11
F0.5
aF0.5
aF0.5
asS'present_increment_value'
p12
I15
sS'initial_value'
p13
I70
sS'nr_trials'
p14
I0
sS'initial_stepsize'
p15
I15
sS'test_value'
p16
I70
sS'increment_value'
p17
I15
sS'stepsize_multiplication_on_reversal'
p18
F0.75
sS'present_nr_reversals'
p19
I0
sbag2
(g3
g4
NtRp20
(dp21
g7
I10
sg8
I0
sg9
I40
sg10
(lp22
F0.5
aF0.5
aF0.5
asg12
I15
sg13
I70
sg14
I0
sg15
I15
sg16
I70
sg17
I15
sg18
F0.75
sg19
I0
sbag2
(g3
g4
NtRp23
(dp24
g7
I10
sg8
I0
sg9
I40
sg10
(lp25
F0.5
aF0.5
aF0.5
asg12
I1
sg13
I3
sg14
I0
sg15
I1
sg16
I3
sg17
I1
sg18
F0.75
sg19
I0
sbag2
(g3
g4
NtRp26
(dp27
g7
I10
sg8
I0
sg9
I40
sg10
(lp28
F0.5
aF0.5
aF0.5
asg12
I1
sg13
I3
sg14
I0
sg15
I1
sg16
I3
sg17
I1
sg18
F0.75
sg19
I0
sba.